Bc:_glClearStencil
zne:_Array_InternalArray__ICollection_Add_TisMark_t2724874473_m1613484179_gshared
f$g:__ZL80Graphic_t2426225576_CustomAttributesCacheGenerator_Graphic_OnFillVBO_m1723985607P21CustomAttributesCache
bCj:__ZN6il2cpp2vm5Array13GetByteLengthEP11Il2CppArray
SNh:_Raycast3DCallback_BeginInvoke_m3028685017
J7g:__Z79RuntimeInvoker_RuntimeObject_Int64_t909078037_Int64_t909078037_Int64_t909078037PFvvEPK10MethodInfoPvPS4_
QZi:_TextGenerator_Invalidate_m1993568841
Zsf:_Comparison_1_Invoke_m353639462_gshared
KPa:__Z30GetIntermediateRendererManagerv
lI:__ZN10StateRange8TransferI14SafeBinaryReadEEvRT_
mqa:__Z21SourceMipLevelForBlitiiii
qUa:__ZN31CanvasBatchIntermediateRenderer15AddAsRenderNodeER15RenderNodeQueueRK20DeprecatedSourceData
E0d:_Enumerator_get_Key_m2908810861
XI:__ZN15SerializeTraitsIN7mecanim6bitsetILj70EEEE8TransferI14SafeBinaryReadEEvRS2_RT_
ILi:_GUI_DoSetSkin_m2532620610
Zv:__ZN11UnityEngine9Animation28GenericAnimationBindingCacheD2Ev
oKh:_EqualityComparer_1__cctor_m968537130_gshared
P0e:_List_1_System_Collections_IList_IndexOf_m39706221_gshared
wEh:_Dictionary_2_Remove_m1849931834_gshared
u3d:_Decimal_op_Implicit_m2971610317
VMi:_GUILayoutGroup_ResetCursor_m3614985691
HFd:_Graphic_UnregisterDirtyVerticesCallback_m1526739224
q1b:__Z18RestoreRenderStateR20CameraRenderOldStateR17ShaderPassContext
mYd:_SynchronizedArrayListWrapper_get_Item_m3309425850
YDb:__Z18Transfer_BlittableI18StreamedBinaryReadILb1EELb1E5RectTIfEEvRK29SerializationCommandArgumentsR31RuntimeSerializationCommandInfo
Loi:_UnityEventBase_RebuildPersistentCallsIfNeeded_m2776978024
Qzb:__Z18Transfer_BlittableI24GenerateTypeTreeTransferLb0E11ColorRGBA32EvRK29SerializationCommandArgumentsR31RuntimeSerializationCommandInfo
l8:__Z25scripting_class_from_name17ScriptingImagePtrPKcS1_
apj:__ZN14dense_hash_mapI10KeyWrapperINSt3__24pairIPK12PropertyInfoP11Il2CppClassEEEj17ReflectionMapHashIS8_ENS9_14EqualsComparerINS1_8equal_toIS8_EEEENS1_9allocatorINS2_IKS9_jEEEEE15set_deleted_keyERSH_
aKb:__Z29scripting_class_enum_basetype17ScriptingClassPtr
kjh:__Z111RuntimeInvoker_Void_t1841601450_Vector4_t2243707581_Vector4_t2243707581_Vector4_t2243707581_Vector4_t2243707581PFvvEPK10MethodInfoPvPS4_
QJc:__ZN16PhysicsManager2D7RaycastERK3RayfiR12RaycastHit2D
cig:_GenericTypeParameterBuilder_GetHashCode_m867619899
z6f:_TimeSpan_ToString_m2947282901
MJh:_EqualityComparer_1__cctor_m3397254040_gshared
rrb:__ZNK20LocalFileSystemPosix6ParentERK13FileEntryDataRN4core12basic_stringIcNS3_20StringStorageDefaultIcEEEE
Sse:_Array_Sort_TisVector2_t2243707579_m1307634946_gshared
Rna:__ZN7ApiGLES17CopyBufferSubDataEjjlll
pag:_UInt64_System_IConvertible_ToDecimal_m4205696037
pvc:__ZN5Unity9rapidjson15GenericDocumentINS0_4UTF8IcEE13JSONAllocatorS4_E11ParseStreamILj1ES3_NS0_25GenericInsituStringStreamIS3_EEEERS5_RT1_
Y_i:_U3CCreateWhereIteratorU3Ec__Iterator1D_1_Reset_m1773515612_gshared
qVb:__ZN25CameraStackRenderingState20GetOrCreateBuiltinRTE24BuiltinRenderTextureTypeii17DepthBufferFormat19RenderTextureFormatj22RenderTextureReadWrite14VRTextureUsagei
KOi:_AesManaged_CreateEncryptor_m1729287824
V6a:__ZNK14Texture2DArray26CanReuploadDataToGfxDeviceEv
LZb:__ZN17PrePassRenderLoop14RenderBasePassEP13RenderTextureRK14LightingLayersR13dynamic_arrayI16RenderObjectDataLj4EERbR10MinMaxAABB
jId:_GraphicRegistry_RegisterGraphicForCanvas_m2284226562
rVd:_Char_System_IConvertible_ToInt16_m2741348777_AdjustorThunk
dtc:__ZN5IMGUI18RepaintModalWindowER8GUIState
tmf:_ReadOnlyCollection_1_System_Collections_Generic_IListU3CTU3E_set_Item_m1547026160_gshared
AOa:__ZNK15dense_hashtableINSt3__24pairIKN9ShaderLab7Program23ShaderKeywordSetAndHashEPKNS2_10SubProgramEEES4_NS3_24ShaderKeywordHashFunctorEN14dense_hash_mapIS4_S8_SA_NS0_8equal_toIS4_EE13stl_allocatorIS9_L18MemLabelIdentifier67ELi16EEE9SelectKeyESD_SG_E23find_position_with_hashERS5_j
zsg:__ZL61MarshalAsAttribute_t2900773360_CustomAttributesCacheGeneratorP21CustomAttributesCache
C5a:__Z23SetSpriteMeshIndexCountP14SharedMeshDataj
hWa:__ZN7Texture13SetFilterModeEi
rkc:__Z46Register_UnityEngine_Application_get_isPlayingv
aEj:__ZN6il2cpp8metadata13GenericMethod9GetMethodEPK19Il2CppGenericMethod
qq:__ZNSt3__26vectorIN4core12basic_stringIcNS1_20StringStorageDefaultIcEEEENS_9allocatorIS5_EEE7reserveEj
O5d:_Convert_ToUInt16_m2130758075
ilj:__ZN15dense_hashtableINSt3__24pairIK10KeyWrapperINS1_IPK11Il2CppImageP11Il2CppClassEEEjEES9_17ReflectionMapHashIS8_EN14dense_hash_mapIS9_jSD_NS9_14EqualsComparerINS0_8equal_toIS8_EEEENS0_9allocatorISB_EEE9SelectKeyESI_SK_E3endEv
CLf:_X509BasicConstraintsExtension_Encode_m3505127076
_ha:__ZN13GfxDeviceGLES11SetViewportERK5RectTIiE
FKd:_Image_get_pixelsPerUnit_m4104195799
oUh:_Toggle_InternalToggle_m2323729210
_9d:_Decimal_System_IConvertible_ToInt64_m2504363272
mqc:__Z24Time_Get_Custom_PropTimev
zQd:_Array_GetValue_m3182152438
Sd:_emscripten_glDepthRange
T_f:_DESTransform_CipherFunct_m3559419566
gld:_Rijndael_Create_m113171669
z3b:__ZNSt3__26vectorINS_4pairIN4core12basic_stringIcNS2_20StringStorageDefaultIcEEEES6_EE13stl_allocatorIS7_L18MemLabelIdentifier38ELi16EEE12__move_rangeEPS7_SC_SC_
qkb:__Z14resize_trimmedINSt3__26vectorIN9ShaderLab20SerializedSubProgram12UAVParameterENS0_9allocatorIS4_EEEEEvRT_j
Jvc:__ZN5Unity9rapidjson13GenericReaderINS0_4UTF8IcEES3_13JSONAllocatorE11ParseObjectILj1ENS0_25GenericInsituStringStreamIS3_EENS0_15GenericDocumentIS3_S4_S4_EEEEvRT0_RT1_
hWf:_SerializationInfo_AddValue_m1781549036
Dzf:_TlsServerKeyExchange_verifySignature_m3641534563
phc:__ZN13BuildSettings34ConvertScenePathToDisplayScenePathERKN4core12basic_stringIcNS0_20StringStorageDefaultIcEEEE
raa:__ZNSt3__218__insertion_sort_3IRNS_6__lessI14ObjectLoadDataS2_EEPS2_EEvT0_S6_T_
CSh:_Slider_FindSelectableOnLeft_m3136767885
Mpa:__ZN4crndL20crnd_default_reallocEPvjPjbS0_
tke:_Array_BinarySearch_TisInt32_t2071877448_m51233948_gshared
QRj:__ZNSt3__212basic_stringIcNS_11char_traitsIcEENS_9allocatorIcEEEC2ERKS5_
EUf:_ProviderData_CopyFrom_m431414335
s6a:__ZN18SpriteAtlasManager19AddRequestingSpriteE4PPtrI6SpriteE
Wfc:__ZN16PackedQuatVector9PackQuatsEP11Quaternionfi
Zpc:__Z33Texture_CUSTOM_Internal_GetHeightP12Il2CppObject
WOd:_LayoutGroup_get_preferredHeight_m3901163825
u0b:__ZN23ScriptableRenderContextC2Ev
ku:__ZN7mecanim9animation18ClipMuscleConstant8TransferI24GenerateTypeTreeTransferEEvRT_
Z2d:_DateTime_AbsoluteDays_m3061694073
z3c:_UNITY_FT_Stream_GetChar
xEb:__Z18Transfer_BlittableI18StreamedBinaryReadILb1EELb1EdEvRK29SerializationCommandArgumentsR31RuntimeSerializationCommandInfo
yyh:_Enumerator_System_Collections_IEnumerator_get_Current_m229223308_gshared
jKb:__Z26BuildSerializationCacheFor17ScriptingClassPtrRb
Sva:__ZN7ApiGLES15BlitFramebufferEN2gl6HandleILNS0_10ObjectTypeE9EEENS0_15FramebufferReadES3_S3_iiiiiiiiNS0_15FramebufferTypeE
Iri:_Mesh_CheckCanAccessSubmeshTriangles_m2644388378
Ngh:__Z112RuntimeInvoker_RuntimeObject_RuntimeObject_RuntimeObject_RuntimeObject_RuntimeObject_RuntimeObject_RuntimeObjectPFvvEPK10MethodInfoPvPS4_
dEi:_UnitySynchronizationContext__ctor_m1804960286
XXd:_FixedSizeArrayListWrapper_AddRange_m2071800418
eL:__ZN13ProduceHelperI8AnimatorLb0EE7ProduceE18MemLabelIdentifier18ObjectCreationMode
CLb:__Z9InitInputv
pdh:__Z85RuntimeInvoker_Boolean_t3825574718_Int64_t909078037_Int64_t909078037_SByte_t454417549PFvvEPK10MethodInfoPvPS4_
C$e:_Enumerator_VerifyState_m2358705882_AdjustorThunk
OAb:__Z29Transfer_Blittable_ArrayFieldI24GenerateTypeTreeTransfer11ColorRGBA32EvRT_R9ArrayInfoRK23StaticTransferFieldInfo
wsb:__ZN16MemoryFileSystem6DeleteER13FileEntryDatab
Eqa:__ZL21BlitScaleStbImageImplRK14ImageReferenceRS_NS_10ColorSpaceE
gAi:_RectTransform_INTERNAL_set_pivot_m4248720081
iGf:_TlsStream_set_Position_m378064217
IMc:__ZNSt3__26__sortIR31RayHitsByInverseDepthComparitorP12RaycastHit2DEEvT0_S5_T_
Ivb:__Z29Transfer_Blittable_ArrayFieldI14SafeBinaryReadyEvRT_R9ArrayInfoRK23StaticTransferFieldInfo
gT:__ZN20SoundChannelInstance15setChannelGroupEPN4FMOD12ChannelGroupE
bRc:__Z42Collision2D_CUSTOM_CreateCollisionContactsP12Il2CppObjectS0_S0_S0_h
mqd:_Evidence_Equals_m2325859915
Zwi:_PlayableHandle_INTERNAL_CALL_GetPlayableTypeOf_m1683061051
ndg:_Default__ctor_m172834064
pc:invoke_vifffii
Ftj:__ZN6il2cpp2vm9Exception27RaiseNullReferenceExceptionEv
dgi:_Regex_IsMatch_m2159202025
IIa:__ZNK25MultiBlocksMemoryFileData5CloneEv
EJj:_GC_add_ext_descriptor
PRf:_RemotingServices_GetMethodBaseFromName_m3271095947
STj:dynCall_iiiiiiiiiiii
ovd:_ASCIIEncoding_GetBytes_m3617160053
Hyf:_CipherSuiteCollection_System_Collections_IList_RemoveAt_m143866082
_ob:__ZL26KeywordSetToStringDontSortRKNSt3__26vectorIN4core12basic_stringIcNS1_20StringStorageDefaultIcEEEENS_9allocatorIS5_EEEERS5_
wsa:__ZN6prcoreL17RemapGenericFloatI16TexFormatRGFloat17TexFormatRGBAHalfEEvPKNS_9InnerInfoE
DN:__ZN12AudioManager22CreateFMODSoundFromWWWEP10IWWWStream15FMOD_SOUND_TYPE17FMOD_SOUND_FORMATjjbbP10SampleClip
Ibc:__ZNK32RendererMaterialAnimationBinding15GenerateBindingERKN4core12basic_stringIcNS0_20StringStorageDefaultIcEEEEbRN11UnityEngine9Animation14GenericBindingE
A7:__ZN8Remapper23GetOrGenerateInstanceIDERK26SerializedObjectIdentifier
Bt:__ZN17AnimationCurveTplI8Vector3fEC2ERKS1_
QTe:_StreamWriter_Flush_m3426120024
_a:invoke_iiiiiifffiiifii
uRe:_MemoryStream__ctor_m1489366847
Gqd:_SecurityElement_IsValidTag_m64902195
sog:_PropertyInfo_SetValue_m2961483868
x5e:_List_1_System_Collections_IList_Contains_m4193366963_gshared
Ldg:_ConstructorInfo_Invoke_m2144827141
P5a:__ZN6Sprite8TransferI24GenerateTypeTreeTransferEEvRT_
jrc:__Z48Register_UnityEngine_Transform_SetAsFirstSiblingv
S5a:__ZN7SubMesh8TransferI24GenerateTypeTreeTransferEEvRT_
wng:_MonoProperty_get_CanWrite_m2124922514
ddj:__ZN6il2cpp6icalls8mscorlib6SystemL16CheckMemberMatchI9FieldInfoNS_5utils10functional6FilterINSt3__212basic_stringIcNS8_11char_traitsIcEENS8_9allocatorIcEEEENS5_13VmStringUtils23CaseInsensitiveComparerEEEEEbPKT_PK11Il2CppClassSN_iRKT0_
RQj:_poll
gRe:_Stream_BeginRead_m1985960185
B9b:__ZN13ProduceHelperI14Texture2DArrayLb0EE7ProduceE18MemLabelIdentifier18ObjectCreationMode
Yu:__ZN7mecanim5human9HumanGoal8TransferI18StreamedBinaryReadILb0EEEEvRT_
Xvf:_MD4Managed_GG_m1462438360
Coc:__Z53PlayableHandle_CUSTOM_INTERNAL_CALL_GetPlayableTypeOfR9HPlayable
mRc:__Z55Register_UnityEngine_Rigidbody2D_INTERNAL_CALL_AddForcev
gic:__ZN9Transform23SetSiblingIndexInternalEib
nia:__ZN13GfxDeviceGLES17DestroySubProgramEPN9ShaderLab10SubProgramE
Xx:__ZN7mecanim5human12HumanPoseSubERNS0_9HumanPoseERKS1_S4_
eFi:_Vector3_Max_m2076081170
Jvf:_MD4_Create_m2582504069
cyj:__ZN6il2cpp8metadata15GenericMetadata15GetGenericClassEiPK17Il2CppGenericInst
cTd:_Boolean_System_IConvertible_ToInt16_m977801621
hub:__Z18Transfer_BlittableI14SafeBinaryReadLb0E10Matrix4x4fEvRK29SerializationCommandArgumentsR31RuntimeSerializationCommandInfo
BJb:__Z24GetFixedBehaviourManagerv
DSb:__ZN12FlareManager9UpdateJobEP25FlareManagerUpdateJobData
Icj:__ZN6il2cpp2vm10ThreadPool4WaitEP17Il2CppAsyncResultPPv
twi:_Plane__ctor_m730644932_AdjustorThunk
xOc:__ZN11Rigidbody2D8TransferI14SafeBinaryReadEEvRT_
aPj:_vfprintf
Ctc:__ZN10GUIManager12AddGUIScriptER8ListNodeI13MonoBehaviourE
JTa:__ZN19ShaderPropertySheet20ReservePropertyCountEj
lTb:__ZN20DynamicPropertySheetD0Ev
E3b:__ZN14SafeBinaryRead17RegisterConverterEPKcS1_PFbPvRS_E
g3:__ZN35RegisterRuntimeInitializeAndCleanup8RegisterEPFvPvES2_iS0_
Gqj:__ZNSt3__26vectorIN6il2cpp8metadata18GenericArrayMethodENS_9allocatorIS3_EEE7reserveEj
ss:__ZN7mecanim6memory16ChainedAllocator7ReserveEj
yrf:_ReadOnlyCollection_1_System_Collections_IList_Clear_m2600246370_gshared
sBe:_DSAManaged_NormalizeArray_m2287089393
orc:__Z21Object_CUSTOM_DestroyP12Il2CppObjectf
M3h:_InternalEnumerator_1_System_Collections_IEnumerator_get_Current_m2389982234_AdjustorThunk
Eob:__ZN8Material26ResetAllCachedMaterialDataEP6Shader
J3c:_UNITY_TT_Get_MM_Var
O2i:__ZN6il2cpp6icalls8mscorlib6System7Decimal13decimal2Int64EP19il2cpp_decimal_reprPx
ba:invoke_diddi
Lyd:_ExecuteEvents__cctor_m288775360
W5c:__ZNK2UI6Canvas13GetRenderModeEv
i4d:_Double_TryParseStringConstant_m2585405703
ttb:__Z18Transfer_BlittableI14SafeBinaryReadLb0EiEvRK29SerializationCommandArgumentsR31RuntimeSerializationCommandInfo
ubj:__ZN6il2cpp2vm13MetadataCache30GetPropertyDefinitionFromIndexEi
q7h:_ResourceEnumerator__ctor_m1679839941
rld:_RijndaelTransform_Clear_m1652144089
MPe:_MonoIO_GetException_m2577367044
Bed:__ZN22BaseUnityConnectClient17InitializeSessionERKN4core12basic_stringIcNS0_20StringStorageDefaultIcEEEES6_N19CloudServiceHandler13InitModeFlagsE
aBh:_Enumerator_MoveNext_m1404007384_gshared
xYe:_NumberFormatter_get_IsZero_m1325357749
rJ:__ZN15SerializeTraitsI9OffsetPtrIN7mecanim9animation23BlendDirectDataConstantEEE8TransferI24GenerateTypeTreeTransferEEvRS4_RT_
Fri:_Mesh_PrintErrorCantAccessIndices_m2990602703
SZj:_emscripten_glDeleteBuffers__wrapper
Ulh:__Z121RuntimeInvoker_Void_t1841601450_Single_t2076509932_Single_t2076509932_Single_t2076509932_Single_t2076509932_RuntimeObjectPFvvEPK10MethodInfoPvPS4_
yde:_Enum_ToObject_m322320225
Rjc:__ZN13MonoBehaviour34StopCoroutineFromEnumeratorManagedE18ScriptingObjectPtr
Uod:_X509Certificate__ctor_m3860837120
ooh:__Z109RuntimeInvoker_RuntimeObject_Ray_t2469606224_Single_t2076509932_Int32_t2071877448_RuntimeObject_RuntimeObjectPFvvEPK10MethodInfoPvPS4_
trf:_ReadOnlyCollection_1_System_Collections_Generic_IListU3CTU3E_set_Item_m3663361643_gshared
rL:__ZN7mecanim9animation14AvatarConstant15InitializeClassEv
Uxd:_EventTrigger_OnScroll_m626934407
Ofb:__ZN30RuntimeInitializeOnLoadManager8TransferI18StreamedBinaryReadILb0EEEEvRT_
mgg:_TypeBuilder_not_supported_m3178173643
$Xc:_UNITY_tt_face_load_pclt
kjc:__ZL34GetComponentsImplementationRecurseILb1ELi0ELi2EEbR10GameObjectbRK17CompareParametersRK39GetComponentsImplementation_ReturnValue
_Gc:__ZN10ClipperLib7Clipper24InsertLocalMinimaIntoAELEx
jMj:__ZN6il2cpp6icalls8mscorlib6System9Threading5Mutex20CreateMutex_internalEbP12Il2CppStringPb
EXd:_ArrayListWrapper_Remove_m1105489978
HSb:__ZNK6Camera18WorldToScreenPointERK8Vector3fPb
lNi:_GUISkin__ctor_m2824039590
u$d:_HashKeys_CopyTo_m3566668422
mva:__Z18IsCompressedFormat14GraphicsFormat
zVd:_Convert_ToSByte_m2665932200
M6:__ZNSt3__227__insertion_sort_incompleteIRPFbRKN18AwakeFromLoadQueue4ItemES4_EPS2_EEbT0_S9_T_
hfg:_ILGenerator_label_fixup_m1325994348
y9i:__ZN14dense_hash_mapI10KeyWrapperIN6il2cpp5utils13dynamic_arrayIPK10Il2CppTypeLj4EEEEPFvvENS1_8metadata19Il2CppSignatureHashENS8_14EqualsComparerINSB_22Il2CppSignatureCompareEEENSt3__29allocatorINSG_4pairIKS8_SA_EEEEE15set_deleted_keyERSJ_
OMh:_Navigation_Equals_m4214630671_AdjustorThunk
Fof:_ReadOnlyCollection_1_System_Collections_Generic_IListU3CTU3E_set_Item_m257196015_gshared
Skg:_FieldInfo_GetPseudoCustomAttributes_m2500972355
V1a:__ZN26EnlightenSystemInformation8TransferI14SafeBinaryReadEEvRT_
Wue:_Array_InternalArray__get_Item_TisLink_t2723257478_m2281261655_gshared
Sfd:__ZN11UnityEngine15PlatformWrapper20SetPlayerPrefsUInt64ERKN4core12basic_stringIcNS1_20StringStorageDefaultIcEEEEy
M9a:__ZN12MeshRendererD0Ev
BW:__ZN12AudioManager35GetCurrentSpatializerDefinitionNameEv
w_d:_Hashtable__ctor_m2702360557
Bh:_utime
DFi:_Vector4_get_sqrMagnitude_m641641704_AdjustorThunk
xF:__Z28SetExposedSkeletonTransformsRKN7mecanim9animation14AvatarConstantERKN11UnityEngine9Animation30AnimatorGenericBindingConstantERKNS_8skeleton13SkeletonPoseTIN4math4trsXEEERKNSA_INSB_7affineXEEERNS5_21AvatarBindingConstantEy
Kie:_PlayableHandle_IsPlayableOfType_TisAnimationLayerMixerPlayable_t3057952312_m2522157783_AdjustorThunk
vuf:_PrimalityTest_Invoke_m4058801829
tn:FUNCTION_TABLE_viiiiif
mVf:_RemotingConfiguration_SetCustomErrorsMode_m1844153208
yn:FUNCTION_TABLE_viiiiii
Tfe:_CultureInfo_GetFormat_m3560116485
WG:__ZN7mecanim9animation22DestroyAvatarWorkspaceEPNS0_15AvatarWorkspaceERNS_6memory9AllocatorE
Fgi:_AnchorInfo_get_IsPosition_m3791659233
RZb:__ZN15LightmapSTCacheC2ER13BatchRendererR15RenderLoopStats
_sc:__ZNSt3__210__list_impIN10GUIManager12SortedScriptE11memory_poolIS2_EE5clearEv
B_a:__ZN14PlayableOutput17SetSourcePlayableEP8Playable
Gfb:__ZNSt3__26vectorIN4core12basic_stringIcNS1_20StringStorageDefaultIcEEEE13stl_allocatorIS5_L18MemLabelIdentifier13ELi16EEE8__appendEj
DVf:_TrackingServices__cctor_m3639412334
mG:__ZN7mecanim9animation29MotionOutputGetDeltaTransformEPKNS0_12MotionOutputE
y7b:__Z13RegisterClassI16GraphicsSettingsEvv
ELc:__ZN24b2ChainAndCapsuleContact8EvaluateEP10b2ManifoldRK11b2TransformS4_
OL:__ZN8Animator14OnAddComponentEPN5Unity9ComponentE
Cbf:_List_1_CheckMatch_m1184924052_gshared
Eqc:__Z43Transform_CUSTOM_INTERNAL_get_localRotationP12Il2CppObjectP11Quaternionf
_Xj:_glGetShaderInfoLog__wrapper
ei:_emscripten_glGetTexParameteriv
iOj:__ZN6il2cpp8metadata21Il2CppGenericInstHash4HashEPK17Il2CppGenericInst
Swf:_RSAManaged_ImportParameters_m3060955884
S9h:_ChannelData_CopyFrom_m4049054607
F7b:__Z13RegisterClassI4MeshEvv
_Za:__ZN8PlayableD0Ev
eP:__ZN12AudioManager8TransferI19StreamedBinaryWriteILb0EEEEvRT_
NRe:_WriteDelegate_Invoke_m2103848735
ZNi:_Locale_GetText_m512920887
WUf:_RemotingConfiguration_get_ProcessId_m3870172209
aJc:__ZN16CircleCollider2D10SmartResetEv
LIe:_SortKey_ToString_m2406913228
$qb:__ZN22LocalFileSystemHandler9MakeLocalER13FileEntryDatab
JFj:__ZN6il2cpp2vm8Profiler10AllocationEP12Il2CppObjectP11Il2CppClass
p3d:_Convert_ToDateTime_m1020507389
lVc:__ZNSt3__23mapIN20TextRenderingPrivate7FontRefENS1_6OSFontENS_4lessIS2_EENS_9allocatorINS_4pairIKS2_S3_EEEEEixERS8_
Hqi:_Material_SetInt_m2847439171
_fa:__Z13FormatOrderedPKcz
KPe:_Path_IsPathRooted_m1347207448
RWf:_ObjectManager_RegisterObjectInternal_m879109503
oge:_Array_get_swapper_TisVector4_t2243707581_m97441823_gshared
ASc:__ZN14SafeBinaryRead21TransferSTLStyleArrayI10vector_mapINSt3__24pairIttEEfN20TextRenderingPrivate8FontImpl14KerningCompareENS2_9allocatorINS3_IS4_fEEEEEEEvRT_17TransferMetaFlags
a8b:__Z13RegisterClassI15QualitySettingsEvv
rEj:__ZN6il2cpp2vm6String21InitializeEmptyStringEP11Il2CppClass
AZb:__ZN25DeferredRenderLoopScratchD0Ev
sA:__ZN27AnimationLayerMixerPlayable14SetInputWeightEif
Tx:__ZN7mecanim9animation17EvaluateHumanPoseERKNS0_18ClipMuscleConstantERKNS0_15ClipMuscleInputEPKfRKNS0_12MotionOutputERNS_5human9HumanPoseE
fpi:_GameObject_AddComponent_m540062519
Zjb:__ZN15dense_hashtableINSt3__24pairIKiN4core17string_with_labelILi1EEEEEi18SInt32HashFunctionN14dense_hash_mapIiS5_S7_NS0_8equal_toIiEE13stl_allocatorIS6_L18MemLabelIdentifier1ELi16EEE9SelectKeyESA_SD_E9copy_fromERKSG_j
PPa:__ZN6Camera11ResetAspectEv
a8f:_Type_get_IsGenericType_m3396841573
oeb:__ZN15ResourceManagerD0Ev
ELf:_X509BasicConstraintsExtension_get_HasPathLengthConstraint_m3788532759
ITa:__ZNK17InstancedPropInfo22FillInstancePropertiesER19ShaderPropertySheetjPK17BatchInstanceDatajRK15RenderNodeQueue
MOa:__ZN22CreateGpuProgramOutputD2Ev
iW:__ZN13ProduceHelperI13AudioListenerLb0EE7ProduceE18MemLabelIdentifier18ObjectCreationMode
RI:__ZN7mecanim9animation23BlendDirectDataConstant8TransferI14SafeBinaryReadEEvRT_
j0i:_WillRenderCanvases_Invoke_m4267547094
o2d:_DateTimeFormatInfo_GetInstance_m3133223810
Ptf:_ModulusRing_BarrettReduction_m2802101099
kqb:__ZN12HandlerChain4OpenER13FileEntryData14FilePermission16FileAutoBehavior
Fkj:__ZN15dense_hashtableINSt3__24pairIK10KeyWrapperINS1_IPK10MethodInfoP11Il2CppClassEEEjEES9_17ReflectionMapHashIS8_EN14dense_hash_mapIS9_jSD_NS9_14EqualsComparerINS0_8equal_toIS8_EEEENS0_9allocatorISB_EEE9SelectKeyESI_SK_E6insertERKSB_
bCh:_ValueCollection_System_Collections_Generic_ICollectionU3CTValueU3E_Remove_m4188992987_gshared
M9:__ZN14FileCacherReadD2Ev
yhb:__ZN13RendererScene23UpdatePreviousFrameDataEii
Pmd:_RSAPKCS1SignatureDeformatter_VerifySignature_m1825067195
iAi:_RectTransform_remove_reapplyDrivenProperties_m52143263
XWi:__ZL25UnresolvedVirtualCall_123P12Il2CppObjectffPK10MethodInfo
Ilc:__Z50Register_UnityEngine_CullingGroup_FinalizerFailurev
e_e:_KeyValuePair_2_ToString_m2613351884_gshared
gib:__ZN27UnloadUnusedAssetsOperationD0Ev
l_g:__ZL69ColorBlock_t2652774230_CustomAttributesCacheGenerator_m_DisabledColorP21CustomAttributesCache
YNh:_Scrollbar__ctor_m2244981801
$2i:_AnimationLayerMixerPlayable__ctor_m678972180
rnd:_SHA256Managed_HashCore_m4111458495
Ife:_CultureInfo_get_CompareInfo_m3085280862
SXf:_ObjectManager_RecordDelayedFixup_m1895730844
VM:__ZN9AudioClip23VirtualRedirectTransferER18StreamedBinaryReadILb0EE
hAf:_ClientSessionInfo_CheckDisposed_m1394638186
IZf:_SByte_Parse_m2544167007
usd:_Single_CompareTo_m2081476257
Hye:_BigInteger__ctor_m2945783161
TBf:_TlsClientHello_Update_m1723542631
Gzi:_RectOffset_set_top_m1587840032
QJe:_IndexOutOfRangeException__ctor_m3497760912
Ej:_glCopyTexSubImage2D
OUf:_RealProxy_InternalGetTransparentProxy_m3415358600
w$e:_Enumerator_System_Collections_IEnumerator_Reset_m2200349770_gshared
HFj:__ZN6il2cpp6icalls8mscorlib6System7Convert24InternalFromBase64StringEP12Il2CppStringb
uod:_SymmetricAlgorithm_CreateDecryptor_m4240570785
MTh:_Text_get_preferredWidth_m3352156860
U8c:__ZN2UI13CanvasManager14GetRenderOrderEPKNS_6CanvasE
dub:__Z18Transfer_BlittableI14SafeBinaryReadLb0E5RectTIfEEvRK29SerializationCommandArgumentsR31RuntimeSerializationCommandInfo
nhd:__ZNK20UnityWebRequestProtoI24UnityWebRequestTransport16AtomicRefCounter14RedirectHelper14ResponseHelper15DownloadHandler13UploadHandler12HeaderHelper14AsyncOperationE14GetUploadBytesEv
Jpf:_ReadOnlyCollection_1_System_Collections_Generic_IListU3CTU3E_RemoveAt_m878653284_gshared
cge:_DateTimeFormatInfo_GetFormat_m3676195179
uoa:__ZN14GfxContextGLES14GetFramebufferEv
h_j:_emscripten_glGenVertexArrays__wrapper
hra:__ZN6prcoreL21CreateRemapAnyBlitterE13TextureFormatS0_
bhc:__ZN17AnimationCurveTplIfE16StripInvalidKeysEv
_me:_Array_InternalArray__ICollection_Add_TisKeyValuePair_2_t3716250094_m2381539361_gshared
$ni:_InvokableCall_add_Delegate_m1994890856
RFe:_X509Extension_WriteLine_m2850991173
K7c:__ZNK2UI6Canvas17GetSortingLayerIDEv
VMc:__ZN14Raycast2DQuery8RunQueryEb
x7b:__Z13RegisterClassI17GlobalGameManagerEvv
C3a:__ZN8Renderer24SetupNewRendererForSceneEv
Qhe:_Array_InternalArray__ICollection_Remove_TisInt64_t909078037_m2653583130_gshared
CZi:_TextGenerator_Populate_Internal_m65392018
x3f:_Thread_get_ExecutionContext_m922067206
gue:_BaseInvokableCall_ThrowOnInvalidArg_TisInt32_t2071877448_m2823200566_gshared
fAc:__Z35Transfer_Blittable_FixedBufferFieldI8JSONReadtEvRK29SerializationCommandArgumentsR31RuntimeSerializationCommandInfo
pec:__ZN14PlayableOutput6HandleEv
k5a:__ZNK6Sprite22GetTypeVirtualInternalEv
sn:FUNCTION_TABLE_iiiiiiiiiiiiii
Wgh:__Z100RuntimeInvoker_Void_t1841601450_SByte_t454417549_SByte_t454417549_Int32_t2071877448_SByte_t454417549PFvvEPK10MethodInfoPvPS4_
SYc:_UNITY_tt_get_cmap_info
QAb:__Z29Transfer_Blittable_ArrayFieldI24GenerateTypeTreeTransfer5RectTIiEEvRT_R9ArrayInfoRK23StaticTransferFieldInfo
YUa:__ZN16ReflectionProbes8ScheduleEN18ReflectionProbeJob7JobTypeEP15ReflectionProbei
Ajf:_Collection_1_IsFixedSize_m3675221982_gshared
F0e:_Enumerator_MoveNext_m3293920409_AdjustorThunk
rGa:__Z18IsDirectoryCreatedRKN4core12basic_stringIcNS_20StringStorageDefaultIcEEEE
F6c:__ZN2UI13CanvasManagerD2Ev
i6h:_Comparer_1__cctor_m3112251759_gshared
OKf:_X509KeyUsageExtension_ToString_m1992050580
SUc:_UNITY_FT_GlyphLoader_Done
xbg:_ValueType_DefaultEquals_m2245650968
Sgi:_BalancingGroup__ctor_m2474435406
B9h:_ConstructionCall__ctor_m1143766850
j6h:_Comparer_1_System_Collections_IComparer_Compare_m3203078743_gshared
nNc:__ZN19OverlapPointQuery2D14InitializeAABBER6b2AABB
GZc:_tt_cmap14_char_var_index
rHb:__Z35Transfer_Blittable_FixedBufferFieldI18StreamedBinaryReadILb0EEdEvRK29SerializationCommandArgumentsR31RuntimeSerializationCommandInfo
$_c:_psh_globals_new
BRe:_FileStream_Seek_m950719389
A3d:_Decimal_stripStyles_m294582157
kha:__ZN9GfxDevice20SetMaxBufferedFramesEi
JVc:__ZNK20TextRenderingPrivate8TextMesh22GetTypeVirtualInternalEv
b9g:__Z98RuntimeInvoker_Void_t1841601450_Int32_t2071877448_Int32_t2071877448_RuntimeObject_SByte_t454417549PFvvEPK10MethodInfoPvPS4_
LDc:__ZN10Collider2D19WakeAllBodyContactsEv
gUj:dynCall_vdd
t8c:__ZN2UIL17UnloadAllCanvasesEv
Z4b:__Z23ConvertIntegerToTypePtrIsEbPvR14SafeBinaryRead
tyg:__ZL54_MethodBase_t1935530873_CustomAttributesCacheGeneratorP21CustomAttributesCache
iGc:__ZN12b2MouseJoint11ShiftOriginERK6b2Vec2
Ibh:__Z96RuntimeInvoker_Void_t1841601450_SByte_t454417549_RuntimeObject_SByte_t454417549_SByte_t454417549PFvvEPK10MethodInfoPvPS4_
$Xd:_FixedSizeArrayListWrapper_Remove_m1359458911
xli:_CameraCallback_Invoke_m2640212610
pra:__ZN6prcoreL29inner_stretch_rgb565_bilinearEPKNS_9InnerInfoE
mii:_Uri__ctor_m3927533881
Cad:__Z33Canvas_Get_Custom_PropWorldCameraP12Il2CppObject
_Sh:_Text_get_mainTexture_m813502234
LNj:__ZN6il2cpp8metadata19Il2CppSignatureHash4HashERKNS_5utils13dynamic_arrayIPK10Il2CppTypeLj4EEE
LYb:__ZNK14RenderSettings19GetFlatAmbientColorEv
Jqa:__ZN6prcoreL10inner_flipILj4EEEvPhS1_j
$cb:__ZN18StreamedBinaryReadILb0EE21TransferSTLStyleArrayI10vector_mapIPKN5Unity4TypeE7Hash128NSt3__24lessIS6_EENS8_9allocatorINS8_4pairIS6_S7_EEEEEEEvRT_17TransferMetaFlags
oC:__ZNK27StateMachineBehaviourPlayer15IsSenderEnabledEv
Gwh:_Enumerator_VerifyState_m2118679243_gshared
pLd:_InputField_get_shouldHideMobileInput_m3694613599
drc:__Z40Register_UnityEngine_Transform_SetParentv
Pfh:__Z56RuntimeInvoker_TimeSpan_t3430258949_TimeSpan_t3430258949PFvvEPK10MethodInfoPvPS4_
b7a:__ZN14Texture2DArray17UploadToGfxDeviceEv
dpf:_ReadOnlyCollection_1_System_Collections_Generic_IListU3CTU3E_Insert_m4216310986_gshared
Rlf:_ReadOnlyCollection_1_System_Collections_Generic_IListU3CTU3E_set_Item_m1532495847_gshared
MQ:__Z14FMODMemoryFreePvjPKc
CSg:__ZL94Physics2D_t2540166467_CustomAttributesCacheGenerator_Physics2D_Raycast_m298439588____minDepth4P21CustomAttributesCache
SKd:_Image_AddQuad_m1600600902
q0c:_cf2_glyphpath_moveTo
SCc:__ZNK13BoxCollider2D22GetTypeVirtualInternalEv
C8d:_DateTimeOffset__ctor_m1796624924
exd:_BaseRaycaster_OnDisable_m1716508791
Sy:__ZN7mecanim23TransformValueArrayLoopEiiiRKN4math4trsXES3_RNS_10ValueArrayEf
xtc:__ZN5IMGUI14GUIWindowStateD2Ev
MJj:_GC_is_heap_ptr
RSi:_UIFollowObject_Start_m3775554015
LCi:_TouchScreenKeyboard_Open_m2033426733
zF:__ZN7mecanim5human10RetargetToEPKNS0_5HumanEPKNS0_9HumanPoseES6_RKN4math4trsXEPS4_PNS_8skeleton13SkeletonPoseTIS8_EESF_
Ky:__ZN7mecanim9animation8SeekClipERKNS0_12StreamedClipERNS0_18StreamedClipMemoryEf
jm:_emscripten_glIsTexture
Qt:__ZN24CompressedAnimationCurveaSERKS_
HXd:_ArrayListWrapper_CopyTo_m793444109
Qk:_emscripten_glHint
DPc:__ZZN10Collider2D15InitializeClassEvEN30FunctorImpl_98kDidAddComponent4CallEPviR11MessageData
x3c:_ft_var_readpackeddeltas
M7d:_DateTime_AddMilliseconds_m1813199744_AdjustorThunk
zig:_MethodBuilder_GetParameterCount_m467267889
nGj:__ZThn4_N6il2cpp2vm13CachedCCWBaseINS0_13ManagedObjectEE6AddRefEv
UDb:__Z35Transfer_Blittable_FixedBufferFieldI18StreamedBinaryReadILb1EEtEvRK29SerializationCommandArgumentsR31RuntimeSerializationCommandInfo
eAi:_RectTransform_INTERNAL_get_pivot_m4220117653
Iwf:_RSAManaged__ctor_m1680944437
mm:_SDL_UpperBlit
UUa:__Z35GetTextureDecodeValuesWithIntensity16TextureUsageMode17TextureColorSpace10ColorSpacef
LUd:_Byte_GetHashCode_m2885528842_AdjustorThunk
Voj:__ZN15dense_hashtableINSt3__24pairIK10KeyWrapperINS1_IPK9EventInfoP11Il2CppClassEEEjEES9_17ReflectionMapHashIS8_EN14dense_hash_mapIS9_jSD_NS9_14EqualsComparerINS0_8equal_toIS8_EEEENS0_9allocatorISB_EEE9SelectKeyESI_SK_E15set_deleted_keyERKSB_
HDh:_Dictionary_2_OnDeserialization_m2092139626_gshared
dGc:__ZNK12b2MouseJoint10GetAnchorAEv
loi:_PersistentCall__ctor_m3653852388
JJb:__ZN14SafeBinaryRead20OverrideRootTypeNameEPKc
Q9:__ZN14FileCacherRead16UnlockCacheBlockEj
WEe:_X509Certificate_GetUnsignedBigInteger_m3491353542
Nc:_emscripten_glUniform1f
Q6b:__ZN13dynamic_arrayIS_I8Vector2fLj4EELj4EE18resize_initializedEjRKS1_12ResizePolicy
gFf:_SslStreamBase_get_MightNeedHandshake_m3432170694
rVc:__Z20ParseImageParametersR11UTF16StringRiRN20TextRenderingPrivate16TextFormatChangeE
Sc:_emscripten_glUniform1i
mzb:__Z18Transfer_BlittableI24GenerateTypeTreeTransferLb1EN4math12int3_storageEEvRK29SerializationCommandArgumentsR31RuntimeSerializationCommandInfo
S3:__Z33UnregisterDeviceEventCallbackImplPFv23UnityGfxDeviceEventTypeE
eOh:__Z14bankers_roundff
Clb:__ZN9ShaderLab16SerializedTagMapaSERKS0_
XY:__ZN11UnityEngine15CloudWebService16SessionContainer20RestoreSessionHeaderERKN4core12basic_stringIcNS2_20StringStorageDefaultIcEEEES8_RNS0_13SessionHeaderE
q8d:_DateTime_ToString_m1117481977
Whg:_GenericTypeParameterBuilder_GetGenericArguments_m277381309
KG:__ZN11UnityEngine9Animation27CreateAvatarBindingConstantER9TransformPKN7mecanim9animation14AvatarConstantERNS3_6memory9AllocatorE
nag:_UInt64_System_IConvertible_ToDateTime_m2412118561
dkc:__ZN9BlobWriteC2ER13dynamic_arrayIhLj16EE24TransferInstructionFlags19BuildTargetPlatform
_7:__ZN14MessageHandler3GetEv
Yoa:__ZN10DynamicVBO9DrawChunkERK21DynamicVBOChunkHandle17ShaderChannelMaskS3_P17VertexDeclarationPKNS_10DrawParamsEi
ed:_emscripten_glAttachShader
Wnf:_ReadOnlyCollection_1__ctor_m1539890895_gshared
jha:__ZN9GfxDevice13SetActiveTierE12GraphicsTier
p$e:_Enumerator_System_Collections_IEnumerator_get_Current_m3079057684_AdjustorThunk
Ibb:__ZNSt3__26vectorIN4core12basic_stringIcNS1_20StringStorageDefaultIcEEEENS_9allocatorIS5_EEE6assignIPS5_EENS_9enable_ifIXaasr21__is_forward_iteratorIT_EE5valuesr16is_constructibleIS5_NS_15iterator_traitsISC_E9referenceEEE5valueEvE4typeESC_SC_
MBe:_KeyPairPersistence_get_UserPath_m3433052783
Rpg:__ZL58Decimal_t724701077_CustomAttributesCacheGenerator_MinusOneP21CustomAttributesCache
Mtb:__Z18Transfer_BlittableI14SafeBinaryReadLb0E11QuaternionfEvRK29SerializationCommandArgumentsR31RuntimeSerializationCommandInfo
PCc:__ZN13BoxCollider2D16CheckConsistencyEv
$Gb:__Z18Transfer_BlittableI18StreamedBinaryReadILb0EELb1E12PropertyNameEvRK29SerializationCommandArgumentsR31RuntimeSerializationCommandInfo
s1:_tlsf_walk_heap
uEe:_PKCS12_Decode_m731190390
D0h:_InternalEnumerator_1_get_Current_m1550231132_gshared
Dbg:_Version_CheckedSet_m76493673
mb:invoke_vif
nb:invoke_vid
fSj:__ZNSt3__212basic_stringIcNS_11char_traitsIcEENS_9allocatorIcEEE6insertEjPKc
FCg:__ZL67UnverifiableCodeAttribute_t765455733_CustomAttributesCacheGeneratorP21CustomAttributesCache
ob:invoke_vii
gSb:__ZNK12ImageFilters8DoRenderER17ShaderPassContextP13RenderTextureS3_RKNSt3__26vectorI11ImageFilterNS4_9allocatorIS6_EEEE
cFa:__ZN12TLSAllocatorI14StackAllocatorE16ThreadInitializeEP13BaseAllocator
dXd:_ArrayList_Sort_m2778059513
Kha:__ZN9GfxDevice32UpdateStereoViewProjectionMatrixE21MonoOrStereoscopicEye
SOb:__ZN15dense_hashtableINSt3__24pairIKN4core12basic_stringIcNS2_20StringStorageDefaultIcEEEEP20ArchiveStorageReaderEES6_20StringHash32FunctionIS6_EN14dense_hash_mapIS6_S9_SC_NS0_8equal_toIS6_EE13stl_allocatorISA_L18MemLabelIdentifier55ELi16EEE9SelectKeyESF_SI_E12resize_deltaEjj
JJd:_LayoutGroup_SetChildAlongAxis_m2732017156
J9c:__Z41CanvasRenderer_CUSTOM_DisableRectClippingP12Il2CppObject
zvf:_MD2_Create_m539024737
Yhh:__Z112RuntimeInvoker_Void_t1841601450_RuntimeObject_Int32_t2071877448_Int32_t2071877448_RuntimeObject_SByte_t454417549PFvvEPK10MethodInfoPvPS4_
tJa:__ZN25SingleBlockMemoryFileDataD0Ev
mFa:__ZNSt3__26vectorI14ConstantStringNS_9allocatorIS1_EEE6assignINS_11__wrap_iterIPS1_EEEENS_9enable_ifIXaasr21__is_forward_iteratorIT_EE5valuesr16is_constructibleIS1_NS_15iterator_traitsISA_E9referenceEEE5valueEvE4typeESA_SA_
SY:__ZN11UnityEngine15CloudWebService16SessionContainer21ConvertFromFolderTimeERKN4core12basic_stringIcNS2_20StringStorageDefaultIcEEEEPjPt
xvb:__ZNSt3__26vectorI8GUIStyle13stl_allocatorIS1_L18MemLabelIdentifier1ELi16EEE7reserveEj
Zsj:__ZN6il2cpp6icalls8mscorlib6System9Threading6Thread27GetSerializedCurrentCultureEP12Il2CppThread
kme:_Array_InternalArray__IndexOf_TisUInt32_t2149682021_m3231515987_gshared
x9b:__Z31CalculateHierarchyTransformType23TransformAccessReadOnly
V7b:__Z13RegisterClassI11TimeManagerEvv
DQ:__ZN4FMOD8ChannelI11setPositionEjj
Aah:__Z136RuntimeInvoker_IntPtr_t_RuntimeObject_Int32_t2071877448_Int32_t2071877448_Int32_t2071877448_Int32_t2071877448_MonoIOErrorU26_t1029615899PFvvEPK10MethodInfoPvPS4_
Nha:__ZN9GfxDevice17SetStereoViewportE15StereoscopicEyeRK5RectTIiE
_ea:__ZN17BaseObjectManager13StaticDestroyEPv
k9d:_DBNull_System_IConvertible_ToChar_m3344298044
qdi:_LinkStack_Push_m2660199875
wP:__ZN4FMOD6Reverb13setPropertiesEPK22FMOD_REVERB_PROPERTIES
UTb:__ZN9DepthPass13PrepareSubsetEjRK10RenderNodeifRK17ShaderReplaceData
n2f:_UTF32Encoding_GetPreamble_m767706727
Qti:_X509CertificateCollection_Add_m4008705157
zgc:__Z35SetMeshComponentFromArrayFromScriptR4Mesh30InternalScriptingShaderChannel34InternalScriptingVertexChannelTypei17ScriptingArrayPtri
Ppf:_ReadOnlyCollection_1_System_Collections_IList_Add_m3806843030_gshared
Igf:_Collection_1_IsFixedSize_m1816795498_gshared
jq:__ZN4core20StringStorageDefaultIcE6assignEPKcj
czj:__ZN15dense_hashtableINSt3__24pairIK10KeyWrapperIP12Il2CppObjectEN6il2cpp2gc9CachedCCWEEES5_NS7_5utils11PointerHashIS3_EEN14dense_hash_mapIS5_S9_SD_NS5_14EqualsComparerINS0_8equal_toIS4_EEEENS0_9allocatorISA_EEE9SelectKeyESI_SK_E3endEv
qAd:_MouseButtonEventData_ReleasedThisFrame_m482758300
ZAi:_SceneManager_Internal_SceneLoaded_m1729738062
Jej:__ZN6il2cpp2vm7Runtime33CreateUnhandledExceptionEventArgsEP15Il2CppException
eYd:_ReadOnlyArrayListWrapper_set_Item_m2199017141
b1b:__ZN6Camera6SetFarEf
Lti:_DeriveBytes_DeriveIV_m3343375195
pWc:_UNITY_FT_Init_Class_ft_bitmap_glyph_class
hmd:_RNGCryptoServiceProvider_GetBytes_m167497991
Zra:__ZN6prcoreL12RemapGenericI17TexFormatABGR888817TexFormatARGB8888EEvPKNS_9InnerInfoE
EKa:__ZN11GameManager17MainThreadCleanupEv
BBi:_SetupCoroutine_InvokeMember_m170868586
obd:__Z50Register_UnityEngine_UISystemProfilerApi_EndSamplev
Wfg:_TypeBuilder_get_Assembly_m492491492
Kb:invoke_vffff
_Cc:__ZN10Collider2D12AddToManagerEv
n2c:_UNITY_tt_slot_init
LPb:__ZZ23InitPlayerLoopCallbacksvEN41PostLateUpdateUpdateResolutionRegistrator7ForwardEv
hle:_Array_FindLastIndex_TisRuntimeObject_m986818300_gshared
HIb:__Z25scripting_array_class_get17ScriptingClassPtrj
hyc:__ZL22Transfer_ManagedObjectI9JSONWriteLb1EEvRK29SerializationCommandArgumentsR31RuntimeSerializationCommandInfo
DM:__ZNK10SampleClip22GetTypeVirtualInternalEv
Sia:__ZN9GfxDevice20DestroyRenderSurfaceER12ObjectHandleI17RenderSurface_TagP17RenderSurfaceBaseE
Qfa:__ZN18SpriteAtlasManagerC2Ev
m6b:__ZL24PrepareSpriteRenderNodesILb1EEvR35RenderNodeQueuePrepareThreadContext
CBa:__ZN9GfxDevice22UpdateComputeResourcesEjPK9TextureIDPK16TextureDimensionPKijPKjjPK15ComputeBufferIDS7_PK20ComputeBufferCounterjSC_S2_S5_S9_SF_
NNa:__ZN12_GLOBAL__N_15qAsinEff
Bte:_Dictionary_2_Do_ICollectionCopyTo_TisKeyValuePair_2_t3749587448_m2536766696_gshared
dFa:__ZN12TLSAllocatorI14StackAllocatorE13ThreadCleanupEv
clh:__Z154RuntimeInvoker_RaycastHit2D_t4063908774_Vector2_t2243707579_Vector2_t2243707579_Single_t2076509932_Int32_t2071877448_Single_t2076509932_Single_t2076509932PFvvEPK10MethodInfoPvPS4_
lle:_Array_IndexOf_TisRuntimeObject_m1815604637_gshared
rFj:__ZThn4_N6il2cpp2vm13ComObjectBase16MarshalInterfaceEP13Il2CppIStreamRK10Il2CppGuidPvjS7_j
o8a:__ZN4Mesh27SwizzleVertexColorsIfNeededEb
sLb:__Z27FindActiveTransformWithPathPKc
wxi:_PropertyName_op_Inequality_m2830582941
_Fe:_SecurityParser_OnEndElement_m2909940377
pNa:__ZNK6Camera7GetNearEv
fva:__ZN7ApiGLES11UnmapBufferEjN2gl12BufferTargetE
BFj:__ZN6il2cpp5utilsL24Utf32CharToSurrogatePairEjRA2_Ds
F0a:__Z25GetNextAllowedTextureSizeib13TextureFormat
kLb:__ZN20LocalFileSystemWebGL4CopyER13FileEntryDataS1_
W6e:_List_1_CheckIndex_m4231572822_gshared
r$:__ZN19CloudServiceHandler6RetainEv
Nqd:_StrongName_Equals_m67226644
guc:__Z36Event_CUSTOM_Internal_SetNativeEventPv
QNa:__ZN12BaseRenderer20FlattenToRenderQueueER15RenderNodeQueueRK20DeprecatedSourceData
lVe:_UnmanagedMemoryStream_get_Length_m587008850
yib:__Z34scripting_liveness_calculation_endPv
Yrc:__ZNK19RectangleCellLayout13GetCellCenterEv
bDj:__ZN6il2cpp2os6ThreadC2Ev
Ard:_SecurityFrame_InitFromRuntimeFrame_m45195821
SMf:_X509Chain_IsSignedWith_m292245392
ey:__ZN21AnimationClipPlayable22ProcessAnimationNoClipEPK35AnimationPlayableEvaluationConstantPK32AnimationPlayableEvaluationInputP33AnimationPlayableEvaluationOutput
Lhe:_Array_InternalArray__ICollection_Remove_TisDateTime_t693205669_m1275668216_gshared
_nf:_ReadOnlyCollection_1_System_Collections_Generic_ICollectionU3CTU3E_Remove_m3751131234_gshared
Jzc:__Z18Transfer_BlittableI8JSONReadLb0E8Vector3fEvRK29SerializationCommandArgumentsR31RuntimeSerializationCommandInfo
tt:__ZN13AnimationClip12Vector3Curve8TransferI14SafeBinaryReadEEvRT_
W9h:_ChannelServices__cctor_m3534779830
orj:__ZN6il2cpp2vm6Thread6DetachEP12Il2CppThread
Lzi:_RectOffset_Finalize_m816260249
uDi:_Transform_set_localRotation_m3053695533
n_c:_Render_Single_Pass
s4d:_Convert_ToInt16_m416789348
o$f:_EncoderExceptionFallback_Equals_m762170768
VPi:_EqualityComparer_1__cctor_m2666196678_gshared
rRc:__GLOBAL__sub_I_runtime_dynamics_2_cpp
wxh:_Enumerator_get_CurrentValue_m3147984131_AdjustorThunk
QG:__ZN7mecanim8skeleton30SkeletonBuildReverseIndexArrayEPiPKiPKNS0_8SkeletonES6_
lsc:__Z19GetGUIBlendMaterialv
ylh:__Z69RuntimeInvoker_Boolean_t3825574718_TextGenerationSettings_t2543476768PFvvEPK10MethodInfoPvPS4_
wBj:__ZN6il2cpp2os10ThreadImpl5SleepEjb
njf:_Collection_1_InsertItem_m1073626529_gshared
MH:__ZN18AnimatorController23VirtualRedirectTransferER24GenerateTypeTreeTransfer
XGf:_ListDictionary_FindEntry_m432748847
JZj:_glBindSampler__wrapper
uKa:__ZNSt3__26vectorIN20ArchiveStorageHeader12StorageBlockE13stl_allocatorIS2_L18MemLabelIdentifier55ELi16EEE8__appendEj
Kf:_emscripten_set_mouseup_callback
jue:_BaseInvokableCall_ThrowOnInvalidArg_TisColor_t2020392075_m3638385415_gshared
_2b:__ZNK18ScreenManagerWebGL8GetWidthEv
iUi:_AudioExtensionManager_GetListenerSpatializerExtensionEditorType_m165088149
qJd:_GridLayoutGroup_set_startAxis_m1635162426
AM:__ZN10SampleClipD2Ev
Bci:_SynchronizationAttribute_EnterContext_m2984912761
Vfe:_CultureInfo_construct_internal_locale_from_name_m971766383
Rhb:__Z13GetGISettingsv
Rne:_Array_InternalArray__ICollection_Add_TisUIVertex_t1204258818_m3869382594_gshared
b$:__ZN11UnityEngine15CloudWebService20WebRequestRestClientC2Ev
J1c:_cff_cmap_unicode_init
nde:_Enum_ToObject_m2460371738
Eze:_PrimalityTests_Test_m1088386156
IFi:_Vector4_SqrMagnitude_m1060560279
FQj:_readlink
xmj:__ZN15dense_hashtableINSt3__24pairIK10KeyWrapperINS1_IPK9EventInfoP11Il2CppClassEEEjEES9_17ReflectionMapHashIS8_EN14dense_hash_mapIS9_jSD_NS9_14EqualsComparerINS0_8equal_toIS8_EEEENS0_9allocatorISB_EEE9SelectKeyESI_SK_E12resize_deltaEjj
ese:_Array_Resize_TisVector3_t2243707580_m893658391_gshared
AYh:_InternalEnumerator_1_System_Collections_IEnumerator_get_Current_m4259662004_AdjustorThunk
Dve:_Array_InternalArray__get_Item_TisKeyframe_t1449471340_m1003508933_gshared
DLj:__ZN6il2cpp8metadata14Il2CppTypeHash4HashEPK10Il2CppType
RMj:__ZN6il2cpp2os13SemaphoreImplC2Eii
Odh:__Z50RuntimeInvoker_Double_t4078015681_Int64_t909078037PFvvEPK10MethodInfoPvPS4_
oEe:_StrongName_get_PublicKeyToken_m1968460885
Tab:__ZNK6Sprite9GetBoundsE8Vector2fbb
NQa:__ZNK19RenderEventsContext21CleanupCommandBuffersEv
HI:__ZN7mecanim12statemachine13StateConstant8TransferI14SafeBinaryReadEEvRT_
Dma:__ZN11ContextGLES6CreateEi
UOe:_BinaryReader_Dispose_m4249456877
x3d:_Double_ToString_m1085043609
PHb:__Z19TransferField_ArrayI18StreamedBinaryReadILb0EE27Converter_SimpleNativeClassI17AnimationCurveTplIfEEEvRK23StaticTransferFieldInfoR31RuntimeSerializationCommandInfoRT0_
byf:_CipherSuite_createEncryptionCipher_m1926075645
owi:_Plane__ctor_m730644932
IEa:__ZN14StackAllocator16FrameMaintenanceEb
LId:_Graphic_Raycast_m3582517890
EPc:__ZZN10Collider2D15InitializeClassEvEN33FunctorImpl_99kDidRemoveComponent4CallEPviR11MessageData
Aaa:__ZNK10GameObject20QueryComponentByTypeEPKN5Unity4TypeE
KLi:_GUISkin_MakeCurrent_m1547433985
u0e:_Enumerator_MoveNext_m1367380970_AdjustorThunk
njg:_OpCode_GetHashCode_m2974727122
d0d:_Enumerator_Reset_m466659019
cyf:_CipherSuite_createDecryptionCipher_m1118350455
vei:_PatternCompiler_EmitReference_m1381860071
dce:_Double_System_IConvertible_ToInt16_m4200640326
llh:__Z84RuntimeInvoker_RuntimeObject_RayU26_t3651946800_Single_t2076509932_Int32_t2071877448PFvvEPK10MethodInfoPvPS4_
Q$a:__ZN11TextureData5ResetEv
smc:__Z53Register_UnityEngine_GameObject_get_activeInHierarchyv
rga:__ZN15dense_hashtableINSt3__24pairIKN4core12basic_stringIcNS2_20StringStorageDefaultIcEEEE13dynamic_arrayI4PPtrI6SpriteELj4EEEES6_20StringHash32FunctionIS6_EN14dense_hash_mapIS6_SC_SF_NS0_8equal_toIS6_EE13stl_allocatorISD_L18MemLabelIdentifier81ELi16EEE9SelectKeyESI_SL_EC2ERKSO_j
M5:__ZL30InitializeCoreScriptingClassesv
yjf:_Collection_1_CheckWritable_m3938993573_gshared
Gg:_glBlitFramebuffer
Mze:_BigInteger_GeneratePseudoPrime_m2606361440
jxb:__Z35Transfer_Blittable_SingleValueFieldI14SafeBinaryReadhEvRT_R17GeneralMonoObjectRK23StaticTransferFieldInfo
ffc:__ZN12CachedWriter15CompleteWritingEv
xTf:_RemotingServices_GetRealProxy_m620317996
gUb:__ZN13dynamic_arrayI11CulledLightLj4EE6insertEPS0_PKS0_S4_
U_a:__ZNK12CubemapArray22GetTypeVirtualInternalEv
z$i:_Predicate_1_Invoke_m2060780095_gshared
lbj:__ZN6il2cpp2vm13MetadataCache23GetInterfaceOffsetIndexEi
Qn:FUNCTION_TABLE_vif
Rn:FUNCTION_TABLE_vid
Sn:FUNCTION_TABLE_vii
Jib:__Z40scripting_liveness_calculation_from_root18ScriptingObjectPtrPv
BXa:__ZN7Texture23VirtualRedirectTransferER24GenerateTypeTreeTransfer
XTc:_UNITY_FT_Set_Transform
qyj:__ZN6il2cpp8metadata15GenericMetadata20RegisterGenericClassEP18Il2CppGenericClass
whh:__Z101RuntimeInvoker_OpFlags_t378191910_SByte_t454417549_SByte_t454417549_SByte_t454417549_SByte_t454417549PFvvEPK10MethodInfoPvPS4_
oZj:_glDeleteFramebuffers__wrapper
iKd:_Image_get_overrideSprite_m706080347
Ctf:_BigInteger_ModInverse_m1881894572
vej:__ZN6il2cpp2vm7Runtime17GetDelegateInvokeEP11Il2CppClass
dcc:__ZZN12MeshRenderer15InitializeClassEvEN29FunctorImpl_134kDidDeleteMesh4CallEPviR11MessageData
Y6b:__Z22GenerateBoxTilingShapeP22GenerateTilingAreaInfo
W1a:__ZN28EnlightenRendererInformation8TransferI14SafeBinaryReadEEvRT_
agh:__Z88RuntimeInvoker_RuntimeObject_RuntimeObject_Int32_t2071877448_RuntimeObject_RuntimeObjectPFvvEPK10MethodInfoPvPS4_
wxg:__ZL69DefaultDependencyAttribute_t3858269114_CustomAttributesCacheGeneratorP21CustomAttributesCache
JJa:__ZNK15Lz4Decompressor16DecompressMemoryEPKvPjPvS2_
IYc:_UNITY_tt_face_build_cmaps
COc:__ZN11Rigidbody2D8TransferI24GenerateTypeTreeTransferEEvRT_
oZa:__Z35UnityPropertySheet_MakeSortedColorsRKNSt3__23mapIN9ShaderLab16FastPropertyNameE10ColorRGBAfNS_4lessIS2_EENS_9allocatorINS_4pairIKS2_S3_EEEEEER10vector_mapIS2_S3_S5_NS6_INS7_IS2_S3_EEEEE
K9d:_Decimal_System_IConvertible_ToType_m3828527724_AdjustorThunk
VXc:_UNITY_tt_face_load_os2
rvf:_HMAC_get_Key_m2528863640
kkf:_Collection_1_IsSynchronized_m1366278230_gshared
Bwb:__Z29Transfer_Blittable_ArrayFieldI14SafeBinaryRead8Vector4fEvRT_R9ArrayInfoRK23StaticTransferFieldInfo
dge:_Array_get_swapper_TisInt32_t2071877448_m2837069166_gshared
SOh:_Selectable_Navigate_m915280351
Fai:_ConfigHandler_CheckPath_m2296459741
Kzd:_PointerEventData_IsScrolling_m1971908975
CPb:__ZZ23InitPlayerLoopCallbacksvEN51PostLateUpdateUpdateCustomRenderTexturesRegistrator7ForwardEv
W9d:_Decimal_System_IConvertible_ToInt16_m3159038792
Cy:__ZN7mecanim9animation12EvaluateClipEPKNS0_4ClipEPKNS0_9ClipInputEPNS0_10ClipMemoryEPNS0_10ClipOutputE
Peb:__ZNSt3__26vectorIN15ResourceManager10DependencyE13stl_allocatorIS2_L18MemLabelIdentifier52ELi16EEEC2INS_11__wrap_iterIPS2_EEEET_SB_RKS5_PNS_9enable_ifIXaasr21__is_forward_iteratorISB_EE5valuesr16is_constructibleIS2_NS_15iterator_traitsISB_E9referenceEEE5valueEvE4typeE
Pmg:_MonoMethodInfo_GetReturnType_m2864247130
T$b:__ZN13RenderManager29SetCurrentCameraAndStackStateEP6CameraP25CameraStackRenderingState
mDi:_Transform_INTERNAL_get_rotation_m1873681960
DMa:__ZNSt3__26__treeINS_12__value_typeIjN4core12basic_stringIcNS2_20StringStorageDefaultIcEEEEEENS_19__map_value_compareIjS7_NS_4lessIjEELb1EEE13stl_allocatorIS7_L18MemLabelIdentifier7ELi16EEE7destroyEPNS_11__tree_nodeIS7_PvEE
arj:__ZN15dense_hashtableINSt3__24pairIK10KeyWrapperINS1_IP11Il2CppClassjEEES4_EES6_N6il2cpp8metadata14ArrayClassHashEN14dense_hash_mapIS6_S4_SB_NS6_14EqualsComparerINSA_17ArrayClassCompareEEENS0_9allocatorIS8_EEE9SelectKeyESF_SH_E12resize_deltaEjj
Vh:_JS_WebRequest_Release
fQe:_DirectoryNotFoundException__ctor_m2242202556
qZ:__ZN11UnityEngine15CloudWebService14DataErrorEventD0Ev
vuj:__ZN6il2cpp6icalls8mscorlib6System4Type20internal_from_handleEi
Wud:_String_CreateString_m2448464375
xOf:_X509SubjectKeyIdentifierExtension__ctor_m2959112706
xxh:_Enumerator_Reset_m1147555085_AdjustorThunk
Nkg:_FieldInfo_get_IsNotSerialized_m2322769148
myj:__ZN6il2cpp8metadata15GenericMetadata7InflateEPK19Il2CppGenericMethodPK20Il2CppGenericContext
r1a:__ZN19ShaderPropertySheet16SetArrayPropertyEN9ShaderLab16FastPropertyNameENS_12PropertyTypeEPKvj
Img:_MonoGenericCMethod_get_ReflectedType_m2689239043
lkf:_Collection_1_IsFixedSize_m499196375_gshared
AEd:_ColorTween_set_startColor_m3546206870_AdjustorThunk
u6c:__ZN2UI11CanvasGroup23VirtualRedirectTransferER19StreamedBinaryWriteILb0EE
H$h:_InternalEnumerator_1_get_Current_m4083613828_gshared
ygj:__ZN6il2cpp2os4File11GetStdErrorEv
DZi:_TextGenerator_INTERNAL_CALL_Populate_Internal_cpp_m106350432
Ftc:__ZN8GUIState8EndOnGUIEv
X1f:_UnicodeEncoding_GetString_m542738941
u2c:_UNITY_TT_Get_VMetrics
GPe:_Path_InsecureGetFullPath_m2635272425
r7d:_DateTime_System_IConvertible_ToUInt32_m1363211018
Zxi:_Quaternion_ToString_m1042358501
Tie:_SetPropertyUtility_SetStruct_TisSingle_t2076509932_m3849235084_gshared
wpa:__ZN7Texture21GetMasterTextureLimitEv
J1b:__Z12CanAddScriptR10GameObject17ScriptingClassPtrPS1_S2_
wpj:__ZN6il2cpp2vm10Reflection12HasAttributeEP12Il2CppObjectP11Il2CppClass
cpd:_X509Certificate_GetExpirationDateString_m2351894475
I4:__ZN9ShaderLabL25StaticInitializeShaderLabEPv
U:Math_max
hfj:_il2cpp_class_get_methods
JPe:_Path_CanonicalizePath_m383914732
Ewh:_Enumerator_System_Collections_IEnumerator_get_Current_m1631145297_gshared
pzb:__Z18Transfer_BlittableI24GenerateTypeTreeTransferLb0EN4math12int2_storageEEvRK29SerializationCommandArgumentsR31RuntimeSerializationCommandInfo
iXd:_ArrayList_Synchronized_m2395071980
hDj:__ZN6il2cpp2os6Thread16GetCurrentThreadEv
Ddc:__ZN10GameObject13ComponentPair15SetComponentPtrEPN5Unity9ComponentE
fVe:_UnexceptionalStreamWriter_Write_m3206913035
G7b:__Z13RegisterClassI10MeshFilterEvv
LMa:__ZN10TagManager8TransferI19StreamedBinaryWriteILb0EEEEvRT_
$hb:__ZN11PreloadData23VirtualRedirectTransferER18StreamedBinaryReadILb0EE
QD:__Z17dynamic_pptr_castIP10MonoScript6ObjectET_RK4PPtrIT0_E
cFj:__ZN6il2cpp6icalls8mscorlib6System10ReflectionL40il2cpp_class_get_generic_type_definitionEP11Il2CppClass
W_f:_DESTransform_ProcessBlock_m2826669227
vKe:_Int16_CompareTo_m3493496879
i5a:__ZN6Sprite17MainThreadCleanupEv
eS:__ZN10AudioMixer14UpdateMuteSoloEv
PLa:__ZN9Transform35SetLocalPositionWithoutNotificationERKN4math7_float3Ey
pMh:_MaskableGraphic_UnityEngine_UI_IClippable_get_gameObject_m954171032
Vi:_JS_Eval_ClearTimeout
joa:__ZN7ApiGLES16SetPatchVerticesEi
DSe:_MonoIOStat_t1621921065_marshal_pinvoke
dJa:__ZN10MemoryFileC2E18MemLabelIdentifierP14MemoryFileData14FilePermission
uUf:_TrackingServices_NotifyUnmarshaledObject_m1794048369
l4i:__ZN6il2cpp2vm5Class20FromGenericParameterEPK22Il2CppGenericParameter
Q$:__ZN19CloudServiceHandler11FlushEventsEv
Bea:__ZN15GlobalCallbacksC2Ev
Gqe:_Array_InternalArray__set_Item_TisLabelFixup_t4090909514_m565370771_gshared
CIj:_GC_print_static_roots
LOc:__ZN7b2World10CreateBodyEPK9b2BodyDef
wVc:_UNITY_FT_New_Memory_Face
oTc:__ZN20TextRenderingPrivate21TextMeshGeneratorImpl5FlushEv
Cqd:__Z15CastclassSealedP12Il2CppObjectP11Il2CppClass
B0b:__ZN16ReflectionProbes40UpdateRealtimeReflectionProbesTimeslicedEv
cfb:__ZNK30RuntimeInitializeOnLoadManager22GetTypeVirtualInternalEv
T8i:__ZN15dense_hashtableINSt3__24pairIK10KeyWrapperIN6il2cpp5utils13dynamic_arrayIPK10Il2CppTypeLj4EEEEPFvvEEESA_NS3_8metadata19Il2CppSignatureHashEN14dense_hash_mapISA_SD_SG_NSA_14EqualsComparerINSF_22Il2CppSignatureCompareEEENS0_9allocatorISE_EEE9SelectKeyESK_SM_E12resize_deltaEjj
lbc:__ZN16ReflectionProbes15InitializeClassEv
RKj:__ZN6il2cpp5utils5MatchENSt3__212basic_stringIcNS1_11char_traitsIcEENS1_9allocatorIcEEEEjRKS7_j
JWc:_UNITY_FT_Destroy_Class_psnames_module_class
Zdi:_MRUList_Evict_m2430323183
Cof:_ReadOnlyCollection_1_System_Collections_Generic_ICollectionU3CTU3E_Remove_m1060547576_gshared
Akh:__Z68RuntimeInvoker_Boolean_t3825574718_Rect_t3681755626_SByte_t454417549PFvvEPK10MethodInfoPvPS4_
eve:_Array_InternalArray__get_Item_TisRuntimeObject_m371871810_gshared
WD:__ZN8Animator13BatchedFKPassERK13dynamic_arrayIP14PlayableOutputLj4EE
kDf:_RecordProtocol_ProcessChangeCipherSpec_m3233959862
Zse:_Array_Sort_TisVector4_t2243707581_m474199742_gshared
pba:__ZN13RuntimeStaticINSt3__23mapIN4core12basic_stringIcNS2_20StringStorageDefaultIcEEEES6_NS0_4lessIS6_EE13stl_allocatorINS0_4pairIKS6_S6_EEL18MemLabelIdentifier13ELi16EEEELb0EE13StaticDestroyEPv
s2i:_Rigidbody2D_AddForce_m1687473487
PUe:_TextWriter_Write_m576684782
Tj:_glIsVertexArray
rJa:__ZN25SingleBlockMemoryFileDataC2E18MemLabelIdentifierPvjb
fa:invoke_fff
qTh:_Text_get_fontSize_m3105730761
uWj:b14
BCf:_TlsServerHello_Update_m1740270635
E5c:__ZN2UI6Canvas17MainThreadCleanupEv
Hra:__ZN6prcoreL12RemapGenericI17TexFormatARGB155517TexFormatRGBA8888EEvPKNS_9InnerInfoE
YPh:_ScrollRect_Rebuild_m3423824761
H9e:_List_1_Find_m3862454845_gshared
Odi:_MatchCollection_get_Item_m2609281578
Fza:__ZN7ApiGLES13CreateProgramEv
qSa:__ZN11HaloManager7AddHaloEv
R2f:_UTF8Encoding__ctor_m100325490
Lpa:__ZN4crnd12crn_unpackerD2Ev
VSh:_StencilMaterial_ClearAll_m1372779118
dk:_emscripten_glTexImage2D
ZSf:_ObjRefSurrogate_SetObjectData_m1873902916
f2c:_tt_driver_class_pic_init
B5:__ZN18ScriptingArguments9AddStringEPKc
QIj:_setup_header
gTj:runPostSets
Pqa:__ZL23stbir__resize_arbitraryPvPKviiiS_iiiffffPfiij14stbir_datatype12stbir_filterS4_10stbir_edgeS5_16stbir_colorspace
z5e:_List_1_System_Collections_IList_Insert_m848656350_gshared
Jzb:__Z18Transfer_BlittableI24GenerateTypeTreeTransferLb1E8Vector4fEvRK29SerializationCommandArgumentsR31RuntimeSerializationCommandInfo
aMe:_Int16_ToString_m3971652088_AdjustorThunk
ok:_pthread_detach
Ubj:__ZN6il2cpp2vm19SocketPollingThread7RunLoopEv
rSf:_MethodDictionary_AllocInternalProperties_m3261295876
_dc:__ZN15DirectorManager20ScheduleGraphDestroyERK14HPlayableGraph
BIb:__ZNSt3__213__stable_sortIRN10vector_mapI17ScriptingClassPtrPKN5Unity4TypeENS_4lessIS2_EENS_9allocatorINS_4pairIS2_S6_EEEEE13value_compareENS_11__wrap_iterIPSB_EEEEvT0_SJ_T_NS_15iterator_traitsISJ_E15difference_typeEPNSM_10value_typeEi
omb:__ZN9ShaderLab25SerializedTextureProperty8TransferI24GenerateTypeTreeTransferEEvRT_
Vsf:_Comparison_1_Invoke_m2645957248_gshared
$1j:_emscripten_glIsShader__wrapper
onj:__ZN6il2cpp2gc19AppendOnlyGCHashMapINSt3__24pairIPK14Il2CppAssemblyP11Il2CppClassEEP24Il2CppReflectionAssembly17ReflectionMapHashIS9_ENS2_8equal_toIS9_EEEC2Ev
XXf:_DelegatePInvokeWrapper_CallbackHandler_t362827733
HAc:__Z18Transfer_BlittableI8JSONReadLb1EyEvRK29SerializationCommandArgumentsR31RuntimeSerializationCommandInfo
Lk:_emscripten_glMatrixMode
ow:__ZN8Animator23VirtualRedirectTransferER18StreamedBinaryReadILb0EE
TQe:_NotSupportedException__ctor_m836173213
JSf:_MethodReturnDictionary__ctor_m756139344
MY:__ZN11UnityEngine15CloudWebService14DataDispatcher16PrepareDataBlockERNS0_16SessionContainerE
gAa:__ZN18GfxFramebufferGLES5ClearE13GfxClearFlagsRK10ColorRGBAffib
feh:__Z52RuntimeInvoker_Single_t2076509932_Double_t4078015681PFvvEPK10MethodInfoPvPS4_
eHb:__ZL26Transfer_SimpleNativeClassI18StreamedBinaryReadILb0EE10RectOffsetLb0EEvRK29SerializationCommandArgumentsR31RuntimeSerializationCommandInfo
GWc:_UNITY_ft_destroy_default_module_classes
b3e:_List_1_CheckMatch_m1772343151_gshared
DTb:__ZL12DepthPassJobPN21GfxDeviceAsyncCommand10ArgScratchEPKNS_3ArgE
Pkb:__ZNSt3__26vectorIN9ShaderLab20SerializedSubProgram16TextureParameterENS_9allocatorIS3_EEE6assignINS_11__wrap_iterIPS3_EEEENS_9enable_ifIXaasr21__is_forward_iteratorIT_EE5valuesr16is_constructibleIS3_NS_15iterator_traitsISC_E9referenceEEE5valueEvE4typeESC_SC_
cwc:__ZN5Unity9rapidjson6WriterI16TempBufferWriterNS0_4UTF8IcEES4_13JSONAllocatorE11WriteDoubleEd
rOe:_IntPtr_Equals_m1214967011_AdjustorThunk
z8e:_List_1_Add_m3591975577_gshared
nva:__ZN14GfxDeviceStats16CopyAllDrawStatsERKS_
g8b:__Z13RegisterClassI19LowerResBlitTextureEvv
Q3g:__ZL53player_t1147742565_CustomAttributesCacheGenerator_do1P21CustomAttributesCache
Pm:FUNCTION_TABLE_iiiiiiiiiiii
dMi:_GUIUtility_Internal_GetPixelsPerPoint_m1075452981
BRa:__ZN16GraphicsSettingsD0Ev
g$j:_pthread_mutex_init__wrapper
n:cttz_i8
oWc:_UNITY_FT_GlyphLoader_Add
zni:_Display_FireDisplaysUpdated_m2197288612
d3d:_DateTimeFormatInfo_get_FullDateTimePattern_m2607507656
$Cf:_HttpsClientStream_RaiseServerCertificateValidation_m3356770426
Szi:_RectTransform_INTERNAL_set_anchorMin_m3893342226
pte:_Array_swap_TisUIVertex_t1204258818_TisUIVertex_t1204258818_m1163375424_gshared
Il:_emscripten_glViewport
L6b:__Z21GenerateTilingAreaJobP22GenerateTilingAreaInfoj
eFj:__ZN6il2cpp6icalls8mscorlib6System15MonoCustomAttrs17IsDefinedInternalEP12Il2CppObjectP20Il2CppReflectionType
mUa:__ZN4Mesh21UnswizzleVertexColorsEb
t8d:_DateTime_ToString_m2276663647_AdjustorThunk
c2c:_cff_parse_font_bbox
wdb:__ZN14PlayerSettings23VirtualRedirectTransferER18StreamedBinaryReadILb0EE
gge:_Array_get_swapper_TisCustomAttributeTypedArgument_t1498197914_m2780757375_gshared
VNj:__ZN6il2cpp2os5Event5ResetEv
Zlf:_ReadOnlyCollection_1_System_Collections_IList_Insert_m1130110335_gshared
EOi:_AesManaged__ctor_m2322442838
_xj:__ZN6il2cpp8metadata15GenericMetadata17InflateParametersEPK13ParameterInfohPK20Il2CppGenericContextb
GNe:_Int64_System_IConvertible_ToUInt32_m850395426_AdjustorThunk
zPa:__ZN6Camera13AwakeFromLoadE17AwakeFromLoadMode
ekd:_HMACSHA512__ctor_m2390736870
hC:__ZNK17AnimationPlayable27GetNextCompatibleDescendantEi
Ggg:_TypeBuilder_GetInterfaces_m1818658502
ZLb:__Z25SetNeedToPerformRenderingb
bng:_MonoMethod_GetPseudoCustomAttributes_m466965107
XKa:__ZN10GameObjectD2Ev
STb:__ZN14qsort_internal30FindAndMovePivotToLastPositionIP15RODataDepthPassi17ROSorterDepthPassEEvT_S4_T0_T1_
lyh:_Enumerator_System_Collections_IDictionaryEnumerator_get_Value_m3005608231_gshared
GLh:_MaskUtilities_NotifyStencilStateChanged_m1527407683
I$b:__ZN12CullingGroup10SendEventsEPK17CullingGroupEventj
mBe:_DSAManaged_GenerateKeyPair_m2711647034
Q2a:__ZThn32_NK8Renderer8GetLayerEv
tne:_Array_InternalArray__ICollection_Add_TisResourceCacheItem_t333236149_m1151081240_gshared
HVf:_SoapServices_GetXmlTypeForInteropType_m3821579913
_$j:_emscripten_glTexParameterfv__wrapper
Ttb:__Z18Transfer_BlittableI14SafeBinaryReadLb1E9BoundsIntEvRK29SerializationCommandArgumentsR31RuntimeSerializationCommandInfo
_fj:_il2cpp_method_get_param_count
Ohc:__ZN10systeminfo19ISOToSystemLanguageERN4core12basic_stringIcNS0_20StringStorageDefaultIcEEEE
hmj:__ZNK15dense_hashtableINSt3__24pairIK10KeyWrapperINS1_IPK12PropertyInfoP11Il2CppClassEEEjEES9_17ReflectionMapHashIS8_EN14dense_hash_mapIS9_jSD_NS9_14EqualsComparerINS0_8equal_toIS8_EEEENS0_9allocatorISB_EEE9SelectKeyESI_SK_E3endEv
EOc:__ZN11Rigidbody2D8TransferI19StreamedBinaryWriteILb0EEEEvRT_
D_c:_ps_dimension_done
eCd:_LayoutRebuilder_MarkLayoutForRebuild_m640589351
s5c:__Z46Register_UnityEngine_TextGenerator_Dispose_cppv
Mzd:_PointerEventData_get_pressEventCamera_m724559964
Upd:_String_IndexOfUnchecked_m3356721554
G1a:__ZN16LightmapSettings8TransferI14SafeBinaryReadEEvRT_
bha:__ZN17BufferManagerGLES13ReleaseBufferEP14DataBufferGLES
EAc:__Z18Transfer_BlittableI8JSONReadLb1EjEvRK29SerializationCommandArgumentsR31RuntimeSerializationCommandInfo
Fti:_PKCS12_Decrypt_m1557069392
ITh:_VertexHelper_AddUIVertexQuad_m280792808
$Jf:_WebHeaderCollection_ToString_m1246460752
mZh:_InternalEnumerator_1_System_Collections_IEnumerator_get_Current_m2842514953_AdjustorThunk
ep:stackSave
eed:__ZN5Unity9rapidjson15GenericDocumentINS0_4UTF8IcEE13JSONAllocatorNS0_12CrtAllocatorEE6StringEPKcjb
W_c:_ps_dimension_end
ooc:__Z41Register_UnityEngine_Mesh_Internal_Createv
sab:__ZN14SpriteRenderer23VirtualRedirectTransferER24GenerateTypeTreeTransfer
Yxj:__ZNK15dense_hashtableI10KeyWrapperIP18Il2CppGenericClassES3_N6il2cpp8metadata22Il2CppGenericClassHashEN14dense_hash_setIS3_S6_NS3_14EqualsComparerINS5_25Il2CppGenericClassCompareEEENSt3__29allocatorIS3_EEE8IdentityESA_SD_E12test_deletedERK30dense_hashtable_const_iteratorIS3_S3_S6_SF_SA_SD_E
eNc:__ZNSt3__27__sort3IRN18Overlap2DQueryBase29ColliderHitsByDepthComparitorEPP10Collider2DEEjT0_S7_S7_T_
n5i:__ZN6il2cpp2vm5Class14GetNestedTypesEP11Il2CppClassPPv
ukd:_MACTripleDES_Initialize_m1318099802
dwf:_MD5SHA1_VerifySignature_m507888141
_Td:_Byte_System_IConvertible_ToChar_m4188836679
XLe:_NumberFormatter_InitDecHexDigits_m2036076025
Qyh:_Enumerator_get_CurrentKey_m3839846791_AdjustorThunk
i1b:__ZN6Camera9SetAspectEf
wa:invoke_viiffiii
GZg:__ZL79TouchInputModule_t2561058385_CustomAttributesCacheGenerator_m_ForceModuleActiveP21CustomAttributesCache
p1j:_emscripten_glBindVertexArray__wrapper
QFh:_Dictionary_2_InitArrays_m435313205_gshared
XLa:__ZN9Transform37InitializeTransformHierarchyRecursiveER18TransformHierarchyRii
w9b:__Z34DefaultPrepareDispatchBoundsUpdateR13RendererScene18MemLabelIdentifier
XHd:_Graphic_get_useLegacyMeshGeneration_m1366444625
Zza:__ZN26SinglePassStereoSupportExt23SetupStereoMatrixParamsE21MonoOrStereoscopicEye24BuiltinShaderMatrixParamRK10Matrix4x4f
D$g:__ZL65InputField_t1631627530_CustomAttributesCacheGenerator_m_InputTypeP21CustomAttributesCache
Bze:_ModulusRing_Pow_m1137250399
PW:__Z46AudioListener_CUSTOM_GetNumExtensionPropertiesP12Il2CppObject
eMf:_X509Chain_Build_m2341271288
rTa:__ZN17MeshRenderingData4InitEP4MeshS1_iP15SharedGfxBufferS3_
F_d:_Hashtable__cctor_m2952659675
fOf:_X509ChainStatus__ctor_m3628359961_AdjustorThunk
bxb:__ZN15SerializeTraitsI13dynamic_arrayIN4math12int3_storageELj4EEE19ResizeSTLStyleArrayERS3_i
jqd:_Evidence_get_HostEvidenceList_m2095478124
Wqc:__Z57Register_UnityEngine_Transform_INTERNAL_set_localPositionv
izf:_Context_Clear_m4000337070
Yka:__ZN13GfxDeviceGLES26SetRandomWriteTargetBufferEi15ComputeBufferID
RQf:_IntervalCollection_Normalize_m538796191
pPb:__ZZ23InitPlayerLoopCallbacksvEN49EarlyUpdateResetFrameStatsAfterPresentRegistrator7ForwardEv
d1d:_Console_SetEncodings_m342145566
OHd:_FontUpdateTracker_UntrackText_m3827316510
EEi:_Vector2_get_sqrMagnitude_m593717298_AdjustorThunk
sve:_Array_InternalArray__get_Item_TisSingle_t2076509932_m1495809753_gshared
hZi:_Font_get_fontSize_m3125470578
yhc:__ZNK11ICallString6ToUTF8Ev
$gi:_CaptureAssertion_get_Alternate_m2729005740
VGj:_GC_number_stack_black_listed
TTb:__ZNSt3__211__sift_downIR17ROSorterDepthPassP15RODataDepthPassEEvT0_S5_T_NS_15iterator_traitsIS5_E15difference_typeES5_
udg:_Default_SelectMethod_m3081239996
CYa:__ZN18UnityPropertySheet11UnityTexEnvC2Ev
oE:__ZN8Animator17ApplyOnAnimatorIKEiRNS_11AnimatorJobE
$9:__ZN12FileAccessor4ReadEyyPvPy
KXa:__ZN13dynamic_arrayI16ShaderKeywordSetLj4EE6insertEPS0_PKS0_S4_
sSf:_MethodDictionary_IsOverridenKey_m3922224650
S$d:_SyncHashtable_Contains_m3042906549
pbf:_List_1_System_Collections_IList_set_Item_m4016273526_gshared
wOf:_X509KeyUsageExtension_CopyFrom_m931530012
K0b:__ZN13RenderTexture9SetHeightEi
Px:__ZN7mecanim9animation17ClearMotionOutputEPNS0_18AnimationNodeStateE
uLh:_LayoutUtility_U3CGetMinHeightU3Em__4_m1769295917
PFf:_SslStreamBase_Read_m1036897444
uNh:_RectMask2D_PerformClipping_m1232012832
ktj:__ZN6il2cpp6icalls8mscorlib6System2IO6MonoIO17GetFileAttributesEP12Il2CppStringPi
Ezh:_Transform_1_Invoke_m4020530914_gshared
kZc:_tt_cmap8_char_index
$5:__Z24scripting_class_get_name17ScriptingClassPtr
Jba:__ZN13RuntimeStaticI15GUIEventManagerLb0EE13StaticDestroyEPv
rDj:__ZN6il2cpp2os6Thread15CurrentThreadIdEv
Kvb:__Z29Transfer_Blittable_ArrayFieldI14SafeBinaryReadjEvRT_R9ArrayInfoRK23StaticTransferFieldInfo
iJc:__ZN16CircleCollider2D13PrepareShapesER13dynamic_arrayIP7b2ShapeLj4EERK10Matrix4x4f
he:_emscripten_set_keydown_callback
o$d:_Enumerator_get_Value_m3684748062
MMa:__ZN19StreamedBinaryWriteILb0EE21TransferSTLStyleArrayINSt3__26vectorI17SortingLayerEntryNS2_9allocatorIS4_EEEEEEvRT_17TransferMetaFlags
b9f:_UInt32_Parse_m3371984903
haa:__ZN12FileAccessorC2Ev
Rei:_PatternLinkStack_GetCurrent_m2994645935
$Pa:__ZN6Camera8TransferI19StreamedBinaryWriteILb0EEEEvRT_
sej:__ZN6il2cpp2vm7Runtime12GetConfigDirEv
uSf:_MethodDictionary_set_Item_m3475146889
YTh:_Toggle_PlayEffect_m3950629415
kle:_Array_IndexOf_TisRuntimeObject_m214763038_gshared
lKb:__Z39WriteQueueForTransferSignatureIntoCacheRK31TransferFunctionScriptingTraitsRK24TransferRequestSignature17ScriptingClassPtrR23CachedSerializationDataRb
Zgb:__ZN13RenderManager18UpdateAllRenderersEv
wJ:__ZN18AnimatorController19TransferRuntimeDataI18StreamedBinaryReadILb0EEEEvRT_
csi:_Mesh_Clear_m239607636
Bbd:__ZN22BaseUnityConnectClient30OnEnteringStatePausedOrStoppedEv
sHc:__ZN10ClipperLib7Clipper18SwapPositionsInAELEPNS_5TEdgeES2_
Slj:__ZN15dense_hashtableINSt3__24pairIK10KeyWrapperINS1_IPK12PropertyInfoP11Il2CppClassEEEjEES9_17ReflectionMapHashIS8_EN14dense_hash_mapIS9_jSD_NS9_14EqualsComparerINS0_8equal_toIS8_EEEENS0_9allocatorISB_EEE9SelectKeyESI_SK_E12resize_deltaEjj
ay:__ZN7mecanim5human12HumanPoseAddERNS0_9HumanPoseERKS1_S4_
dif:_Collection_1_IsFixedSize_m218241296_gshared
BLa:__Z24MergeTransformComponentsR9TransformS0_b
xUi:_DelegatePInvokeWrapper_AudioConfigurationChangeHandler_t3743753033
BSe:_MonoIO_get_PathSeparator_m2635828107
KXe:_MonoType_get_Name_m865859211
ufe:_CultureInfo__cctor_m2290268677
Ftd:_String_Trim_m3982520224
UUf:_RemotingConfiguration__cctor_m2129988840
ugf:_Collection_1_Insert_m44548038_gshared
gFj:__ZN6il2cpp2vm13ComObjectBase19GetRuntimeClassNameEPP15Il2CppHString__
Rj:_emscripten_glVertexAttribPointer
oTa:__ZNK20IntermediateRenderer12GetSceneMaskEv
_fb:__ZN14PreloadManager26UpdatePreloadingSingleStepENS_21UpdatePreloadingFlagsEi
Qnd:_SHA512Managed_Initialize_m891287980
Dqd:_SecurityException__ctor_m1484114982
Ovi:_X509Crl_GetHashName_m183504634
NQd:_Array_GetValue_m1507415734
Uoc:__Z57Register_UnityEngine_RectTransform_INTERNAL_set_anchorMinv
fIe:_Object_MemberwiseClone_m2655589444
ora:__ZN6prcoreL25inner_stretch_i8_bilinearEPKNS_9InnerInfoE
qib:__ZL30RegisterFilteredObjectCallbackPP12Il2CppObjectiPv
jng:_MonoMethod_get_IsGenericMethod_m4276550811
bAh:_Transform_1_BeginInvoke_m3826027984_gshared
gZ:__ZN11UnityEngine15CloudWebService16SessionContainer24GetSessionHeaderJsonDataERKN4core12basic_stringIcNS2_20StringStorageDefaultIcEEEERNS2_13StringBuilderE
K3d:_Decimal_op_Implicit_m2149927308
wba:__ZN13RuntimeStaticI21AssetReferenceStorageLb0EE13StaticDestroyEPv
Q8f:_UInt16_System_IConvertible_ToUInt32_m1864968312
UAj:__ZN6il2cpp6icalls8mscorlib6System9AppDomain22InternalGetProcessGuidEP12Il2CppString
KBe:_KeyPairPersistence_get_UseMachineKeyStore_m560802076
Mwh:_Enumerator_System_Collections_IDictionaryEnumerator_get_Entry_m345330700_AdjustorThunk
GHa:__ZNK17FileSystemHandler10IsReadOnlyERK13FileEntryData
eAb:__Z18Transfer_BlittableI24GenerateTypeTreeTransferLb1EjEvRK29SerializationCommandArgumentsR31RuntimeSerializationCommandInfo
Cvf:_MD2Managed_Padding_m410163267
$8b:__ZNK28RectTransformPropertyBinding9BindValueER6ObjectRKN11UnityEngine9Animation14GenericBindingERNS3_10BoundCurveE
hTa:__ZN11ColorRGBA328TransferI14SafeBinaryReadEEvRT_
PVc:__ZN20TextRenderingPrivate8TextMesh8TransferI14SafeBinaryReadEEvRT_
Mf:_emscripten_glClearDepth
Kcc:__ZNK8GUILayer22GetTypeVirtualInternalEv
b4a:__ZN14SafeBinaryRead21TransferSTLStyleArrayINSt3__26vectorIN15QualitySettings14QualitySettingENS1_9allocatorIS4_EEEEEEvRT_17TransferMetaFlags
tQe:_File_OpenText_m4058508963
Xcb:__ZNSt3__26vectorINS_4pairIPKN5Unity4TypeE7Hash128EENS_9allocatorIS7_EEE8__appendEj
TVf:_WellKnownClientTypeEntry__ctor_m670594074
a7d:_DateTime_System_IConvertible_ToSingle_m3927769066_AdjustorThunk
q1c:_cff_font_load
hDf:_RecordProtocol_SendRecord_m2977889250
xic:__Z13IsPathCreatedRKN4core12basic_stringIcNS_20StringStorageDefaultIcEEEE
XK:__ZN13ProduceHelperI13AnimationClipLb0EE7ProduceE18MemLabelIdentifier18ObjectCreationMode
Vqa:__ZL22stbir__encode_scanlineP11stbir__infoiPvPfiii
ach:__Z136RuntimeInvoker_Void_t1841601450_Byte_t3683104436_RuntimeObject_Int64U26_t763825331_ObjectU26_t597476745_SerializationInfoU26_t4051840202PFvvEPK10MethodInfoPvPS4_
dSc:__ZN20QuadTreeNodeRenderer13StaticDestroyEPv
c_:__ZN11UnityEngine15CloudWebService20WebRequestRestClient5AbortEv
bHi:_InvokableCall_1_Invoke_m2228071798_gshared
k9b:__ZN9Transform12CleanupClassEv
H6g:__Z50RuntimeInvoker_Void_t1841601450_Double_t4078015681PFvvEPK10MethodInfoPvPS4_
WMi:_GUILayoutGroup_CalcWidth_m877887811
gzf:_ClientContext_set_ClientHelloProtocol_m2246603449
lCi:_Texture_Internal_GetHeight_m3235768354
toa:__ZNSt3__26vectorIN9GfxDevice14SubPassActionsENS_9allocatorIS2_EEE26__swap_out_circular_bufferERNS_14__split_bufferIS2_RS4_EE
hOd:_U3CMouseDragOutsideRectU3Ec__Iterator1_MoveNext_m2845491958
Elb:__ZNSt3__26vectorIN9ShaderLab19SerializedSubShaderENS_9allocatorIS2_EEE26__swap_out_circular_bufferERNS_14__split_bufferIS2_RS4_EE
VD:__ZN11UnityEngine9Animation33SetGenericTransformPropertyValuesERKNS0_30AnimatorGenericBindingConstantERKN7mecanim10ValueArrayEP9Transformy
gu:__ZN11UnityEngine9Animation28AnimationClipBindingConstant8TransferI24GenerateTypeTreeTransferEEvRT_
XAd:_StandaloneInputModule_IsModuleSupported_m623598506
nrj:__ZN6il2cpp2vmL24thread_cleanup_on_cancelEPv
NZf:_SByte_ToString_m4105923225_AdjustorThunk
yfe:_CultureInfo_ConstructCurrentUICulture_m3363349599
Pag:_UInt64_CompareTo_m2422461804_AdjustorThunk
d2g:__ZL75CanvasScaler_t2574720772_CustomAttributesCacheGenerator_m_FallbackScreenDPIP21CustomAttributesCache
hXe:_MonoType_GetEvent_m4160342003
eNh:_RawImage_set_texture_m2400157626
hRi:_PrimeHelper_ToPrime_m1606935350_gshared
ETa:__Z30ProcessDynamicBatchGeometryJobP25DynamicVBOGeometryJobDataj
pqh:__Z59RuntimeInvoker_Boolean_t3825574718_RaycastHit2D_t4063908774PFvvEPK10MethodInfoPvPS4_
nUb:__ZNSt3__27__sort4IRNS_6__lessI11CulledLightS2_EEPS2_EEjT0_S6_S6_S6_T_
shj:__ZN6il2cpp2vm14TypeNameParser26ParseArrayModifierOptionalEv
Xwe:_MSCompatUnicodeTable_Level3_m260824928
q7:__Z26scripting_object_get_class18ScriptingObjectPtr
Efb:__ZNSt3__26vectorIN4core12basic_stringIcNS1_20StringStorageDefaultIcEEEE13stl_allocatorIS5_L18MemLabelIdentifier13ELi16EEE7reserveEj
g1i:_RectTransformUtility_GetTransposed_m1233793627
K8b:__ZNK28MonoBehaviourPropertyBinding15GenerateBindingERKN4core12basic_stringIcNS0_20StringStorageDefaultIcEEEEbRN11UnityEngine9Animation14GenericBindingE
PKe:_Int32_FindExponent_m3187554672
WBe:_KeyPairPersistence_Load_m1355205585
ZMe:_Int32_ToString_m2960866144_AdjustorThunk
L$i:_Predicate_1_Invoke_m3539717340_gshared
ysd:_Single_CompareTo_m2081476257_AdjustorThunk
WTi:_AudioExtensionManager_AddSpatializerExtension_m1881494443
qCj:__ZN6il2cpp6icalls8mscorlib6System11Environment15internalGetHomeEv
HVj:dynCall_iiiiiiffiiiiiiiiiffffiiii
cCa:__ZNK5Unity9Component7GetNameEv
GXf:__ZN21InterfaceFuncInvoker4IP12Il2CppObjectS1_P28SerializationInfo_t22898743028StreamingContext_t1417235061S1_E6InvokeEjP11Il2CppClassS1_S1_S3_S4_S1_
bLi:_ObjectPool_1_Get_m3724675538_gshared
FEc:__ZNK11b2RopeJoint16GetReactionForceEf
hF:__ZN7mecanim8skeleton26SkeletonPoseComputeGlobalQEPKNS0_8SkeletonEPKNS0_13SkeletonPoseTIN4math4trsXEEEPS7_ii
Aed:__ZN18UnityConnectClient19RegisterVRCallbacksEv
W5e:_List_1_GetEnumerator_m2672519407_gshared
S5b:__ZN10BootConfig4Data3SetEPKcjS2_j
JE:__ZN9BlobWrite8TransferI22OffsetPtrArrayTransferIiEEEvRT_PKc17TransferMetaFlags
pch:__Z82RuntimeInvoker_Boolean_t3825574718_SByte_t454417549_RuntimeObject_SByte_t454417549PFvvEPK10MethodInfoPvPS4_
Hwe:_ContractionComparer_Compare_m314873025
pNe:_Int64_System_IConvertible_ToDouble_m638786774
aR:__ZN4FMOD6System7releaseEv
E9:__Z18PathToAbsolutePathRKN4core12basic_stringIcNS_20StringStorageDefaultIcEEEE
q_e:_Enumerator_MoveNext_m3078170540_AdjustorThunk
Hr:__ZN13AnimationClip23VirtualRedirectTransferER17RemapPPtrTransfer
kKj:__ZN6il2cpp6icalls8mscorlib6System10Reflection16MonoPropertyInfo16GetTypeModifiersEPvb
wOi:_Action_Invoke_m3801112262
T6g:__Z79RuntimeInvoker_Decimal_t724701077_RuntimeObject_Int32_t2071877448_RuntimeObjectPFvvEPK10MethodInfoPvPS4_
xqa:__ZL13BlitImageImplR14ImageReferenceiiRKS_NS_10ColorSpaceENS_8BlitModeEb
aec:__ZN15DirectorManager17AcquireOutputNodeEv
h6g:__Z64RuntimeInvoker_RuntimeObject_Int16_t4041245914_Int16_t4041245914PFvvEPK10MethodInfoPvPS4_
Yya:__ZN16GeometryJobTasks20ScheduleGeometryJobsER9GfxDevicePFvP15GeometryJobDataEPK22GeometryJobInstructionjb
gP:__ZN12AudioManager29ShutdownReinitializeAndReloadEv
pti:_NetscapeCertTypeExtension_Decode_m2210025005
aWf:_BaseFixupRecord_DoFixup_m1821597450
o4i:__ZN15dense_hashtableINSt3__24pairIK10KeyWrapperIPK22Il2CppGenericParameterEP11Il2CppClassEES6_N6il2cpp5utils11PointerHashIS4_EEN14dense_hash_mapIS6_S9_SE_NS6_14EqualsComparerINS0_8equal_toIS5_EEEENS0_9allocatorISA_EEE9SelectKeyESJ_SL_E6insertERKSA_
xQe:_FileLoadException__ctor_m1356374414
NHi:_InvokableCall_4_Invoke_m1140294390_gshared
Qna:__ZN14DataBufferGLES16RecreateWithDataEjPKv
zCa:__Z29GetGlobalAllowNameConversionsv
r2b:__ZN8Material8SetColorEN9ShaderLab16FastPropertyNameERK10ColorRGBAf
ylg:_Module_GetCustomAttributes_m3581287913
RS:__ZN11AudioSource23VirtualRedirectTransferER18StreamedBinaryReadILb0EE
zba:__ZN21AssetReferenceStorageC2Ev
d6:__ZL41AssemblyNameMatchesWithOrWithoutExtensionPKcS0_
mDc:__ZN23ColliderTilingExtension5ResetEv
Uva:__ZN14GfxContextGLES43AddRenderSurfaceToDeferredFBOInvalidateListEPK17RenderSurfaceGLES
Psj:__ZN6il2cpp6icalls8mscorlib6System9Threading6Thread15Thread_internalEP12Il2CppThreadP14Il2CppDelegate
AEa:__ZN11NamedObject23VirtualRedirectTransferER14SafeBinaryRead
aUi:_AudioListener_GetNumExtensionProperties_m2652400521
oVc:__ZNSt3__26vectorIN20TextRenderingPrivate8FontImpl13CharacterInfoE13stl_allocatorIS3_L18MemLabelIdentifier1ELi16EEE6insertENS_11__wrap_iterIPKS3_EERS9_
uFa:__ZN23PreloadManagerOperation6IsDoneEv
rT:__ZN4FMOD7Channel20get3DConeOrientationEP11FMOD_VECTOR
BFe:_X509Certificate_get_RawData_m3000055075
Sec:__Z33GetHasChangedDeprecatedSystemMaskv
jKc:__ZN10Effector2D10EndContactEP9b2Contact
IEj:__ZN6il2cpp5utils11StringUtils11Utf16ToUtf8ERKNSt3__212basic_stringIDsNS2_11char_traitsIDsEENS2_9allocatorIDsEEEE
Xxh:_Enumerator_VerifyState_m1165543189_AdjustorThunk
O7d:_DateTime_AddSeconds_m722082155_AdjustorThunk
HYd:_SynchronizedArrayListWrapper_CopyTo_m956887031
xhb:__ZN21LightProbeProxyVolume18HasHardwareSupportEv
E0i:_CanvasRenderer_set_materialCount_m1703953120
rMc:__ZNK20b2SeparationFunction17FindMinSeparationEPiS0_f
jra:__ZN6prcoreL31inner_stretch_argb8888_bilinearEPKNS_9InnerInfoE
eEb:__Z18Transfer_BlittableI18StreamedBinaryReadILb1EELb1E8BitFieldEvRK29SerializationCommandArgumentsR31RuntimeSerializationCommandInfo
zXc:_UNITY_FT_Outline_Decompose
sBf:_TlsClientCertificate_get_ClientCertificate_m3062440489
$pd:_StrongNamePublicKeyBlob_ToString_m3721281223
fJj:_GC_init_size_map
EYh:_InternalEnumerator_1_get_Current_m198513457_AdjustorThunk
HQa:__Z20scripting_object_new17ScriptingClassPtr
MIe:_TextInfo__ctor_m2782608694
rcf:_Queue_1_System_Collections_ICollection_CopyTo_m772787461_gshared
VIe:_TextInfo_ToUpper_m299550697
Qyc:__ZN9JSONWrite8TransferI13dynamic_arrayI8BitFieldLj4EEEEvRT_PKc17TransferMetaFlags
bId:_Graphic_OnRectTransformDimensionsChange_m1610753363
P:Math_exp
OWe:_MonoEnumInfo_get_Cache_m3551569711
Ho:FUNCTION_TABLE_iiifi
IAj:__ZN6il2cpp2os5posix13PosixAutoLockD2Ev
uhe:_Array_InternalArray__ICollection_Contains_TisVector3_t2243707580_m3625701788_gshared
qPc:__ZN13BoxCollider2D15InitializeClassEv
fOc:__GLOBAL__sub_I_modules_physics2d_public_0_cpp
IJb:__ZN13MonoBehaviour9SetScriptERK4PPtrI10MonoScriptE18ScriptingObjectPtr
khe:_Array_InternalArray__ICollection_Contains_TisPlayableBinding_t2498078091_m4267109606_gshared
pPc:__ZN13ProduceHelperI13BoxCollider2DLb0EE7ProduceE18MemLabelIdentifier18ObjectCreationMode
fXc:_UNITY_FT_Create_Class_sfnt_module_class
vae:_Decimal_IsZero_m3557909184_AdjustorThunk
mWd:_Char_ToString_m1401375624
Ckd:_MD5CryptoServiceProvider__cctor_m3309191799
gKa:__ZNK10FileSystem16LastErrorMessageEv
Ekh:__Z74RuntimeInvoker_Vector2_t2243707579_Vector2_t2243707579_Vector2_t2243707579PFvvEPK10MethodInfoPvPS4_
S$e:_Enumerator_System_Collections_IEnumerator_Reset_m3052395060_gshared
Ltf:_Kernel_DwordDivMod_m3728402123
ZIb:__ZN13MonoBehaviour13AwakeFromLoadE17AwakeFromLoadMode
lyb:__ZL26Transfer_SimpleNativeClassI17RemapPPtrTransfer8GradientLb1EEvRK29SerializationCommandArgumentsR31RuntimeSerializationCommandInfo
efc:__ZN12CachedWriter9InitWriteER15CacheWriterBase
Wdc:__Z21UnsignedInt64ToStringy
K2f:_UTF7Decoder__ctor_m549434986
w3h:_InternalEnumerator_1_get_Current_m1025321669_AdjustorThunk
hrc:__Z66Register_UnityEngine_Transform_INTERNAL_CALL_InverseTransformPointv
Wda:__ZZN15DirectorManager15InitializeClassEvEN41FixedUpdateDirectorFixedUpdateRegistrator7ForwardEv
Xvi:_X509Crl_VerifySignature_m1390212587
hPf:_Group__ctor_m4103922028
_0j:_glLinkProgram__wrapper
hqb:__ZN18ScriptingArguments8AddInt64Ex
Tra:__ZN6prcoreL12RemapGenericI17TexFormatARGB888815TexFormatBGR888EEvPKNS_9InnerInfoE
Oqb:__ZN12HandlerChain4LockER13FileEntryData12FileLockMode
Ikd:_MD5CryptoServiceProvider_ProcessFinalBlock_m1052610785
XYd:_BitArray_Set_m2878881714
Dfd:__ZN28UnityConnectScriptingClasses23CallSessionStateChangedEixxbP21ScriptingExceptionPtr
xJe:_Guid_CompareTo_m2203922782_AdjustorThunk
$Qh:_Selectable_get_colors_m3501193396
kwj:__ZN6il2cpp6icalls8mscorlib6System13Globalization11CultureInfo35construct_internal_locale_from_nameEP17Il2CppCultureInfoP12Il2CppString
tAb:__ZL22Transfer_ManagedObjectI24GenerateTypeTreeTransferLb1EEvRK29SerializationCommandArgumentsR31RuntimeSerializationCommandInfo
eci:_ContextAttribute_Equals_m53324298
Zj:_emscripten_set_main_loop_timing
pli:_Camera_ScreenToViewportPoint_m3458250415
Zbg:_WeakReference_AllocateHandle_m1783929473
Lna:__ZN14DataBufferGLES12RecordRenderEv
qse:_Array_Sort_TisRuntimeObject_m3674422195_gshared
Y1b:__ZN14ImageReference10FlipImageYEv
Jtc:__Z14GetDefaultSkini
uM:__ZN4FMOD3DSP9setBypassEb
u5b:__Z19NormalizeWheelInputf
Che:_Array_InternalArray__ICollection_Remove_TisLink_t865133271_m1984184141_gshared
FCc:__Z29Transfer_Blittable_ArrayFieldI8JSONReadhEvRT_R9ArrayInfoRK23StaticTransferFieldInfo
rPd:_LayoutRebuilder_IsDestroyed_m3442208294
yxh:_Enumerator_VerifyState_m1547102902_AdjustorThunk
DNj:__ZN6il2cpp2os20ThreadLocalValueImpl8SetValueEPv
iRa:__ZN22RenderingCommandBuffer20CleanupCommandBufferEv
Cch:__Z165RuntimeInvoker_Void_t1841601450_UInt32U26_t2197289955_Int32_t2071877448_UInt32U26_t2197289955_Int32_t2071877448_Int32_t2071877448_Int32_t2071877448_Int32_t2071877448PFvvEPK10MethodInfoPvPS4_
uxc:__Z18Transfer_BlittableI9JSONWriteLb1EtEvRK29SerializationCommandArgumentsR31RuntimeSerializationCommandInfo
yQe:_FileLoadException__ctor_m918124939
qk:___syscall85
wga:__ZN15dense_hashtableINSt3__24pairIKN4core12basic_stringIcNS2_20StringStorageDefaultIcEEEE13dynamic_arrayI4PPtrI6SpriteELj4EEEES6_20StringHash32FunctionIS6_EN14dense_hash_mapIS6_SC_SF_NS0_8equal_toIS6_EE13stl_allocatorISD_L18MemLabelIdentifier81ELi16EEE9SelectKeyESI_SL_E5clearEv
YRb:__ZNSt3__26__sortIRPFbP10GUIElementS2_EPS2_EEvT0_S7_T_
suf:_SequentialSearchPrimeGeneratorBase_GenerateSearchBase_m2930465198
Qcc:__ZN16GraphicsSettings12CleanupClassEv
sDj:__ZN6il2cpp2os6Thread19DetachCurrentThreadEv
J4i:__ZN6il2cpp2vmL21SetupInterfacesLockedEP11Il2CppClassRKNS_2os12FastAutoLockE
Zsb:__ZN11MonoManager23VirtualRedirectTransferER24GenerateTypeTreeTransfer
SC:__ZN23AnimationPlayableOutput17SetSourcePlayableEP8Playable
JOf:_Capture__ctor_m885749277
iLd:_SubmitEvent__ctor_m222860306
cZ:__ZN11UnityEngine15CloudWebService14DataDispatcher15SetupWebRequestEv
GUe:_TextWriter__cctor_m4047845042
Icd:__ZN11UnityEngine15PlatformWrapper13GetShaderCapsEv
Qsi:_Object_ToString_m2938729670
FZb:__ZNSt3__211__sift_downIR26RenderDeferredObjectSorterP16RenderObjectDataEEvT0_S5_T_NS_15iterator_traitsIS5_E15difference_typeES5_
CLd:_InputField_CaretBlink_m3960486606
ak:_emscripten_glGetProgramiv
uCe:_SmallXmlParser_ReadCharacters_m1966365555
nFf:_InternalAsyncResult_get_CompletedWithError_m3993955322
ydc:__ZN21FixedBehaviourManager6UpdateEv
hic:__ZN9Transform9SetParentEPS_NS_15SetParentOptionE
oJd:_GridLayoutGroup_set_startCorner_m1660251450
WOa:__ZN19ShaderPropertySheet8SetFloatEN9ShaderLab16FastPropertyNameEfNS_8SetFlagsE
E$g:__ZL68InputField_t1631627530_CustomAttributesCacheGenerator_m_AsteriskCharP21CustomAttributesCache
mgb:__ZN19RuntimeSceneManager24BeginIntegrateMainThreadEP10UnityScene
WBj:__ZNSt3__2plIcNS_11char_traitsIcEENS_9allocatorIcEEEENS_12basic_stringIT_T0_T1_EERKS9_S6_
xVe:_LocalDataStoreSlot__cctor_m1192669356
hlb:__ZN9ShaderLab20SerializedSubProgramaSERKS0_
zTj:_roundf
Yud:_String_CreateString_m2556700934
KMa:__ZN18StreamedBinaryReadILb0EE21TransferSTLStyleArrayINSt3__26vectorI17SortingLayerEntryNS2_9allocatorIS4_EEEEEEvRT_17TransferMetaFlags
ww:__ZN8Animator15SetPrepareStageEv
uSh:_Slider_get_axis_m162140813
K4i:__ZN6il2cpp2vmL24SetupTypeHierarchyLockedEP11Il2CppClassRKNS_2os12FastAutoLockE
C5b:__ZL11TextHandleriPK23EmscriptenKeyboardEventPv
CPd:_LayoutRebuilder_U3Cs_RebuildersU3Em__0_m3768099182
SQh:_ScrollRect_SetLayoutHorizontal_m3486408020
OUc:_destroy_face
Cqi:_Material_SetIntImpl_m1039479734
fxh:_Enumerator_VerifyState_m1547102902_gshared
BKj:__ZN6il2cpp6icalls8mscorlib6System8Security12Cryptography24RNGCryptoServiceProvider13RngInitializeEP11Il2CppArray
kfh:__Z99RuntimeInvoker_Void_t1841601450_Int32_t2071877448_Int16_t4041245914_Int16_t4041245914_RuntimeObjectPFvvEPK10MethodInfoPvPS4_
TIf:_IPAddress__cctor_m3624830012
_S:__ZN20SoundChannelInstance7setMuteEb
DKf:_AsnEncodedData_EnhancedKeyUsageExtension_m1452131166
dFb:__Z19TransferField_ArrayI18StreamedBinaryReadILb1EE27Converter_SimpleNativeClassI17AnimationCurveTplIfEEEvRK23StaticTransferFieldInfoR31RuntimeSerializationCommandInfoRT0_
tBi:_SendMouseEvents__cctor_m1448404407
YPc:__ZN7b2World18SetContactListenerEP17b2ContactListener
GMc:__ZN14PhysicsQuery2D11LinecastAllERK8Vector2fS2_RKN10Collider2D13ContactFilterEPKS3_bP13dynamic_arrayI12RaycastHit2DLj4EE
zoa:__ZN18GfxFramebufferGLES22MakeCurrentFramebufferENS_7BuiltinE
PPf:_Interpreter_Close_m1500459069
uk:_JS_SystemInfo_GetWidth
BKa:__ZN12CachedReader4ReadEPvj
Z$c:_cf2_blues_init
IYh:_InternalEnumerator_1_System_Collections_IEnumerator_get_Current_m3600601141_gshared
end:_SHA1Internal_HashFinal_m3188468925
nWb:__Z24CalculateLightShadowFadeRK6CamerafffR8Vector4f
j6:__ZN19RuntimeSceneManagerD2Ev
R9h:_ChannelData_get_CustomProperties_m1470957369
Cte:_Dictionary_2_Do_ICollectionCopyTo_TisRuntimeObject_m545661084_gshared
s_:__ZN11UnityEngine15CloudWebService25WebRequestDownloadHandler17OnCompleteContentEv
ira:__ZN6prcore17GetIntegerBlitterE13TextureFormatS0_N14ImageReference8BlitModeE
NCc:__ZN13BoxCollider2DD0Ev
flj:__ZN6il2cpp2gc19AppendOnlyGCHashMapINSt3__24pairIPK11Il2CppImageP11Il2CppClassEEP22Il2CppReflectionModule17ReflectionMapHashIS9_ENS2_8equal_toIS9_EEE11TryGetValueERKS9_PSB_
uyh:_Enumerator_VerifyState_m3173176371_AdjustorThunk
$Hf:_TypeConverterAttribute__cctor_m506796812
lkc:__ZN9BlobWrite14ReduceCopyImplERK14ReduceCopyDataj
P3:__ZNSt3__26__treeI19RepeatingLogMessageNS_4lessIS1_EE13stl_allocatorIS1_L18MemLabelIdentifier73ELi16EEE12__find_equalIS1_EERPNS_16__tree_node_baseIPvEESD_RKT_
DW:__ZN11AudioSource18IsPlayingScriptingEv
V5h:_Comparer_1_System_Collections_IComparer_Compare_m1790257529_gshared
kFc:__ZNK12b2WheelJoint10GetAnchorAEv
cYj:_glShaderSource__wrapper
JIa:__ZN25MultiBlocksMemoryFileData17AdjustBlocksCountEj
zsj:__ZNSt3__214__split_bufferIN6il2cpp2vm22EmbeddedResourceRecordERNS_9allocatorIS3_EEED2Ev
nzf:_TlsClientHello__ctor_m1699671541
USc:__ZN13TextRendering4Font8TransferI24GenerateTypeTreeTransferEEvRT_
zbi:_Context_NotifyGlobalDynamicSinks_m2916447645
Flc:__Z27CullingGroup_CUSTOM_DisposeP12Il2CppObject
agd:__ZNSt3__26vectorIP19BaseConnectSettings13stl_allocatorIS2_L18MemLabelIdentifier6ELi16EEE21__push_back_slow_pathIKS2_EEvRT_
gRb:__ZN13ComputeShader15SetTextureParamEjRKN9ShaderLab16FastPropertyNameE9TextureID16TextureDimension
LRh:_Shadow_set_effectDistance_m1951993364
YFh:_Dictionary_2_ContainsKey_m416495915_gshared
Am:_glStencilMask
yBj:__ZN6il2cpp2os10ThreadImpl16GetCurrentThreadEv
$zf:_TlsServerHelloDone__ctor_m2125611008
B_d:_Hashtable__ctor_m2337481811
$xh:_Enumerator_System_Collections_IEnumerator_get_Current_m2010873149_gshared
E1g:__ZL74SpriteState_t1353336012_CustomAttributesCacheGenerator_m_HighlightedSpriteP21CustomAttributesCache
bu:__ZN24GenerateTypeTreeTransfer21TransferSTLStyleArrayINSt3__26vectorI24CompressedAnimationCurve13stl_allocatorIS3_L18MemLabelIdentifier26ELi16EEEEEEvRT_17TransferMetaFlags
gIj:_GC_push_conditional_with_exclusions
N9f:_UInt32_System_IConvertible_ToUInt16_m2798641702_AdjustorThunk
zWf:_BinaryFormatter_get_DefaultSurrogateSelector_m219714691
IF:__ZN12_GLOBAL__N_121ProcessAnimationBeginER35AnimationPlayableEvaluationConstantR32AnimationPlayableEvaluationInputR33AnimationPlayableEvaluationOutput
_8g:__Z136RuntimeInvoker_Void_t1841601450_Int32_t2071877448_RuntimeObject_RuntimeObject_RuntimeObject_RuntimeObject_RuntimeObject_SByte_t454417549PFvvEPK10MethodInfoPvPS4_
Qvf:_MD4Managed_Encode_m2097839378
Ong:_MonoProperty_GetOptionalCustomModifiers_m3827844355
CQj:_strrchr
Dxe:_SimpleCollator_GetSortKey_m2188419329
w2g:__ZL56LayoutElement_t2808691390_CustomAttributesCacheGeneratorP21CustomAttributesCache
FVa:__ZN14RenderSettings27UpdateIndirectSpecularColorEv
Vdb:__ZN14PlayerSettings8TransferI18StreamedBinaryReadILb0EEEEvRT_
vdj:__ZN6il2cpp6icalls8mscorlib6System8MonoType16GetMethodsByNameEP20Il2CppReflectionTypeP12Il2CppStringibS5_
pqi:_Logger_Log_m302200299
B8h:_GCHandle__ctor_m2952050298
KLh:_Mask_IsRaycastLocationValid_m62488857
JNb:__ZNSt3__27__sort3IRNS_4lessIN22BuiltinResourceManager8ResourceEEEPS3_EEjT0_S7_S7_T_
j5h:_DefaultComparer_Compare_m3472472212_gshared
WQe:_MonoIO_GetLength_m2812344043
L_c:_ps_hints_t2mask
Epj:__ZN14dense_hash_mapI10KeyWrapperINSt3__24pairIP11Il2CppClassjEEES4_N6il2cpp8metadata14ArrayClassHashENS6_14EqualsComparerINS8_17ArrayClassCompareEEENS1_9allocatorINS2_IKS6_S4_EEEEEC2EjRKS9_RKSC_
k9a:__ZN10BlendShape8TransferI19StreamedBinaryWriteILb0EEEEvRT_
pOe:__Z21il2cpp_codegen_sizeofP11Il2CppClass
qva:__Z19GetTimeSinceStartupv
Grd:_SecurityFrame_get_Assembly_m2816566490
C0i:_CanvasRenderer_set_hasPopInstruction_m3302400555
P3c:_TT_Load_Composite_Glyph
mRd:_Array_Sort_m2994254654
$af:_List_1__ctor_m593058937_gshared
GUb:__ZN29RenderNodeQueuePrepareContextC2Ev
CV:__ZN10SampleClipC2E18MemLabelIdentifier18ObjectCreationMode
jmb:__ZN9ShaderLab20SerializedSubProgram16TextureParameter8TransferI24GenerateTypeTreeTransferEEvRT_
Rha:__ZN9GfxDevice19SaveStereoConstantsEv
_Kj:__ZN6il2cpp2os11MutexHandle4WaitEj
ajc:__ZL34GetComponentsImplementationRecurseILb1ELi1ELi1EEbR10GameObjectbRK17CompareParametersRK39GetComponentsImplementation_ReturnValue
ZKj:__ZN6il2cpp2os11MutexHandle4WaitEv
HWd:_ArrayList_set_Capacity_m592558035
bta:__ZN6prcoreL17RemapGenericFloatI15TexFormatRGHalf18TexFormatARGBFloatEEvPKNS_9InnerInfoE
mMb:__Z18SimulateMouseInputi
AQb:__ZN13RenderManager23AddRemoveCamerasDelayedEv
zyc:__ZN9JSONWrite8TransferI13dynamic_arrayIdLj8EEEEvRT_PKc17TransferMetaFlags
Tli:_Color_op_Multiply_m2110750533
Xhe:_Array_InternalArray__ICollection_Remove_TisILTokenInfo_t149559338_m1523907845_gshared
U_d:_Hashtable_Rehash_m2877670513
J0b:__ZN13RenderTexture8SetWidthEi
ANd:_InputField_Insert_m1593238693
nWc:_UNITY_FT_GlyphLoader_CheckSubGlyphs
dcj:__ZN6il2cpp2vm21ThreadPoolCompartment20SpawnNewWorkerThreadEv
mne:_Array_InternalArray__ICollection_Add_TisCustomAttributeTypedArgument_t1498197914_m3260005285_gshared
SWb:__Z25SetupObjectBakedOcclusionbRK15SharedLightDataRK26SharedLightmapSettingsDataRK15LightmapIndicesR17ShaderPassContext
AJe:_Guid_GetHashCode_m1401300871
_3:__ZN9ShaderLab16FastPropertyName4InitEPKc
c8b:__Z13RegisterClassIN2UI13RectTransformEEvv
$we:_MSCompatUnicodeTable_ToWidthCompat_m2299599532
wYe:_NumberFormatter_get_IsFloatingSource_m2830957202
hcc:__ZL31MeshRendererTransformChangedJobP13BoundsJobDatajPK23TransformAccessReadOnlyPKyj
ocd:__ZN11UnityEngine15PlatformWrapper19GetPhysicalMemoryMBEv
pWa:__ZN13RenderTexture9SetMipMapEb
SPh:_ScrollRect_set_verticalScrollbarSpacing_m2356851539
Eda:__Z18GetDirectorManagerv
Cqc:__Z38Transform_CUSTOM_INTERNAL_get_rotationP12Il2CppObjectP11Quaternionf
aij:__ZNSt3__26vectorIN6il2cpp2vm17TypeNameParseInfoENS_9allocatorIS3_EEE8allocateEj
Wkj:__ZNK15dense_hashtableINSt3__24pairIK10KeyWrapperINS1_IPK10MethodInfoP11Il2CppClassEEEjEES9_17ReflectionMapHashIS8_EN14dense_hash_mapIS9_jSD_NS9_14EqualsComparerINS0_8equal_toIS8_EEEENS0_9allocatorISB_EEE9SelectKeyESI_SK_E5beginEv
gua:__ZN7ApiGLES19UploadBufferSubDataEjN2gl12BufferTargetEllPKv
iga:__ZNSt3__216__rotate_forwardINS_11__wrap_iterIPN4core12basic_stringIcNS2_20StringStorageDefaultIcEEEEEEEET_S9_S9_S9_
dtd:_String_System_IConvertible_ToInt32_m1927223638
wI:__ZN7mecanim12statemachine20StateMachineConstant8TransferI14SafeBinaryReadEEvRT_
kvd:_ASCIIEncoding__ctor_m4127831672
imi:_GameObject_GetComponent_m724360550
p0i:_CanvasGroup_get_alpha_m4171392097
ovb:__Z19TransferField_ArrayI14SafeBinaryRead27Converter_SimpleNativeClassI8GUIStyleEEvRK23StaticTransferFieldInfoR31RuntimeSerializationCommandInfoRT0_
pfh:__Z63RuntimeInvoker_Void_t1841601450_RuntimeObject_Int16_t4041245914PFvvEPK10MethodInfoPvPS4_
K0f:_UTF8Encoding__ctor_m3336862259
OKj:__ZN6il2cpp5utils10MemoryPoolC2Ej
YMf:_X509Chain_GetAuthorityKeyIdentifier_m2607407678
KKj:__ZN6il2cpp5utils10MemoryPoolC2Ev
bVa:__ZN14RenderSettings5ResetEv
G6b:__ZN6Sprite9BindAtlasERK4PPtrI11SpriteAtlasE
kvc:__ZN5Unity9rapidjson12GenericValueINS0_4UTF8IcEE13JSONAllocatorE10FindMemberIS4_EENS0_21GenericMemberIteratorILb0ES3_S4_EERKNS1_IS3_T_EE
Mtj:__ZNSt3__212basic_stringIDsNS_11char_traitsIDsEENS_9allocatorIDsEEE6appendEPKDsj
Lvc:__ZN5Unity9rapidjson13GenericReaderINS0_4UTF8IcEES3_13JSONAllocatorE11ParseNumberILj1ENS0_25GenericInsituStringStreamIS3_EENS0_15GenericDocumentIS3_S4_S4_EEEEvRT0_RT1_
wab:__ZN14SpriteRenderer14OnChangeSpriteEv
Vte:_Dictionary_2_Do_ICollectionCopyTo_TisKeyValuePair_2_t3716250094_m1740410536_gshared
iBj:__ZN6il2cpp2os10ThreadImplD2Ev
ADe:_RSAManaged_Dispose_m3018788098
kGc:__ZN12b2MouseJoint23InitVelocityConstraintsERK12b2SolverData
Cwc:__ZN8Gradient8TransferI9JSONWriteEEvRT_
$Ea:__ZNK12TLSAllocatorI14StackAllocatorE22GetAllocatedMemorySizeEv
Sv:__ZN7mecanim6memory16ChainedAllocator8AllocateEjj
U5d:_Convert_ToUInt32_m3394039268
TCa:__ZN17RemapPPtrTransfer12PushMetaFlagE17TransferMetaFlags
zqb:__ZN12HandlerChain4NameEv
$wb:__Z29Transfer_Blittable_ArrayFieldI14SafeBinaryReadN4math12int3_storageEEvRT_R9ArrayInfoRK23StaticTransferFieldInfo
hcb:__ZNSt3__26vectorI9InputAxisNS_9allocatorIS1_EEE10deallocateEv
yKe:_Int16_Equals_m3925135434_AdjustorThunk
qad:__Z44Register_UnityEngine_CanvasRenderer_get_cullv
Xtg:__ZL60IHashCodeProvider_t1980576455_CustomAttributesCacheGeneratorP21CustomAttributesCache
z8b:__ZN13ProduceHelperI13MonoBehaviourLb0EE7ProduceE18MemLabelIdentifier18ObjectCreationMode
g$e:_Enumerator_VerifyState_m1677639504_AdjustorThunk
xyf:_CipherSuiteCollection_get_Item_m280627160
rtb:__Z44InitializeTransferFunctionScriptingTraitsForI17RemapPPtrTransferEvR31TransferFunctionScriptingTraits
HRf:_SerializationInfoEnumerator_MoveNext_m1876990879
j6f:_TimeSpan_Duration_m4205681645
F2b:__ZN14UnityWebStream24UpdateAllUnityWebStreamsEv
O8b:__ZNSt3__26vectorI16MessageForwarder13stl_allocatorIS1_L18MemLabelIdentifier7ELi8EEE6resizeEj
xsg:__ZL60ObsoleteAttribute_t3878847927_CustomAttributesCacheGeneratorP21CustomAttributesCache
zii:_Uri_ParseAsWindowsAbsoluteFilePath_m1108586962
Soe:_Array_InternalArray__ICollection_CopyTo_TisRaycastHit2D_t4063908774_m3837098618_gshared
kgb:__ZN18LoadSceneOperation21MustCompleteNextFrameEv
UBi:_DataUtility_GetInnerUV_m593541260
$S:__ZNK12AudioManager16GetAudioListenerEv
q2i:_Rigidbody2D_AddForce_m4059537452
CKg:__ZL48Camera_t189460977_CustomAttributesCacheGeneratorP21CustomAttributesCache
p0b:__ZNSt3__26vectorI11CameraStackNS_9allocatorIS1_EEE8__appendEj
LKc:__ZNK11Rigidbody2D20GetAttachedCollidersER13dynamic_arrayIP10Collider2DLj4EE
JMd:_InputField_OnDisable_m1865339380
K9f:_UInt32_System_IConvertible_ToType_m747769316
Vx:__ZN7mecanim9animation12GetHumanPoseERKNS0_18ClipMuscleConstantEPKNS0_10ValueDeltaERNS_5human9HumanPoseE
ave:_Array_InternalArray__get_Item_TisInt16_t4041245914_m2533263979_gshared
Kz:__ZN22AnimationMixerPlayable17ProcessRootMotionEP35AnimationPlayableEvaluationConstantP32AnimationPlayableEvaluationInputP33AnimationPlayableEvaluationOutput
K9:__Z13GetFileSystemv
bba:__ZNK5Unity4Type21FindAllDerivedClassesER13dynamic_arrayIPKS0_Lj4EENS0_17TypeFilterOptionsE
Iba:__ZN13RuntimeStaticI15GUIEventManagerLb0EE16StaticInitializeEPv
tbb:__ZN14SafeBinaryRead8TransferIfEEvRT_PKc17TransferMetaFlags
oHe:_DaylightTime_get_Delta_m2316831491
SMc:__ZNSt3__27__sort5IR24RayHitsByDepthComparitorP12RaycastHit2DEEjT0_S5_S5_S5_S5_T_
qhe:_Array_InternalArray__ICollection_Contains_TisUILineInfo_t3621277874_m1175659630_gshared
A5f:_WaitHandle_WaitOne_m370363697
cPf:_FactoryCache_Lookup_m1681894361
p8d:_DateTime_Subtract_m698282245_AdjustorThunk
Aab:__ZThn32_N14SpriteRenderer15AddAsRenderNodeER15RenderNodeQueueRK20DeprecatedSourceData
bme:_Array_InternalArray__IndexOf_TisResourceCacheItem_t333236149_m761772858_gshared
tRb:__ZN19ShaderPropertySheet9SetMatrixEN9ShaderLab16FastPropertyNameERK10Matrix4x4fNS_8SetFlagsE
Fld:_RIPEMD160Managed_Initialize_m3365407578
K0a:__Z29GetTextureSizeAllowedMultiple13TextureFormat
SIf:_IPAddress_HostToNetworkOrder_m1092199707
gje:_SetPropertyUtility_SetStruct_TisSpriteState_t1353336012_m2898060836_gshared
Npd:_SecurityAttribute__ctor_m3425755778
Odc:__ZN21IntermediateRenderers3AddEP20IntermediateRenderer
Xej:_il2cpp_array_element_size
Zf:_glCheckFramebufferStatus
zke:_Array_compare_TisInt32_t2071877448_m840310202_gshared
Byh:_Enumerator_System_Collections_IEnumerator_get_Current_m229223308_AdjustorThunk
Jwj:__ZN15dense_hashtableINSt3__24pairIK10KeyWrapperINS1_IPKcS4_EEEiEES6_24NamespaceAndNamePairHashN14dense_hash_mapIS6_iS9_NS6_14EqualsComparerI26NamespaceAndNamePairEqualsEENS0_9allocatorIS8_EEE9SelectKeyESD_SF_E12resize_deltaEjj
I4h:_InternalEnumerator_1_System_Collections_IEnumerator_get_Current_m442726479_AdjustorThunk
C$:__ZN19CloudServiceHandler20StartEventDispatcherERKN11UnityEngine15CloudWebService18CloudServiceConfigERNS1_23WebRequestRestHeaderMapE
Q2h:_InternalEnumerator_1_System_Collections_IEnumerator_get_Current_m790514740_AdjustorThunk
Pwe:__Z37il2cpp_codegen_get_executing_assemblyPK10MethodInfo
iui:_PKCS12_get_Keys_m1312614820
eJ:__ZN15SerializeTraitsINSt3__24pairI8StateKey10StateRangeEEE8TransferI24GenerateTypeTreeTransferEEvRS4_RT_
KJ:__ZN15SerializeTraitsI9OffsetPtrIN7mecanim12statemachine21SelectorStateConstantEEE8TransferI18StreamedBinaryReadILb0EEEEvRS4_RT_
Ble:_Array_InternalArray__IndexOf_TisByte_t3683104436_m3605266236_gshared
tQc:__ZN15dense_hashtableINSt3__24pairIKNS1_IPK10Collider2DS4_EE11Collision2DEES5_NS2_23ColliderPairHashFunctorEN14dense_hash_mapIS5_S7_S9_NS0_8equal_toIS5_EE13stl_allocatorIS8_L18MemLabelIdentifier67ELi16EEE9SelectKeyESC_SF_E13set_empty_keyERKS8_
VNh:_RaycastAllCallback_Invoke_m981876639
w0f:_UnicodeEncoding__ctor_m72484327
qCi:_Texture_INTERNAL_get_texelSize_m3335010007
lvj:__ZN14dense_hash_mapI10KeyWrapperIP14Il2CppIUnknownEjN6il2cpp5utils11PointerHashIS1_EENS3_14EqualsComparerINSt3__28equal_toIS2_EEEENS9_9allocatorINS9_4pairIKS3_jEEEEE15set_deleted_keyERSF_
qba:__ZN22BuiltinResourceManager16StaticInitializeEPv
Cv:__ZN7mecanim4hand8HandPose8TransferI19StreamedBinaryWriteILb0EEEEvRT_
JLe:_NumberFormatter_ScaleOrder_m1915154678
xnj:__ZN13Il2CppHashMapIPK14Il2CppAssemblyPK22Il2CppMonoAssemblyNameN6il2cpp5utils11PointerHashIS1_EENSt3__28equal_toIS2_EENSA_9allocatorINSA_4pairIK10KeyWrapperIS2_ES5_EEEEEC2EjRKS9_RKSC_
sAf:_ClientSessionInfo_SetContext_m2649357891
wMe:_Int32_System_IConvertible_ToInt64_m3790029067_AdjustorThunk
eDc:__ZN13BoxCollider2D13PrepareShapesER13dynamic_arrayIP7b2ShapeLj4EERK10Matrix4x4f
fs:__ZN14AnimationEvent8TransferI14SafeBinaryReadEEvRT_
wxd:_RaycasterManager_GetRaycasters_m1154876874
FFf:_SslStreamBase_InternalReadCallback_m2524917586
P8:__ZN8Remapper6RemoveEi
f4e:_List_1_CheckCollection_m2608305187_gshared
Ajc:__ZN9Scripting27CreateArgumentNullExceptionEPKc
vVc:__ZL36CleanupTextRenderingScriptingClassesv
yof:_ReadOnlyCollection_1__ctor_m3532148437_gshared
UQd:_Array_BinarySearch_m3270245097
ioc:__Z34Mesh_CUSTOM_SetArrayForChannelImplP12Il2CppObject30InternalScriptingShaderChannel34InternalScriptingVertexChannelTypeiP11Il2CppArrayi
kQe:_MonoIO_DeleteFile_m3273821223
Lye:_BigInteger_GenerateRandom_m2507308768
S6d:_DateTime_System_IConvertible_ToDouble_m1431748426_AdjustorThunk
bhe:_Array_InternalArray__ICollection_Contains_TisUInt16_t986882611_m510319131_gshared
Ype:_Array_InternalArray__Insert_TisRaycastHit2D_t4063908774_m3174907903_gshared
Lae:_Decimal_ToString_m541380585
nfj:_il2cpp_class_is_valuetype
RK:__ZN11UnityEngine9Animation28GenericAnimationBindingCache25RegisterIAnimationBindingEPKN5Unity4TypeEiP17IAnimationBinding
uad:__Z70RectTransformUtility_CUSTOM_INTERNAL_CALL_RectangleContainsScreenPointP12Il2CppObjectRK13Vector2fIcallS0_
zde:_Enum_ToObject_m2601523252
aUj:dynCall_viiffiii
g$b:__Z40ProcessCameraIndexListIsNodeVisibleInOutRK22SceneCullingParametersPK9SceneNodePK4AABBR9IndexList
Mqi:_Mathf_Sqrt_m3274009347
SSa:__ZN16GraphicsSettings8TransferI17RemapPPtrTransferEEvRT_
pTe:_StreamReader__ctor_m2654332332
Y7c:__ZN2UI6Canvas13UpdateBatchesEb
Gwi:_Playable__cctor_m3745623656
PC:__ZNK23AnimationPlayableOutput11DerivesFromE17ScriptingClassPtr
Pli:_Color_op_Implicit_m3487763211
l2e:_List_1_CheckCollection_m3968030679_gshared
q1f:_StringBuilder_ToString_m617673931
idd:__ZN11UnityEngine7Connect13ConfigHandler12GetListenersERKN4core12basic_stringIcNS2_20StringStorageDefaultIcEEEE
hja:__ZN9GfxDevice18AllocRenderSurfaceEb
KNh:_GetRayIntersectionAllNonAllocCallback_BeginInvoke_m273046189
A6b:__ZN10TagManager32GetSortingLayerUniqueIDFromValueEi
Agi:_AnchorInfo_get_IsComplete_m1247624133
EGd:_Dropdown_Show_m324374589
N5:__ZL27CleanupCoreScriptingClassesv
p9g:__Z68RuntimeInvoker_RuntimeObject_RuntimeObject_DSAParameters_t1872138834PFvvEPK10MethodInfoPvPS4_
g2h:_InternalEnumerator_1_get_Current_m4290564662_AdjustorThunk
goh:__Z101RuntimeInvoker_Void_t1841601450_RuntimeObject_Int32_t2071877448_Single_t2076509932_Single_t2076509932PFvvEPK10MethodInfoPvPS4_
Rzd:_RaycastResult_get_isValid_m2482925612
boc:__Z26AnimationCurve_CUSTOM_InitP12Il2CppObjectP11Il2CppArray
G$j:_glUniform1uiv__wrapper
tDc:__ZNK14b2PolygonShape5CloneEP16b2BlockAllocator
inj:__ZN6il2cpp2vm10Reflection7IsEventEP12Il2CppObject
W6:__ZN17PersistentManager26GetStreamNameSpaceInternalEi
yyi:_Rect_set_y_m3273335367
YQc:__Z40Rigidbody2D_CUSTOM_INTERNAL_get_positionP12Il2CppObjectP13Vector2fIcall
hN:__ZN4FMOD6System11createSoundEPKcjP22FMOD_CREATESOUNDEXINFOPPNS_5SoundE
$n:FUNCTION_TABLE_iiifiiii
Bij:__ZN6il2cpp2vm4Type14IsSystemDBNullEPK10Il2CppType
U4:__ZN9ShaderLab19CommonPropertyNames13StaticCleanupEPv
f8:__Z31scripting_method_get_returntype18ScriptingMethodPtr
_Ph:_ScrollRect_UpdateBounds_m3266596336
Z1a:__ZN15SerializeTraitsI12LightmapDataE8TransferI24GenerateTypeTreeTransferEEvRS0_RT_
zDi:_Transform_INTERNAL_set_localScale_m1610244689
hEd:_ColorBlock_GetHashCode_m649325222
eYj:_glStencilOpSeparate__wrapper
mgc:__ZN4Mesh5SetUvEiPKfjj
u4a:__ZN7Texture13SetAnisoLimitENS_20AnisotropicFilteringE
ihb:__ZN28LightProbeProxyVolumeManager25UpdateSHCoeffsTextureDataER21LightProbeProxyVolume
FJa:__Z18CreateDecompressor15CompressionType18MemLabelIdentifier
TU:__ZN11AudioModule16SetListenerPauseEb
Sh:_emscripten_glCompressedTexSubImage2D
Jva:__ZN13GfxDeviceGLES22MemoryBarrierImmediateEyN2gl17MemoryBarrierTypeE
Vfa:__ZZN18SpriteAtlasManagerC1EvEN46EarlyUpdateSpriteAtlasManagerUpdateRegistrator7ForwardEv
pta:__ZN6prcoreL26RemapGenericFloatToIntegerI18TexFormatARGBFloat17TexFormatARGB8888EEvPKNS_9InnerInfoE
Wic:__Z46GetShaderModelNumericValueFromRequirementsMask18ShaderRequirements
a2c:_cff_ps_has_glyph_names
oei:_PatternCompiler_EmitPosition_m3013268572
AOf:_X509SubjectKeyIdentifierExtension__ctor_m1109455121
QId:_Graphic_CreateColorFromAlpha_m2614574534
Yuc:__Z44Register_UnityEngine_GUIStyle_SetDefaultFontv
mDb:__Z18Transfer_BlittableI18StreamedBinaryReadILb1EELb1EiEvRK29SerializationCommandArgumentsR31RuntimeSerializationCommandInfo
HE:__ZN9BlobWrite8TransferI22OffsetPtrArrayTransferIKN4math7_float3EEEEvRT_PKc17TransferMetaFlags
Jod:_TripleDES_IsWeakKey_m483013953
PLf:_X509Certificate2_get_PrivateKey_m2662162956
Zlj:__ZN15dense_hashtableINSt3__24pairIK10KeyWrapperINS1_IPK12PropertyInfoP11Il2CppClassEEEjEES9_17ReflectionMapHashIS8_EN14dense_hash_mapIS9_jSD_NS9_14EqualsComparerINS0_8equal_toIS8_EEEENS0_9allocatorISB_EEE9SelectKeyESI_SK_E12maybe_shrinkEv
Ffh:__Z75RuntimeInvoker_RuntimeObject_RuntimeObject_Single_t2076509932_RuntimeObjectPFvvEPK10MethodInfoPvPS4_
NDb:__Z18Transfer_BlittableI18StreamedBinaryReadILb1EELb1EsEvRK29SerializationCommandArgumentsR31RuntimeSerializationCommandInfo
Gnh:__Z54RuntimeInvoker_Void_t1841601450_ColorBlock_t2652774230PFvvEPK10MethodInfoPvPS4_
isd:_Single_System_IConvertible_ToSByte_m3757385387
rDi:_Vector3_get_forward_m1316319684
iRe:_StreamAsyncResult_SetComplete_m2141125667
y4a:__ZL21SetAnisoLimitEnumImplN7Texture20AnisotropicFilteringEb
ybd:__ZN22BaseUnityConnectClient17OnEnterStateReadyEv
gRa:__ZN14GrowableBufferD2Ev
LMi:_GUIStyle_get_stretchWidth_m813991504
pnc:__Z29Input_CUSTOM_GetMouseButtonUpi
Vdj:__ZN6il2cpp6icalls8mscorlib6System8MonoType16InternalGetEventEP20Il2CppReflectionTypeP12Il2CppStringi
Q3f:_Interlocked_CompareExchange_m3339239614
UXc:_UNITY_tt_face_load_maxp
Dnc:__Z46Input_CUSTOM_INTERNAL_set_compositionCursorPosRK13Vector2fIcall
Yw:__ZN7mecanim5human12FullBodyMaskEv
eDi:_Transform_set_position_m2942701431
bbb:__ZN19ShaderPropertySheet11ComputeHashEv
m8i:__ZN30dense_hashtable_const_iteratorI10KeyWrapperIPK19Il2CppGenericMethodES4_N6il2cpp8metadata23Il2CppGenericMethodHashEN14dense_hash_setIS4_S7_NS4_14EqualsComparerINS6_26Il2CppGenericMethodCompareEEENSt3__29allocatorIS4_EEE8IdentityESB_SE_EppEv
$Lc:__ZN12b2EPCollider24ComputePolygonSeparationEv
b_:__ZN11UnityEngine15CloudWebService20WebRequestRestClient6IsDoneEv
Oi:_llvm_fabs_f32
lDd:_CanvasScaler_HandleScaleWithScreenSize_m80056230
GZ:__ZN11UnityEngine15CloudWebService16SessionContainer16GetJsonDataBlockEjRKN4core12basic_stringIcNS2_20StringStorageDefaultIcEEEERS6_PjSA_
yZf:_SByte_System_IConvertible_ToUInt64_m2174352876_AdjustorThunk
ts:__ZN7mecanim9animation18ClipMuscleConstant8TransferI14SafeBinaryReadEEvRT_
B2f:_UTF7Encoding_InternalGetBytes_m2772055844
wbh:__Z76RuntimeInvoker_Void_t1841601450_Int64_t909078037_ResourceInfoU26_t3126209420PFvvEPK10MethodInfoPvPS4_
lxe:_SimpleCollator__cctor_m2693747668
Eae:_Decimal_CompareTo_m2454501434_AdjustorThunk
k7:__ZN14SafeBinaryReadD2Ev
v8f:_UInt16_System_IConvertible_ToChar_m4055364664
X7b:__Z13RegisterClassI7TextureEvv
bFb:__ZN8Gradient8TransferI18StreamedBinaryReadILb1EEEEvRT_
aag:_UInt32_ToString_m554020223_AdjustorThunk
npi:_GameObject_SendMessage_m3423113156
zuj:__ZN6il2cpp6icalls8mscorlib6System4Type15MakeGenericTypeEP20Il2CppReflectionTypeP11Il2CppArray
nj:_SDL_PauseAudio
sfj:_il2cpp_class_from_type
ARd:_Array_Sort_m2323017822
COh:_Scrollbar_UpdateDrag_m3839695926
T4:__ZN9ShaderLab19CommonPropertyNames16StaticInitializeEPv
VVe:_MissingMemberException__ctor_m3710131950
JG:__ZN7mecanim9animation18CreateAvatarOutputEPKNS0_14AvatarConstantEbbRNS_6memory9AllocatorE
vgh:__Z91RuntimeInvoker_Void_t1841601450_RuntimeObject_Int32_t2071877448_RuntimeObject_RuntimeObjectPFvvEPK10MethodInfoPvPS4_
x_f:_CspParameters__ctor_m2546931874
TS:__ZN11AudioSource23VirtualRedirectTransferER24GenerateTypeTreeTransfer
Tfc:__ZN7Texture11SetWrapModeE15TextureWrapMode
U6a:__ZN14Texture2DArray23VirtualRedirectTransferER14SafeBinaryRead
iWb:__ZNK6Camera21CalculateCanDoShadowsEv
UId:_Graphic__cctor_m1643894470
lDj:__ZN6il2cpp2os6Thread12SetStackSizeEj
jMf:_X509ChainElementEnumerator_get_Current_m2232618221
lni:_DebugLogHandler_LogFormat_m2866699703
JCd:_U3COnFinishSubmitU3Ec__Iterator0_Reset_m2080388334
Mfc:__ZNK8Renderer16IsVisibleInSceneEv
UPh:_ScrollRect_set_onValueChanged_m3957749575
X2:__Z13VFormatBufferPciPKcz
iGb:__Z18Transfer_BlittableI18StreamedBinaryReadILb0EELb1EhEvRK29SerializationCommandArgumentsR31RuntimeSerializationCommandInfo
X_i:_U3CCreateWhereIteratorU3Ec__Iterator1D_1_Dispose_m1879652802_gshared
NKd:_Image_GenerateSimpleSprite_m4275440988
k9f:_UInt16_ToString_m3280699191
tta:__ZN6prcoreL27StretchGenericFloatBilinearI15TexFormatRFloatEEvPKNS_9InnerInfoE
Nz:__Z24ProcessAnimationMixBeginP35AnimationPlayableEvaluationConstantP32AnimationPlayableEvaluationInputP33AnimationPlayableEvaluationOutput
mle:_Array_IndexOf_TisCustomAttributeNamedArgument_t94157543_m745056346_gshared
wqa:__Z14PadImageBorderR14ImageReferenceii
Ckj:__ZN15dense_hashtableINSt3__24pairIK10KeyWrapperINS1_IPK10MethodInfoP11Il2CppClassEEEjEES9_17ReflectionMapHashIS8_EN14dense_hash_mapIS9_jSD_NS9_14EqualsComparerINS0_8equal_toIS8_EEEENS0_9allocatorISB_EEE9SelectKeyESI_SK_E4findERSA_
qbj:__ZN6il2cpp2vm13MetadataCache28GetFieldDefaultValueForFieldEPK9FieldInfo
uVh:_ArrayReadOnlyList_1_ReadOnlyError_m2289309720_gshared
pA:__ZN27AnimationLayerMixerPlayableD2Ev
hej:__ZN6il2cpp2vm8basepathEPKc
owf:_PKCS1_Verify_v15_m478274703
mP:__ZN12AudioManager39HandlePendingAudioConfigurationCallbackEv
Q8g:__Z119RuntimeInvoker_Int32_t2071877448_RuntimeObject_RuntimeObject_Int32_t2071877448_Int32_t2071877448_BooleanU26_t3168250738PFvvEPK10MethodInfoPvPS4_
jk:_emscripten_glIsFramebuffer
MNa:__ZN12_GLOBAL__N_16qAtan2Eff
c5d:_Convert_ToInt64_m954367741
nk:_JS_Sound_SetLoopPoints
zWd:_ArrayList__ctor_m1467563650
dU:__ZN12AudioManager17ShouldSourcePauseEb
eLj:__ZN6il2cpp2vm26MetadataAllocGenericMethodEv
Zya:__ZN19ConstantBuffersGLES12RecordRenderEv
syc:__ZN9JSONWrite8TransferI10RectOffsetEEvRT_PKc17TransferMetaFlags
bqa:__ZN4crnd12symbol_codec11decode_bitsEj
mMc:__ZN15b2CircleContact8EvaluateEP10b2ManifoldRK11b2TransformS4_
Dse:_Array_Sort_TisRaycastResult_t21186376_TisRaycastResult_t21186376_m38820193_gshared
vui:_PKCS12_EncryptedContentInfo_m938119256
uQe:_StreamReader__ctor_m3454466728
qP:__ZN4FMOD6System12createReverbEPPNS_6ReverbE
Pzi:_RectTransform_get_anchorMin_m3466802567
gA:__ZN7mecanim19ValueArrayBlendNodeILb1EEEvRKNS_10ValueArrayERKNS_14ValueArrayMaskERS1_RS4_RNS_16ValueArrayWeightEf
wib:__Z16MarkDependenciesR27GarbageCollectorThreadStatej
bOf:_X509ChainElementEnumerator_Reset_m3832280427
$Xe:_MulticastDelegate_RemoveImpl_m2024746777
vDd:_CanvasUpdateRegistry_ParentCount_m2367607495
VXe:_MulticastDelegate_Equals_m3064081489
uGe:_Activator_CreateInstance_m1465989661
Rga:__ZNK9Transform11GetPositionEv
$hi:_PositionAssertion_GetWidth_m2294218483
UTa:__ZN23SharedMeshRenderingData18UnloadVertexStreamEi
Ndc:__ZN31CanvasBatchIntermediateRenderer11AddSubBatchERK16DrawBuffersRangePK19ShaderPropertySheet
N7g:__Z99RuntimeInvoker_Void_t1841601450_RuntimeObject_Int32_t2071877448_Int32_t2071877448_Int32_t2071877448PFvvEPK10MethodInfoPvPS4_
vcc:__ZN19RenderEventsContextC2Ei
UX:__Z6simd4fRKf
Moe:_Array_InternalArray__ICollection_CopyTo_TisColor32_t874517518_m379086718_gshared
sSh:_Slider_ClampValue_m2851810895
Rk:_emscripten_glEnable
azj:__ZN6il2cpp2gc16GarbageCollector29RegisterFinalizerForNewObjectEP12Il2CppObject
nMa:__ZN10TagManager23VirtualRedirectTransferER14SafeBinaryRead
oXc:_UNITY_FT_Init_Class_ft_grays_raster
Gda:__ZN14PlayableOutput26ClearInvalidSourcePlayableEv
XYb:__Z15InitLightMeshesv
YDg:__ZL97WaitHandle_t677569169_CustomAttributesCacheGenerator_WaitHandle_t677569169____Handle_PropertyInfoP21CustomAttributesCache
tZe:_KeyValuePair_2_ToString_m1391611625_AdjustorThunk
Dn:FUNCTION_TABLE_iifiii
g4d:_Double_Parse_m1617409931
r_i:_Comparison_1_BeginInvoke_m4056757384_gshared
p4a:__ZN15QualitySettings8TransferI19StreamedBinaryWriteILb0EEEEvRT_
e0c:_cf2_arrstack_init
Hxg:__ZL65ClassInterfaceAttribute_t910653559_CustomAttributesCacheGeneratorP21CustomAttributesCache
Qij:__ZN15dense_hashtableINSt3__24pairIK10KeyWrapperINS1_IPK14Il2CppAssemblyP11Il2CppClassEEEjEES9_17ReflectionMapHashIS8_EN14dense_hash_mapIS9_jSD_NS9_14EqualsComparerINS0_8equal_toIS8_EEEENS0_9allocatorISB_EEE9SelectKeyESI_SK_E15insert_noresizeERKSB_
O1:__Z15CleanLogHandler7LogTypePKcz
Nmb:__ZN9ShaderLab19SerializedSubShader8TransferI19StreamedBinaryWriteILb0EEEEvRT_
g2f:_UTF32Encoding_GetBytes_m2290150495
tJb:__ZN6Camera17RemoveImageFilterERK11ImageFilter
Xua:__ZNSt3__218__insertion_sort_3IR25ValueParameterArraySorterPN20GpuProgramParameters14ValueParameterEEEvT0_S6_T_
bHc:__ZN10ClipperLib7Clipper27ProcessEdgesAtTopOfScanbeamEx
hLh:_LayoutUtility_GetLayoutProperty_m4052007472
Rxa:__ZNSt3__214__split_bufferI20ComputeShaderVariantRNS_9allocatorIS1_EEED2Ev
EGb:__Z18Transfer_BlittableI18StreamedBinaryReadILb0EELb1E9BoundsIntEvRK29SerializationCommandArgumentsR31RuntimeSerializationCommandInfo
QAf:_Context_set_WriteSequenceNumber_m3356252710
kGj:__ZN6il2cpp2vm13ManagedObject7GetIidsEPjPP10Il2CppGuid
D8c:__ZN2UI26InitializeDeviceForOverlayEi
yJe:_Guid_Equals_m2389236871
N3:__Z27LogRepeatingStringWithFlagsRKN4core12basic_stringIcNS_20StringStorageDefaultIcEEEE15LogMessageFlagsi
i0e:_Enumerator_MoveNext_m3483405135_gshared
yx:__ZN17AnimationPlayable28ComputeNeedsBindingRebuildedEv
Ew:__ZN17AnimationPlayable23RequestAllocateBindingsEv
qne:_Array_InternalArray__ICollection_Add_TisMonoResource_t3127387157_m2070096275_gshared
n1e:_List_1_CheckIndex_m3609163576_gshared
LLf:_X509ExtensionCollection__ctor_m1324282194
sed:__ZN18UnityConnectClient33OnPlayerSessionStateChangedStaticEPS_jyy
Btg:__ZL74CaseInsensitiveHashCodeProvider_t2307530285_CustomAttributesCacheGeneratorP21CustomAttributesCache
L_:__ZNK11UnityEngine15CloudWebService23WebRequestUploadHandler11GetProgressEv
$ma:__ZN7ApiGLES4LoadE16GfxDeviceLevelGL
l2a:__ZN18StreamedBinaryReadILb0EE21TransferSTLStyleArrayI13dynamic_arrayI31EnlightenSystemAtlasInformationLj8EEEEvRT_17TransferMetaFlags
Wpa:__ZN4crnd12crn_unpacker22decode_color_endpointsEv
hyj:__ZN15dense_hashtableI10KeyWrapperIP18Il2CppGenericClassES3_N6il2cpp8metadata22Il2CppGenericClassHashEN14dense_hash_setIS3_S6_NS3_14EqualsComparerINS5_25Il2CppGenericClassCompareEEENSt3__29allocatorIS3_EEE8IdentityESA_SD_E15insert_noresizeERKS3_
Enf:_ReadOnlyCollection_1_System_Collections_IList_Clear_m3006875897_gshared
Cbc:__ZZL31RegisterOtherRendererPropertiesR22GenericPropertyBindingEN30Wrapper_RendererReceiveShadows13GetFloatValueEPv
A0e:_Enumerator_System_Collections_IEnumerator_get_Current_m3866069145_gshared
FMb:__ZN8Material11SetPassFastEPN9ShaderLab4PassER17ShaderPassContextP6Shaderib
qed:__ZN11UnityEngine7Connect20BasePersistentValues10SaveValuesER9JSONWrite
XTi:_AudioListener_AddExtension_m2954727157
wyd:_ExecuteEvents_get_pointerDownHandler_m1172742772
RMc:__ZNSt3__27__sort4IR24RayHitsByDepthComparitorP12RaycastHit2DEEjT0_S5_S5_S5_T_
$gc:__Z14ScaleCurveTimeR17AnimationCurveTplIfEf
Oba:__ZN22VirtualJoystickManagerC2Ev
eTb:__Z12SetupLODFadeR9GfxDeviceR17ShaderPassContextf
z_a:__ZNK14PlayableOutput7GetTypeEv
yLc:__ZN26b2PolygonAndCapsuleContact6CreateEP9b2FixtureiS1_iP16b2BlockAllocator
W8g:__Z203RuntimeInvoker_Boolean_t3825574718_RuntimeObject_Int32U26_t455636984_Int32_t2071877448_Int32_t2071877448_RuntimeObject_SByte_t454417549_Int32_t2071877448_ContractionU26_t2019974048_ContextU26_t3131521781PFvvEPK10MethodInfoPvPS4_
Bui:_X501_ToString_m3328169518
KYb:__ZL24CollectForwardObjectsJobP27CollectForwardObjectsHeader
Lwh:_Enumerator_System_Collections_IDictionaryEnumerator_get_Entry_m345330700_gshared
h0b:__ZNK25CameraStackRenderingState24ResolveTempToEyeTexturesEv
H_b:__Z13IsNodeVisibleRK9SceneNodeRK4AABBRK22SceneCullingParameters
wad:__Z57RectTransformUtility_CUSTOM_INTERNAL_CALL_PixelAdjustRectP12Il2CppObjectS0_R5RectTIfE
F$b:__Z24ScheduleCullingAllGroupsR8JobFenceRK22SceneCullingParametersiRK13CullingOutputRK13dynamic_arrayIP12CullingGroupLj4EERKS_
fWf:_DelayedFixupRecord_FixupImpl_m4249966635
C1j:_emscripten_glStencilMask__wrapper
c8i:__ZN15dense_hashtableI10KeyWrapperIPK19Il2CppGenericMethodES4_N6il2cpp8metadata23Il2CppGenericMethodHashEN14dense_hash_setIS4_S7_NS4_14EqualsComparerINS6_26Il2CppGenericMethodCompareEEENSt3__29allocatorIS4_EEE8IdentityESB_SE_EC2ERKSH_j
Xye:_BigInteger_ToString_m3837784224
Cae:_Decimal_decimalCompare_m26009298
ARc:__ZN16NovodexAllocator8allocateEjPKcS1_i
jYb:__Z17PrepareShadowMapsRK11CullResultsRK11ActiveLightRK10MinMaxAABB
D3f:_NativeEventCalls_CreateEvent_internal_m1605829321
fQg:__ZL73RuntimePlatform_t1869584967_CustomAttributesCacheGenerator_MetroPlayerX64P21CustomAttributesCache
e$h:_InternalEnumerator_1_System_Collections_IEnumerator_get_Current_m3239681450_AdjustorThunk
HYb:__ZN9ShaderLab10GrabPassesD2Ev
d7a:__ZN14Texture2DArray13UploadTextureEv
DZc:_tt_cmap14_done
ngb:__ZN18AwakeFromLoadQueue25RegisterObjectInstanceIDsEv
STd:_Buffer_BlockCopy_m1586717258
JAg:__ZL93X509Certificate_t283079845_CustomAttributesCacheGenerator_X509Certificate_GetName_m2354987368P21CustomAttributesCache
uA:__ZNK27AnimationLayerMixerPlayable11DerivesFromE17ScriptingClassPtr
ETc:__ZN20TextRenderingPrivate19NativeTextGenerator15InsertCharacterEiPj
ffe:_CompareInfo_GetSortKey_m3691382873
KEc:__ZN11b2RopeJoint24SolveVelocityConstraintsERK12b2SolverData
y9d:_DBNull_ToString_m3228904745
XJf:_WebHeaderCollection_AddWithoutValidate_m1479880592
J1i:_Physics2D_Raycast_m608778191
Fwf:_RC4_get_IV_m506011366
Jvi:_X509Crl__ctor_m2469408229
Ywh:_Enumerator_get_CurrentValue_m3562053380_AdjustorThunk
GOf:_X509SubjectKeyIdentifierExtension_CopyFrom_m136762226
I_e:_Enumerator_System_Collections_IEnumerator_Reset_m610822832_AdjustorThunk
yVc:__ZN20TextRenderingPrivate15DynamicFontData21GetFontMetricsForFaceERK13dynamic_arrayIN4core17string_with_labelILi35EEELj4EEiRKS1_I4PPtrIN13TextRendering4FontEELj4EEPfSF_
yUc:_UNITY_FT_Open_Face
tZj:_glGenRenderbuffers__wrapper
Sze:_BigInteger_op_Division_m1581119694
tXf:_CallbackHandler_Invoke_m1498072969
Hid:_DSACryptoServiceProvider__ctor_m701823690
Rdg:_CustomAttributeData_GetCustomAttributes_m2421330738
HZi:_TextGenerator_GetVerticesInternal_m514005870
Xwj:__ZN30dense_hashtable_const_iteratorINSt3__24pairIK10KeyWrapperINS1_IPKcS4_EEEiEES6_24NamespaceAndNamePairHashN14dense_hash_mapIS6_iS9_NS6_14EqualsComparerI26NamespaceAndNamePairEqualsEENS0_9allocatorIS8_EEE9SelectKeyESD_SF_EppEv
f7f:_Type_get_IsEnum_m313908919
Clc:__Z44Register_UnityEngine_Component_get_transformv
_ff:_Collection_1_System_Collections_ICollection_CopyTo_m1335644572_gshared
LF:__ZN12_GLOBAL__N_120ProcessPlayableGraphERN8Animator11AnimatorJobER35AnimationPlayableEvaluationConstantR32AnimationPlayableEvaluationInputR33AnimationPlayableEvaluationOutputPFvS4_R17AnimationPlayableEPFvS4_S6_S8_EPFvS8_S4_S6_S8_fESE_MS9_FvPS3_PS5_PS7_E
R6e:_List_1_CheckMatch_m2830747427_gshared
ROb:__ZN17ArchiveFileSystem12MountArchiveEPKcS1_
xxc:__Z18Transfer_BlittableI9JSONWriteLb1E8Vector4fEvRK29SerializationCommandArgumentsR31RuntimeSerializationCommandInfo
zn:FUNCTION_TABLE_viififiii
eNa:__Z30GetScriptableCullingParametersR6CameraR27ScriptableCullingParameters
Gxh:_Enumerator_System_Collections_IEnumerator_Reset_m70453843_gshared
T2a:__ZThn32_NK8Renderer14GetSubsetIndexEi
Nte:_Dictionary_2_Do_CopyTo_TisKeyValuePair_2_t1174980068_TisRuntimeObject_m3279061992_gshared
nac:__ZN13ProduceHelperI15ResourceManagerLb0EE7ProduceE18MemLabelIdentifier18ObjectCreationMode
aka:__ZN9GfxDevice15ImmediateVertexEfff
E7b:__Z13RegisterClassI8MaterialEvv
A1a:__ZNK16LightmapSettings22GetTypeVirtualInternalEv
lMi:_WindowFunction_BeginInvoke_m87819360
mee:_FieldAccessException__ctor_m3893881490
YBc:__ZN8JSONRead21TransferSTLStyleArrayI13dynamic_arrayItLj2EEEEvRT_17TransferMetaFlags
xha:__ZN13GfxDeviceGLES15SetStencilStateEPK18DeviceStencilStatei
$ih:__Z107RuntimeInvoker_Void_t1841601450_Single_t2076509932_Single_t2076509932_Single_t2076509932_Single_t2076509932PFvvEPK10MethodInfoPvPS4_
FPj:_cycle
Hd:_emscripten_glUniform1iv
PTh:_Text_get_preferredHeight_m452532789
cLc:__ZN15b2DistanceProxy3SetEPK7b2Shapei
btd:_String_System_IConvertible_ToDouble_m3860911722
Vrb:__ZN16MemoryFileSystemD2Ev
Q3h:_InternalEnumerator_1_get_Current_m3732458101_AdjustorThunk
Zuf:_ARC4Managed__ctor_m2922048522
PTc:__Z17dynamic_pptr_castIP9Texture2D7TextureET_RK4PPtrIT0_E
rof:_ReadOnlyCollection_1_System_Collections_IList_set_Item_m1272038804_gshared
yWh:_InternalEnumerator_1_System_Collections_IEnumerator_get_Current_m1931522460_AdjustorThunk
Jpd:_SecurityPermission_IsEmpty_m1869313067
rNf:_X509CertificateCollection__ctor_m3709509050
jlc:__Z37Register_UnityEngine_Camera_get_depthv
dDe:_EncryptedPrivateKeyInfo_get_Salt_m2734354394
nqf:_ReadOnlyCollection_1_System_Collections_Generic_IListU3CTU3E_set_Item_m1918537449_gshared
nff:_Collection_1_System_Collections_ICollection_CopyTo_m3896480607_gshared
czd:_PointerEventData_set_position_m794507622
Foi:_UnityEvent_GetDelegate_m1261032859
_4b:__Z23ConvertIntegerToTypePtrItEbPvR14SafeBinaryRead
nG:__ZN7mecanim5human29HumanGetGoalOrientationOffsetENS0_4GoalE
Yd:_emscripten_glStencilFunc
pYd:_SynchronizedArrayListWrapper_get_Capacity_m2541698837
gng:_MonoMethod_MakeGenericMethod_impl_m2063853616
xrd:__Z46il2cpp_codegen_get_marshal_directive_exceptionPKc
Ynb:__ZN9ShaderLab20SerializedSubProgram14AddMatrixParamEPKcii15ShaderParamTypei
ce:_glGetActiveUniformBlockName
Nf:_emscripten_glUniform1fv
GJe:_Guid_AppendByte_m2890893073
cVd:_Char_System_IConvertible_ToType_m3106771703_AdjustorThunk
JQf:_Interval_Intersects_m3480157390_AdjustorThunk
Wnc:__Z39Quaternion_CUSTOM_INTERNAL_CALL_InverseRK11QuaternionfRS_
I8h:_GCHandle_Alloc_m1063472408
kQ:__ZN4FMOD7Channel20set3DConeOrientationEP11FMOD_VECTOR
qn:FUNCTION_TABLE_iiifii
k_f:_CryptoConfig_CreateFromName_m391442950
a1i:_RectTransformUtility_INTERNAL_CALL_PixelAdjustRect_m3338747528
lAj:__ZN6il2cpp2vm12GenericClass11SetupEventsEP11Il2CppClass
y3c:_tt_delta_interpolate
wZc:_tt_cmap12_get_info
Ovj:__ZN6il2cpp2vm15ReboxIReferenceEP14Il2CppIUnknownP11Il2CppClass
UTe:_StreamWriter_LowLevelWrite_m4205372900
D2i:__ZN6il2cpp6icalls8mscorlib6System7Decimal14decimalCompareEP19il2cpp_decimal_reprS5_
oGj:__ZThn4_N6il2cpp2vm13CachedCCWBaseINS0_13ManagedObjectEE7ReleaseEv
HZd:_CollectionBase_System_Collections_IList_get_Item_m2370387510
vse:_Array_Sort_TisCustomAttributeNamedArgument_t94157543_m3436077809_gshared
F_j:_glCopyTexImage2D__wrapper
qOd:_LayoutElement__ctor_m789941073
VPc:__ZN16PhysicsManager2D11CreateWorldERK8Vector2f
o2:__GLOBAL__sub_I_runtime_graphics_billboard_0_cpp
MMb:__Z18ClearByDrawingQuad13GfxClearFlagsRK10ColorRGBAffjR17ShaderPassContext
tbi:_DynamicPropertyCollection_FindProperty_m1233265924
Ssa:__ZN6prcoreL17RemapGenericFloatI14TexFormatRHalf15TexFormatRFloatEEvPKNS_9InnerInfoE
VSb:__Z16ShouldUseShadowsb
zda:__ZN15DirectorManager21RebuildStageCallbacksEv
ZMb:__ZN19RuntimeSceneManager9LoadSceneERKN4core12basic_stringIcNS0_20StringStorageDefaultIcEEEES6_S6_RK9UnityGUIDiNS_11LoadingModeE
aua:__ZN7ApiGLES10DrawArraysE16GfxPrimitiveTypejjj
GRi:_AudioManager_hit_m597918907
KN:__ZN10SampleClip13LoadBaseSoundEv
Bzi:_RectOffset_get_left_m1496351507
aX:__Z57AudioSource_CUSTOM_INTERNAL_CALL_ClearExtensionPropertiesP12Il2CppObjectRK12PropertyName
wv:__ZN7mecanim9animation4Clip8TransferI19StreamedBinaryWriteILb0EEEEvRT_
ozj:__ZN15dense_hashtableINSt3__24pairIK10KeyWrapperIP12Il2CppObjectEN6il2cpp2gc9CachedCCWEEES5_NS7_5utils11PointerHashIS3_EEN14dense_hash_mapIS5_S9_SD_NS5_14EqualsComparerINS0_8equal_toIS4_EEEENS0_9allocatorISA_EEE9SelectKeyESI_SK_E15insert_noresizeERKSA_
ijf:_Collection_1_Contains_m643401393_gshared
WZa:__ZN22DeviceMVPMatricesStateC2ER9GfxDevice
Vsd:_String__ctor_m372528291
$m:FUNCTION_TABLE_iifii
x5a:__ZNSt3__26vectorI13dynamic_arrayI8Vector2fLj4EENS_9allocatorIS3_EEE6assignINS_11__wrap_iterIPS3_EEEENS_9enable_ifIXaasr21__is_forward_iteratorIT_EE5valuesr16is_constructibleIS3_NS_15iterator_traitsISC_E9referenceEEE5valueEvE4typeESC_SC_
H1a:__ZN21EnlightenSceneMapping8TransferI14SafeBinaryReadEEvRT_
X$f:_Encoding_SetFallbackInternal_m1682842442
Hoi:_UnityEvent_FindMethod_Impl_m947332673
cGa:__ZNSt3__26__treeIiNS_4lessIiEE13stl_allocatorIiL18MemLabelIdentifier1ELi16EEE7destroyEPNS_11__tree_nodeIiPvEE
lc:invoke_viiifi
SWe:_LongComparer_Compare_m3981323622
xJh:_EqualityComparer_1__cctor_m3033994022_gshared
dGa:__ZNK11AssetBundle14GetPreloadDataEiR13dynamic_arrayIiLj4EE
lEe:_EncryptedData_get_EncryptedContent_m2732115576
OEi:_Vector3__ctor_m2761639014
mf:_JS_Sound_SetPosition
Efi:_Assertion_set_FalseExpression_m1781616372
COf:_X509SubjectKeyIdentifierExtension_FromHexChars_m2515150420
dWa:__ZN19RenderBufferManager13GetTempBufferEii17DepthBufferFormat19RenderTextureFormatj22RenderTextureReadWrite14VRTextureUsagei23RenderTextureMemoryless
Saj:__ZL13GetSharedInstPK17Il2CppGenericInst
nsg:__ZL51IReflect_t3412036974_CustomAttributesCacheGeneratorP21CustomAttributesCache
cBd:_StandaloneInputModule_SendSubmitEventToSelectedObject_m3421155293
Yxi:_Quaternion_Equals_m798965363_AdjustorThunk
e_b:__Z17PrepareSceneNodesP11CullResults
b0i:_Canvas_get_sortingLayerID_m137448982
fdi:_CallContextRemotingData_Clone_m2226242476
J6:__Z63ThreadAndSerializationSafeCheckSetMonoBehaviourBeingTransferredP13MonoBehaviour
NYb:__Z24SetupActiveLightsContextR21ActiveLightingContextRK12ActiveLightsRK11CullResultsP14ShadowMapCacheRK10MinMaxAABB
Cpc:__Z38Sprite_CUSTOM_INTERNAL_get_textureRectP12Il2CppObjectP5RectTIfE
v9d:_DBNull_System_IConvertible_ToUInt32_m2681284284
Xt:__ZNSt3__26vectorIN13AnimationClip15QuaternionCurveE13stl_allocatorIS2_L18MemLabelIdentifier26ELi16EEE7reserveEj
Tic:__ZN9TextAsset7SetTextERKN4core12basic_stringIcNS0_20StringStorageDefaultIcEEEE
WPa:__ZN6Camera8TransferI24GenerateTypeTreeTransferEEvRT_
jKh:_EqualityComparer_1__cctor_m416314417_gshared
Ja:invoke_iiiiiiif
Fa:invoke_iiiiiiii
VMf:_X509ChainElementCollection_Contains_m3599995067
e0b:__ZN8Renderer17PendingAddToSceneEv
x2j:b123
w2j:b122
z2j:b125
y2j:b124
B2j:b127
A2j:b126
D2j:b129
Soc:__Z52Register_UnityEngine_RectTransform_INTERNAL_get_rectv
A5:__Z21PostprocessStacktracePKcRN4core12basic_stringIcNS1_20StringStorageDefaultIcEEEE
$db:__ZN18StreamedBinaryReadILb0EE21TransferSTLStyleArrayI13dynamic_arrayI16SplashScreenLogoLj4EEEEvRT_17TransferMetaFlags
die:_Array_InternalArray__ICollection_Remove_TisX509ChainStatus_t4278378721_m4127982424_gshared
vlc:__Z47Register_UnityEngine_Camera_get_allCamerasCountv
Fid:___clang_call_terminate
Jbd:__ZN22BaseUnityConnectClient20StartEventDispatcherEv
qgc:__ZNSt3__26vectorIj13stl_allocatorIjL18MemLabelIdentifier1ELi16EEE6assignIPKtEENS_9enable_ifIXaasr21__is_forward_iteratorIT_EE5valuesr16is_constructibleIjNS_15iterator_traitsIS9_E9referenceEEE5valueEvE4typeES9_S9_
bF:__ZN7mecanim9animation16EvaluateAvatarIKEPKNS0_14AvatarConstantEPKNS0_11AvatarInputEPNS0_12AvatarOutputEPNS0_12AvatarMemoryEPNS0_15AvatarWorkspaceEb
Aua:__ZL25ProgramUniformMatrix4x3fvPK7ApiGLESjiihPKv
cQb:__ZN12InputManager13InputEndFrameEv
MFc:__ZN15b2RevoluteJointC2EPK18b2RevoluteJointDef
vrj:__ZN6il2cpp2vm6Thread5SetupEP12Il2CppThread
Crf:_ReadOnlyCollection_1_System_Collections_IList_Remove_m2200089035_gshared
iff:_Collection_1_CheckWritable_m2756357359_gshared
KQj:___munmap
LLd:_InputField_get_characterLimit_m2386380888
k_g:__ZL68ColorBlock_t2652774230_CustomAttributesCacheGenerator_m_PressedColorP21CustomAttributesCache
Q4d:_Convert_ToInt64_m1722087499
dg:_localtime_r
gg:_strftime
Swa:__ZN7Texture33SetStoredColorSpaceNoDirtyNoApplyE17TextureColorSpace
iaa:__ZN12FileAccessorD2Ev
gUa:__ZN14VertexDataInfoC2Ev
ACj:__ZN6il2cpp2gc16GarbageCollector14CollectALittleEv
PZh:_InternalEnumerator_1_get_Current_m2415979394_gshared
AEb:__ZL17Transfer_GUIStyleI18StreamedBinaryReadILb1EELb1EEvRK29SerializationCommandArgumentsR31RuntimeSerializationCommandInfo
EPh:_ScrollRect_SetDirtyCaching_m1491302821
Ldj:__ZN6il2cpp6icalls8mscorlib6SystemL9IsPrivateEPK12PropertyInfo
Tdg:_CustomAttributeData_GetCustomAttributes_m3258419955
iri:_Matrix4x4_GetColumn_m83396621
Q4:__ZN9shadertag10InitializeEv
gTb:__ZN13BatchRenderer20RenderSingleWithPassER17ShaderPassContextPK18SharedMaterialDataP6ShaderPN9ShaderLab4PassEiPKNS7_10GrabPassesEjib15BatchBreakCause
m4a:__ZN15QualitySettings14QualitySetting8TransferI24GenerateTypeTreeTransferEEvRT_
yoe:_Array_InternalArray__ICollection_CopyTo_TisParameterModifier_t1820634920_m4127516211_gshared
a$f:_DecoderReplacementFallback__ctor_m2344783488
iZe:_OutOfMemoryException__ctor_m239206850
GBi:_Sprite_get_rect_m3985037234
eId:_GraphicRegistry_UnregisterGraphicForCanvas_m820096873
$4c:__Z28Font_Get_Custom_PropMaterialP12Il2CppObject
QXg:__ZL65EventTrigger_t1967201810_CustomAttributesCacheGenerator_delegatesP21CustomAttributesCache
xgf:_Collection_1_Remove_m4136193368_gshared
Qxd:_EventTrigger_OnPointerUp_m2791622548
NRh:_Shadow_set_useGraphicAlpha_m141905402
mfc:__ZN22BlockMemoryCacheWriter14LockCacheBlockEjPPhS1_
mDj:__ZN6il2cpp2os6Thread10RunWrapperEPv
hBc:__Z22TransferField_NonArrayI8JSONRead27Converter_SimpleNativeClassI8GUIStyleEEvRK23StaticTransferFieldInfoR31RuntimeSerializationCommandInfoRT0_
Mg:_llvm_eh_typeid_for
v7b:__Z13RegisterClassI10GameObjectEvv
j9i:__ZNK15dense_hashtableINSt3__24pairIK10KeyWrapperIN6il2cpp5utils13dynamic_arrayIPK10Il2CppTypeLj4EEEEPFvvEEESA_NS3_8metadata19Il2CppSignatureHashEN14dense_hash_mapISA_SD_SG_NSA_14EqualsComparerINSF_22Il2CppSignatureCompareEEENS0_9allocatorISE_EEE9SelectKeyESK_SM_E5beginEv
Rtg:__ZL53HashValues_t2390200547_CustomAttributesCacheGeneratorP21CustomAttributesCache
FLf:_X509BasicConstraintsExtension_get_PathLengthConstraint_m3004531343
OC:__ZNK23AnimationPlayableOutput7GetTypeEv
NNi:_GUIUtility_BeginGUI_m2381890998
$Ve:_MissingMemberException__ctor_m4277447068
d2e:_List_1_Find_m1881447651_gshared
PGb:__Z18Transfer_BlittableI18StreamedBinaryReadILb0EELb1E8Vector4fEvRK29SerializationCommandArgumentsR31RuntimeSerializationCommandInfo
KBj:__ZN6il2cpp2vm6Method8GetParamEPK10MethodInfoj
JNe:_Int64_CompareTo_m1953686218
c1j:_glBindVertexArray__wrapper
uid:_DSA_Create_m3450041777
iYa:__ZN8Material8TransferI14SafeBinaryReadEEvRT_
h$a:__ZN12CubemapArray17UploadToGfxDeviceEv
eQh:_ScrollRect_AdjustBounds_m1033723448
W2b:__ZN18ScreenManagerWebGL13SetShowCursorEb
vba:__ZN13RuntimeStaticI21AssetReferenceStorageLb0EE16StaticInitializeEPv
lca:__ZN15dense_hashtableINSt3__24pairIKiiEEi21InstanceIDHashFunctorN14dense_hash_mapIiiS4_NS0_8equal_toIiEE13stl_allocatorIS3_L18MemLabelIdentifier67ELi16EEE9SelectKeyES7_SA_E14squash_deletedEv
rMf:_X509Chain_CheckRevocationOnChain_m2441901351
hGj:__ZN6il2cpp2vm13ManagedObject14QueryInterfaceERK10Il2CppGuidPPv
Lt:__ZNSt3__26vectorI24CompressedAnimationCurve13stl_allocatorIS1_L18MemLabelIdentifier26ELi16EEE6assignINS_11__wrap_iterIPS1_EEEENS_9enable_ifIXaasr21__is_forward_iteratorIT_EE5valuesr16is_constructibleIS1_NS_15iterator_traitsISB_E9referenceEEE5valueEvE4typeESB_SB_
J7f:_Type_GetMethod_m3650909507
gO:__ZN11AudioSource4StopEb
lPj:_frexp
uwb:__ZN14SafeBinaryRead21TransferSTLStyleArrayI13dynamic_arrayI10Matrix4x4fLj4EEEEvRT_17TransferMetaFlags
jkf:_Collection_1_CheckWritable_m732350052_gshared
LQa:__ZN15LODGroupManager26CollectAllLODGroupManagersERK16CoreCameraValuesR13dynamic_arrayIPS_Lj4EEb
dUd:_Byte_System_IConvertible_ToDecimal_m1036493607
uMb:__Z25GetSplashScreenBackgroundRK5RectTIfE
WXh:_InternalEnumerator_1_System_Collections_IEnumerator_get_Current_m1679297177_gshared
A5h:_DefaultComparer_Compare_m1247109616_gshared
$6h:_ResourceManager__ctor_m498829021
Gza:__ZN18GlslGpuProgramGLESD2Ev
u2b:__ZN13RenderTexture14SetVolumeDepthEi
Cqh:__Z88RuntimeInvoker_Int32_t2071877448_UIVertex_t1204258818_UIVertex_t1204258818_RuntimeObjectPFvvEPK10MethodInfoPvPS4_
uXf:_SerializationCallbacks__ctor_m722356782
NBc:__ZN10Matrix4x4f8TransferI8JSONReadEEvRT_
CSc:__ZN14SafeBinaryRead21TransferSTLStyleArrayI13dynamic_arrayIN4core17string_with_labelILi35EEELj4EEEEvRT_17TransferMetaFlags
hKc:__ZThn4_N16PhysicsManager2D9PostSolveEP9b2ContactPK16b2ContactImpulse
x6:__ZN17PersistentManager18ReadObjectThreadedEi
Sla:__ZN25TransformFeedbackSkinning31CleanupTransformFeedbackShadersEv
AQa:__Z22scripting_object_unbox18ScriptingObjectPtr
GTc:__ZNK20TextRenderingPrivate8FontImpl19GetCharacterAdvanceEjijfPj
oMj:__ZN6il2cpp6icalls8mscorlib4Mono8Security12Cryptography18KeyPairPersistence16_IsUserProtectedEP12Il2CppString
dIf:_DefaultUriParser__ctor_m4218024811
qfg:_DerivedType_GetField_m3960169619
X9d:_Decimal_System_IConvertible_ToInt16_m3159038792_AdjustorThunk
a6a:__ZN10VertexData8TransferI18StreamedBinaryReadILb0EEEEvRT_
QEe:_PKCS12_GetExistingParameters_m2413397265
b$i:_Nullable_1_get_Value_m1743067844_gshared
Zfb:__ZN14PreloadManager16UpdatePreloadingEv
FDj:__ZN14dense_hash_mapI10KeyWrapperIPK19Il2CppGenericMethodEP10MethodInfoN6il2cpp8metadata23Il2CppGenericMethodHashENS4_14EqualsComparerINS8_26Il2CppGenericMethodCompareEEENSt3__29allocatorINSD_4pairIKS4_S6_EEEEEC2EjRKS9_RKSC_
bmi:_Color32_op_Implicit_m3337994915
B0:__ZNK21UnityDefaultAllocatorI17LowLevelAllocatorE8ContainsEPKv
Wh:_emscripten_get_main_loop_timing
aQe:_DirectoryInfo__ctor_m3750996792
tCd:_BaseMeshEffect_ModifyMesh_m2134816219
l4a:__ZN24GenerateTypeTreeTransfer21TransferSTLStyleArrayINSt3__26vectorIN15QualitySettings14QualitySettingENS1_9allocatorIS4_EEEEEEvRT_17TransferMetaFlags
dcb:__ZNSt3__26vectorI9InputAxisNS_9allocatorIS1_EEE6resizeEj
nTb:__ZN13BatchRendererC2ER15RenderLoopStatsRK15RenderNodeQueuebbb
Qpd:_SecurityElement_IsValidAttributeValue_m483287146
mpb:__ZNK2UI13RectTransform22GetTypeVirtualInternalEv
jp:getTempRet0
VKd:_Image_AddQuad_m1603575622
Awf:_PrivateKeyInfo_RemoveLeadingZero_m3396807048
Usj:__ZN6il2cpp6icalls8mscorlib6System9ThreadingL21lookup_cached_cultureEP12Il2CppThreadi
GZb:__ZN18DeferredRenderLoopD2Ev
vCa:__ZNK16TypeTreeIterator4NameEv
pTi:_PCMReaderCallback_Invoke_m877950113
I9:__ZN15FileSystemEntry3SetEPKc
bgj:_il2cpp_method_has_attribute
okd:_MACTripleDES__ctor_m884945242
MAi:_RenderTexture_get_height_m428170183
_Mi:_GUILayoutGroup_SetHorizontal_m4089360220
VP:__ZN20SoundChannelInstance15ParameterBuffer5ApplyEPN4FMOD7ChannelE
DTc:__ZN20TextRenderingPrivate19NativeTextGenerator9InsertTabEv
ps:__ZN15SerializeTraitsI13dynamic_arrayIN11UnityEngine9Animation14GenericBindingELj4EEE19ResizeSTLStyleArrayERS4_i
s8a:__ZN14SafeBinaryRead21TransferSTLStyleArrayI13dynamic_arrayI16BlendShapeVertexLj4EEEEvRT_17TransferMetaFlags
icd:__ZN11UnityEngine15PlatformWrapper24GetRuntimePlatformStringEv
Fi:_glIsEnabled
kvb:__Z25scripting_class_get_image17ScriptingClassPtr
Mwi:_PlayableAsset_Internal_CreatePlayable_m2166162235
Hfb:__ZNSt3__26vectorIN4core12basic_stringIcNS1_20StringStorageDefaultIcEEEE13stl_allocatorIS5_L18MemLabelIdentifier13ELi16EEEC2INS_11__wrap_iterIPS5_EEEET_SE_RKS8_PNS_9enable_ifIXaasr21__is_forward_iteratorISE_EE5valuesr16is_constructibleIS5_NS_15iterator_traitsISE_E9referenceEEE5valueEvE4typeE
Ji:_emscripten_glDrawElementsInstanced
EB:__ZN26AnimatorControllerPlayable27SetupStateMachineBehavioursEv
avf:_ARC4Managed_Dispose_m4102232694
uvf:_HMAC_Initialize_m3052649104
nSa:__ZN18JobBatchDispatcherD2Ev
hpb:__ZN9Transform17MainThreadCleanupEv
MIj:_GC_clear_hdr_marks
bYj:_glScissor__wrapper
_1j:_emscripten_glCreateShader__wrapper
K$c:_cff_fd_select_get
vxg:__ZL73CompilationRelaxationsAttribute_t238494011_CustomAttributesCacheGeneratorP21CustomAttributesCache
$K:__Z13RegisterClassI18AnimatorControllerEvv
Rwe:_MSCompatUnicodeTable_GetTailoringInfo_m2792223347
tHf:_NameObjectCollectionBase_get_Keys_m446053925
Ui:_emscripten_glGetShaderiv
VQ:__ZN4FMOD6System10getVersionEPj
eme:_Array_InternalArray__IndexOf_TisSByte_t454417549_m1427585061_gshared
L5c:__ZN2UI6Canvas23VirtualRedirectTransferER24GenerateTypeTreeTransfer
L1d:_Decimal_u64_m3991988111
E$i:_Predicate_1_BeginInvoke_m2959352225_gshared
Sti:_X509Certificate_Parse_m1764345628
pzc:__ZN9JSONWrite8TransferIN4math12int2_storageEEEvRT_PKc17TransferMetaFlags
oSc:__ZN13TextRendering4Font13AwakeFromLoadE17AwakeFromLoadMode
Sqi:_Mathf_Pow_m1117712374
Tkh:__Z70RuntimeInvoker_Void_t1841601450_Guid_t_RuntimeObject_Int32_t2071877448PFvvEPK10MethodInfoPvPS4_
Hia:__ZN9GfxDevice21ReleaseSharedMeshDataEP14SharedMeshData
Ucb:__ZNSt3__27__sort5IRNS_6__lessINS_4pairIPKN5Unity4TypeE7Hash128EES8_EEPS8_EEjT0_SC_SC_SC_SC_T_
qhf:_Collection_1_ConvertItem_m3168406667_gshared
THj:_GC_unreachable_finalize_mark_proc
TFi:_WaitForSecondsRealtime_get_keepWaiting_m4138104467
eoh:__Z70RuntimeInvoker_Single_t2076509932_Int32_t2071877448_Single_t2076509932PFvvEPK10MethodInfoPvPS4_
Koc:__Z43RectTransform_CUSTOM_INTERNAL_get_anchorMaxP12Il2CppObjectP13Vector2fIcall
G6g:__Z50RuntimeInvoker_Void_t1841601450_Single_t2076509932PFvvEPK10MethodInfoPvPS4_
W8d:_DateTimeOffset_get_DateTime_m229084964_AdjustorThunk
s1a:__ZN8Material28UpdateHashesOnPropertyChangeEN9ShaderLab16FastPropertyNameE
upc:__Z53Register_UnityEngine_SortingLayer_GetLayerValueFromIDv
wPe:_DirectoryInfo_get_Parent_m1198766078
lZd:_CaseInsensitiveComparer_Compare_m1192858479
cub:__Z18Transfer_BlittableI14SafeBinaryReadLb1E8Vector4fEvRK29SerializationCommandArgumentsR31RuntimeSerializationCommandInfo
oPd:_LayoutRebuilder_Clear_m2390054824
Tka:__ZN13GfxDeviceGLES20SetComputeBufferDataE15ComputeBufferIDPKvjj
Ddg:_Default_SelectMethod_m622251293
XS:__ZN11AudioSource12AddToManagerEv
fyd:_ExecuteEvents_Execute_m1429058057
jD:__ZN11UnityEngine9Animation32CreateAnimatorGenericBindingsOptERKNS0_20AnimationSetBindingsER9TransformPKN7mecanim9animation14AvatarConstantEPKNS0_21AvatarBindingConstantEbRNS6_6memory9AllocatorER8Animator
uwj:__ZN6il2cpp2vm5Image13ClassFromNameEPK11Il2CppImagePKcS6_
fUj:dynCall_vdddddd
o5:__ZL32MarkLevelGameManagerDependenciesR27GarbageCollectorThreadState
_ka:__ZNK13GfxDeviceGLES26HasActiveRandomWriteTargetEv
UYj:_glGetActiveUniformsiv__wrapper
rpc:__Z43Register_UnityEngine_Material_EnableKeywordv
F7:__ZN13MonoBehaviour19SetupScriptingCacheE17ScriptingClassPtrP10MonoScript
tr:__Z20AnimationEventToMonoRK14AnimationEventR18MonoAnimationEvent
V6:__ZN17PersistentManager29ReadAndActivateObjectThreadedEiRK26SerializedObjectIdentifierP14SerializedFilebb
gzh:_ShimEnumerator_get_Current_m3610131784_gshared
jRg:__ZL74UnityEventBase_t828812576_CustomAttributesCacheGenerator_m_PersistentCallsP21CustomAttributesCache
aea:__ZZN15DirectorManager15InitializeClassEvEN52PreLateUpdateDirectorUpdateAnimationBeginRegistrator7ForwardEv
Suj:__ZN6il2cpp2vm13LivenessState18ShouldProcessValueEP12Il2CppObjectP11Il2CppClass
Pvh:__Z49RuntimeInvoker_UIVertex_t1204258818_RuntimeObjectPFvvEPK10MethodInfoPvPS4_
PJ:__ZN7mecanim12statemachine13StateConstant8TransferI18StreamedBinaryReadILb0EEEEvRT_
hri:_Matrix4x4_GetHashCode_m375571566
SGi:_InvokableCall_1__ctor_m1584932671_gshared
ulb:__ZNSt3__26vectorIN9ShaderLab14SerializedPassENS_9allocatorIS2_EEE8__appendEj
Lkb:__ZNSt3__26vectorIN9ShaderLab20SerializedSubProgram13BufferBindingENS_9allocatorIS3_EEEC2INS_11__wrap_iterIPS3_EEEET_SB_RKS5_PNS_9enable_ifIXaasr21__is_forward_iteratorISB_EE5valuesr16is_constructibleIS3_NS_15iterator_traitsISB_E9referenceEEE5valueEvE4typeE
ZJc:__ZNK16PhysicsManager2D21GetAutoSyncTransformsEv
rFc:__ZN12b2WheelJoint24SolveVelocityConstraintsERK12b2SolverData
moh:__Z133RuntimeInvoker_RuntimeObject_Vector2_t2243707579_Vector2_t2243707579_Single_t2076509932_Int32_t2071877448_RuntimeObject_RuntimeObjectPFvvEPK10MethodInfoPvPS4_
$0a:__ZN9Texture2D23VirtualRedirectTransferER18StreamedBinaryReadILb0EE
jIc:__ZN10Collider2D8TransferI24GenerateTypeTreeTransferEEvRT_
oce:_Double_System_IConvertible_ToUInt16_m286326038_AdjustorThunk
CVf:_TypeInfo__ctor_m1475908211
bTg:__ZL73g_UnityEngine_TextRenderingModule_Assembly_CustomAttributesCacheGeneratorP21CustomAttributesCache
m8:__ZN16ScriptingManager27NativeTypeForScriptingClassE17ScriptingClassPtr
sMf:_X509Chain_WrapUp_m1072032285
lvi:_X509CertificateEnumerator_System_Collections_IEnumerator_MoveNext_m1448966539
QYc:_get_sfnt_table
Wff:_Collection_1_IsSynchronized_m3261594010_gshared
ezd:_PointerEventData_set_pressPosition_m2094137883
I_f:_DES_get_Key_m2584608215
$_b:__ZL22ScheduleSceneNodesJobsP25ScheduleSceneNodesJobDataj
Ik:_emscripten_set_canvas_size
E_d:_Hashtable__ctor_m741952536
blb:__ZNSt3__26vectorIN9ShaderLab20SerializedSubProgramENS_9allocatorIS2_EEE8__appendEj
j1:__ZN20DynamicHeapAllocatorI17LowLevelAllocatorE8AllocateEji
OTb:__ZN20DynamicPropertySheet15SetVectorQueuedERKN9ShaderLab16FastPropertyNameERK8Vector4fN19ShaderPropertySheet8SetFlagsE
Bud:_String_Format_m1263743648
kpf:_ReadOnlyCollection_1_System_Collections_IEnumerable_GetEnumerator_m4248982967_gshared
lE:__ZN7mecanim9animation22EvaluateAvatarRetargetEPKNS0_14AvatarConstantEPKNS0_11AvatarInputEPNS0_12AvatarOutputEPNS0_12AvatarMemoryEPNS0_15AvatarWorkspaceEb
dVa:__ZN14RenderSettings23VirtualRedirectTransferER19StreamedBinaryWriteILb0EE
Oxc:__ZL26Transfer_SimpleNativeClassI9JSONWrite10RectOffsetLb0EEvRK29SerializationCommandArgumentsR31RuntimeSerializationCommandInfo
e8a:__ZN14SafeBinaryRead21TransferSTLStyleArrayI13dynamic_arrayI12BoneWeights4Lj16EEEEvRT_17TransferMetaFlags
lIj:_GC_push_conditional
$oa:__ZN17GenericDynamicVBO10AllocateVBEjR21DynamicVBOChunkHandle
u3e:_List_1_get_Item_m1547593893_gshared
NPe:_Path_GetPathRoot_m1269357080
Vxj:__ZN30dense_hashtable_const_iteratorI10KeyWrapperIP18Il2CppGenericClassES3_N6il2cpp8metadata22Il2CppGenericClassHashEN14dense_hash_setIS3_S6_NS3_14EqualsComparerINS5_25Il2CppGenericClassCompareEEENSt3__29allocatorIS3_EEE8IdentityESA_SD_EppEv
txd:_EventSystem_SetSelectedGameObject_m2211816110
gl:_glMapBufferRange
T0a:__ZN9Texture2D8TransferI18StreamedBinaryReadILb0EEEEvRT_
onc:__Z31Input_CUSTOM_GetMouseButtonDowni
Doc:__Z75Register_UnityEngine_Playables_PlayableHandle_INTERNAL_CALL_IsValidInternalv
gec:__ZN13PlayableGraph4PlayEv
GLa:__ZNK9Transform16GetLocalPositionEv
zFa:__ZN13LoadOperation19IntegrateTimeSlicedEi
hVh:_ArrayReadOnlyList_1_get_Item_m176001975_gshared
vFe:_X501__cctor_m3795360380
jla:__ZN13GfxDeviceGLES22DispatchComputeProgramE12ObjectHandleI18ComputeProgram_TagPvE15ComputeBufferIDj
Mr:__ZNK13AnimationClip15GetAverageSpeedEv
J4d:_Convert_ToInt32_m2297793940
whb:__Z17TransformAABBSlowRK4AABBRK10Matrix4x4fRS_
fpj:__ZN13Il2CppHashMapINSt3__24pairIPK9FieldInfoP11Il2CppClassEEj17ReflectionMapHashIS7_ENS0_8equal_toIS7_EENS0_9allocatorINS1_IK10KeyWrapperIS7_EjEEEEEC2EjRKS9_RKSB_
Mjb:__ZN9ShaderLab21SerializedShaderState8TransferI14SafeBinaryReadEEvRT_
rRj:_ftruncate
Tmd:_RSAPKCS1SignatureFormatter_SetKey_m2365816458
F0c:_cf2_stack_pushInt
sxi:_PropertyName__ctor_m4147171238_AdjustorThunk
s3f:_CompressedStack__ctor_m276924800
Iyd:_ExecuteEvents_get_cancelHandler_m1964324668
XYa:__ZN15SerializeTraitsINSt3__24pairIN4core12basic_stringIcNS2_20StringStorageDefaultIcEEEES6_EEE8TransferI24GenerateTypeTreeTransferEEvRS7_RT_
l$j:b89
k$j:b88
Kqi:_Mathf_Sin_m712860563
swi:_Vector3_Dot_m827632793
K_j:b81
D_j:b80
gxa:__ZN7ApiGLES19CreateSparseTextureEjj14GraphicsFormatiiiiRiS1_S1_
Y8:__ZN18ResourceImageGroup7CleanupEv
__j:b85
T_j:b84
j$j:b87
$_j:b86
wsh:__Z68RuntimeInvoker_Void_t1841601450_Int32_t2071877448_Double_t4078015681PFvvEPK10MethodInfoPvPS4_
mcc:__ZN13ProduceHelperI4MeshLb0EE7ProduceE18MemLabelIdentifier18ObjectCreationMode
ywf:_PrivateKeyInfo_Decode_m1053025782
yEe:_PKCS12_Decrypt_m2457743414
n_a:__ZN8Playable19SetOutputConnectionEPS_i
p6i:__ZN15dense_hashtableINSt3__24pairIK10KeyWrapperIPK11Il2CppClassEPKcEES6_N6il2cpp5utils11PointerHashIS3_EEN14dense_hash_mapIS6_S9_SE_NS6_14EqualsComparerINS0_8equal_toIS5_EEEENS0_9allocatorISA_EEE9SelectKeyESJ_SL_EC2ERKSO_j
Vl:_glDeleteShader
eee:_Exception_GetType_m3898489832
_sa:__ZN6prcoreL17RemapGenericFloatI15TexFormatRGHalf16TexFormatRGFloatEEvPKNS_9InnerInfoE
$cf:_Stack_1_Peek_m1548778538_gshared
YMi:_GUILayoutUtility_get_spaceStyle_m4248899869
KRh:_Shadow_set_effectColor_m3110056844
Zic:__Z27scripting_add_internal_callPKcPKv
Qpe:_Array_InternalArray__Insert_TisUriScheme_t1876590943_m2728325409_gshared
Roj:__ZN13Il2CppHashMapINSt3__24pairIPK9EventInfoP11Il2CppClassEEj17ReflectionMapHashIS7_ENS0_8equal_toIS7_EENS0_9allocatorINS1_IK10KeyWrapperIS7_EjEEEEEC2EjRKS9_RKSB_
yvi:_X509Store_CheckStore_m1027496478
Hw:__ZN26AnimatorControllerPlayable18SetLayerAutoWeightEv
bbd:__Z44Register_UnityEngine_Canvas_get_pixelPerfectv
kud:_String_Contains_m4017059963
g5h:_DefaultComparer_Compare_m1606207039_gshared
o8c:__ZN2UI14CanvasRenderer12SyncMaterialENS0_8SyncFlagE
gMj:__ZN6il2cpp2vm9Parameter30GetDefaultParameterValueObjectEPK10MethodInfoPK13ParameterInfoPb
n2i:_Rigidbody2D_set_velocity_m2161463521
Fqe:_Array_InternalArray__set_Item_TisLabelData_t3712112744_m2253365137_gshared
$Te:_StringReader__ctor_m643998729
WIf:_IPv6Address_TryParse_m2220524278
rv:__ZN14AnimationEvent8TransferI19StreamedBinaryWriteILb0EEEEvRT_
GYc:_UNITY_tt_face_done_kern
kbi:_Context_get_DefaultContext_m2211922324
I8a:__ZN12BoneWeights48TransferI24GenerateTypeTreeTransferEEvRT_
Pwf:_RSAManaged_GetPaddedValue_m2972141669
tQh:_ScrollRect_OnDrag_m1424848249
PLb:__Z19scripting_gc_enablev
jPb:__ZZ23InitPlayerLoopCallbacksvEN41InitializationPlayerUpdateTimeRegistrator7ForwardEv
vgi:_AnchorInfo__ctor_m617409099
cad:__Z55Register_UnityEngine_CanvasRenderer_DisableRectClippingv
NQf:_Interval_CompareTo_m2909556284_AdjustorThunk
f8a:__ZN14SafeBinaryRead21TransferSTLStyleArrayI13dynamic_arrayI11ColorRGBA32Lj4EEEEvRT_17TransferMetaFlags
EPf:_Interpreter_GetLastDefined_m2450713313
Ofi:_Parser_ParseAssertionType_m3316669790
Hnb:__ZN9ShaderLab7Program27CreateFromSerializedProgramERKNS_17SerializedProgramE10ShaderTypeiP16PropertyNamesSetPK6Shader
lRh:_Selectable_get_isPointerDown_m774209881
bpb:__ZNSt3__27__sort4IRNS_6__lessIN4core12basic_stringIcNS2_20StringStorageDefaultIcEEEES6_EEPS6_EEjT0_SA_SA_SA_T_
MUj:dynCall_viiiifii
tnj:__ZN6il2cpp2gc19AppendOnlyGCHashMapINSt3__24pairIPK11Il2CppImageP11Il2CppClassEEP22Il2CppReflectionModule17ReflectionMapHashIS9_ENS2_8equal_toIS9_EEEC2Ev
PJj:_GC_is_disabled
u6:__Z20GetPersistentManagerv
K3c:_UNITY_TT_Set_Var_Design
$2:__ZN21SystemInfoStringCache16StaticInitializeEPv
kyf:_TlsStream__ctor_m4117943603
gkj:__ZN15dense_hashtableINSt3__24pairIK10KeyWrapperIPK10Il2CppTypeEjEES6_N6il2cpp8metadata14Il2CppTypeHashEN14dense_hash_mapIS6_jSB_NS6_14EqualsComparerINSA_26Il2CppTypeEqualityComparerEEENS0_9allocatorIS8_EEE9SelectKeyESF_SH_E12maybe_shrinkEv
aTh:_Text_FontTextureChanged_m4236993972
KCj:__ZN6il2cpp2gc16GarbageCollector23MakeDescriptorForObjectEPji
log:_ParameterModifier_t1820634920_marshal_pinvoke
bJb:__ZNK13MonoBehaviour7GetNameEv
Cib:__ZN19ScriptingInvocation28AdjustArgumentsToMatchMethodEv
fyj:__ZN15dense_hashtableI10KeyWrapperIP18Il2CppGenericClassES3_N6il2cpp8metadata22Il2CppGenericClassHashEN14dense_hash_setIS3_S6_NS3_14EqualsComparerINS5_25Il2CppGenericClassCompareEEENSt3__29allocatorIS3_EEE8IdentityESA_SD_E6insertERKS3_
JN:__Z15_CheckFMODError11FMOD_RESULTPKciS1_
sTa:__Z20RenderMultipleMeshesRK15RenderNodeQueueRK18RenderMultipleData17ShaderChannelMask
oij:__ZN6il2cpp2vm4Type19GetGenericParameterEPK10Il2CppType
E9c:__Z51Register_UnityEngine_CanvasGroup_get_blocksRaycastsv
B3h:_InternalEnumerator_1_get_Current_m2826780083_gshared
The:_Array_InternalArray__ICollection_Remove_TisCustomAttributeNamedArgument_t94157543_m2838387005_gshared
wd:_glBeginQuery
xcg:_Assembly_GetCustomAttributes_m95309865
aJ:__ZN18AnimatorController19TransferRuntimeDataI24GenerateTypeTreeTransferEEvRT_
aQc:__ZN10Effector2D25CheckEffectorColliderMaskEP10Collider2DS1_
HQb:__ZN6Camera12RenderStereoENS_10RenderFlagE8CullFlagPNS_24PerformEyeRenderFunctionE
qrb:__ZN20LocalFileSystemPosix10ToAbsoluteEPKc
fTa:__ZN20TierGraphicsSettings8TransferI19StreamedBinaryWriteILb0EEEEvRT_
u2:__GLOBAL__sub_I_runtime_input_0_cpp
xde:_Enum_ToObject_m275924358
Cm:f0
rXd:_ArrayListWrapper_set_Capacity_m2792463350
gQj:_getcwd
w1f:_StringBuilder_Append_m1128243247
uLc:__ZN16b2CapsuleContact6CreateEP9b2FixtureiS1_iP16b2BlockAllocator
JEa:__ZN25ThreadsafeLinearAllocatorD2Ev
x6d:_DateTime_get_Year_m1985210972
Rgb:__Z21SendMessageToEveryoneRK17MessageIdentifier11MessageData
dca:__ZN21BillboardBatchManager16StaticInitializeEPv
s4:__ZN12_GLOBAL__N_138ArchiveRedirectFileSystemStaticDestroyEPv
Xde:_EventHandler_Invoke_m1137722757
e$a:__ZN12CubemapArray34UpdateFileTextureUploadInstructionEP26FileAssetUploadInstructionj
wXe:_MonoType_IsSubclassOf_m2211166238
Lgf:_Collection_1_System_Collections_ICollection_CopyTo_m2859266050_gshared
fxa:__Z23CreateSparseTextureGLES9TextureIDii14GraphicsFormati
WIj:_GC_continue_reclaim
JOe:_InvalidCastException__ctor_m2730571470
ZNf:_X509ChainElementCollection_System_Collections_IEnumerable_GetEnumerator_m2559704689
nLf:_PublicKey_get_Key_m126090744
wUc:__ZNSt3__23mapIN20TextRenderingPrivate7FontRefEP11FT_FaceRec_NS_4lessIS2_EENS_9allocatorINS_4pairIKS2_S4_EEEEEixERS9_
YGa:__ZN17ArchiveFileSystem10AddStorageEP20ArchiveStorageReader
Ksi:_Object_INTERNAL_CALL_Internal_InstantiateSingle_m846595043
s5d:_Convert_ToSingle_m690748777
rEc:__ZNK12b2MotorJoint16GetReactionForceEf
b6e:_List_1_RemoveAll_m4125997475_gshared
jJh:_EqualityComparer_1_System_Collections_IEqualityComparer_GetHashCode_m1203798961_gshared
C4i:__ZN6il2cpp2vm5Class15GetEnumBaseTypeEP11Il2CppClass
h0a:__ZNK9Texture2D16GetNpotTexelSizeEv
zLh:_Mask_get_rectTransform_m3304369086
Ukh:__Z78RuntimeInvoker_Void_t1841601450_ScriptableRenderContext_t4271526_RuntimeObjectPFvvEPK10MethodInfoPvPS4_
epa:__ZN9GfxDevice22GetDefaultVertexBufferE26GfxDefaultVertexBufferTypej
QBi:_SpriteRenderer_set_sprite_m3307887080
Hof:_ReadOnlyCollection_1_System_Collections_ICollection_CopyTo_m1129689124_gshared
yQj:___fseeko_unlocked
N_j:_glGetActiveUniform__wrapper
qQj:_sscanf
u8a:__ZN14SafeBinaryRead21TransferSTLStyleArrayINSt3__26vectorI17BlendShapeChannelNS1_9allocatorIS3_EEEEEEvRT_17TransferMetaFlags
PMb:__Z17BeginSplashScreenv
Lmb:__ZN9ShaderLab16SerializedShader8TransferI19StreamedBinaryWriteILb0EEEEvRT_
c9f:_UInt32_Parse_m2400360707
GG:__ZN7mecanim9animation18CreateAvatarMemoryEPKNS0_14AvatarConstantERNS_6memory9AllocatorE
Y0d:_Stack_Pop_m3788808882
$wh:_Enumerator_VerifyCurrent_m4246196125_AdjustorThunk
w8d:_DateTime_op_Equality_m1867073872
vF:__ZN7mecanim8skeleton16SkeletonPoseCopyIN4math4trsXENS2_7affineXEEEvPKNS0_13SkeletonPoseTIT_EEPNS5_IT0_EE
Loa:__ZN18GfxFramebufferGLES18GetFramebufferNameERK20GfxRenderTargetSetup
duc:__Z30Event_Get_Custom_PropCharacterP12Il2CppObject
vda:__ZN13PlayableGraph27SchedulePlayableDestructionERK9HPlayable
XXj:_glGetFramebufferAttachmentParameteriv__wrapper
ggd:__Z13RegisterClassI20UnityConnectSettingsEvv
hvb:__Z22scripting_array_length17ScriptingArrayPtr
Mpd:_SecurityElement_GetAttribute_m4288291176
TJi:_IndexedSet_1_get_Count_m2839545138_gshared
s$a:__ZN14SafeBinaryRead20TransferTypelessDataEjPvi
yxg:__ZL66StringFreezingAttribute_t2691375565_CustomAttributesCacheGeneratorP21CustomAttributesCache
xab:__ZN14SpriteRenderer18UpdateCachedSpriteEb
mU:__ZN13dynamic_arrayI12SoundChannelLj4EE9push_backERKS0_
Gwa:__Z19GetActiveColorSpacev
CJh:_EqualityComparer_1__cctor_m1672307556_gshared
_Tf:_SoapTypeAttribute_get_IsInteropXmlElement_m2941294827
ZXc:_UNITY_tt_face_load_kern
e0e:_Enumerator_System_Collections_IEnumerator_get_Current_m3542273247_gshared
IVd:_Char_System_IConvertible_ToUInt32_m1557991717_AdjustorThunk
B0f:_Encoding_get_UTF8Unmarked_m628720656
BLe:_NumberFormatter_RoundBits_m1545255255
M3:__Z6StrCmpPKcS0_
pob:__Z21CheckGpuProgramUsable20ShaderGpuProgramType
mdg:_Binder__cctor_m3736115807
TBj:__ZN6il2cpp2os9Directory20GetFileSystemEntriesERKNSt3__212basic_stringIcNS2_11char_traitsIcEENS2_9allocatorIcEEEESA_iiPi
yqh:__Z84RuntimeInvoker_Int32_t2071877448_Color32_t874517518_Color32_t874517518_RuntimeObjectPFvvEPK10MethodInfoPvPS4_
OGh:_Dictionary_2_OnDeserialization_m2160537783_gshared
vTc:__ZN20TextRenderingPrivate19NativeTextGenerator5SetupEv
mYb:__ZNK15SharedLightData24GetFinalShadowResolutionEv
Ydb:__ZN12AspectRatios8TransferI18StreamedBinaryReadILb0EEEEvRT_
Hdc:__ZN10GameObject14CopyPropertiesERS_
Tuc:__Z44Register_UnityEngine_GUIStyle_get_fixedWidthv
rmd:_RSACryptoServiceProvider_Common_m2581564813
_ti:_X509CertificateEnumerator_MoveNext_m4060814498
sAi:_Vector2_Scale_m2260641886
$Re:_MemoryStream_CheckIfClosedThrowDisposed_m2253054610
FVh:_ArrayReadOnlyList_1_GetEnumerator_m634288642_gshared
_4a:__ZNK13ScreenManager12IsFullScreenEv
TQj:_rand
yYj:_emscripten_glFramebufferRenderbuffer__wrapper
pkh:__Z72RuntimeInvoker_Boolean_t3825574718_Ray_t2469606224_SingleU26_t4173844468PFvvEPK10MethodInfoPvPS4_
sCj:__ZN6il2cpp5utils9PathUtils7CombineIcEENSt3__212basic_stringIT_NS3_11char_traitsIS5_EENS3_9allocatorIS5_EEEERKNS0_10StringViewIS5_EERKSA_
dwb:__ZN14SafeBinaryRead21TransferSTLStyleArrayINSt3__26vectorI17AnimationCurveTplIfE13stl_allocatorIS4_L18MemLabelIdentifier1ELi16EEEEEEvRT_17TransferMetaFlags
QWf:_ObjectManager_RegisterObject_m872610295
K_b:__Z22PrepareOptimizedPlanesPK5PlaneiPKN4math7_float4E
uzi:_RectOffset_t3387826427_marshal_pinvoke
$Hd:_Graphic_SetVerticesDirty_m1607014370
Z$:__ZN11UnityEngine15CloudWebService17WebFileDownloaderINS0_20WebRequestRestClientENS0_23WebRequestRestHeaderMapEE10InitializeERKN4core12basic_stringIcNS5_20StringStorageDefaultIcEEEE
bca:__ZN17UniqueIDGenerator15CreatePureIndexEv
_v:__ZN11UnityEngine9Animation28GenericAnimationBindingCache15DidReloadDomainEv
IGe:_AppDomain_InternalGetProcessGuid_m1278588156
oNd:_InputField_MoveRight_m386206014
Neb:__ZNSt3__26vectorIN15ResourceManager10DependencyE13stl_allocatorIS2_L18MemLabelIdentifier52ELi16EEE6assignINS_11__wrap_iterIPS2_EEEENS_9enable_ifIXaasr21__is_forward_iteratorIT_EE5valuesr16is_constructibleIS2_NS_15iterator_traitsISC_E9referenceEEE5valueEvE4typeESC_SC_
rK:__ZN19StreamedBinaryWriteILb0EE8TransferIN7mecanim9animation23BlendDirectDataConstantEEEvRT_PKc17TransferMetaFlags
F7g:__Z116RuntimeInvoker_Boolean_t3825574718_RuntimeObject_Int32_t2071877448_RuntimeObject_Int32_t2071877448_Int32_t2071877448PFvvEPK10MethodInfoPvPS4_
dPe:_BinaryReader_ReadBoolean_m2892291883
S3i:__ZN15dense_hashtableINSt3__24pairIK10KeyWrapperIPK22Il2CppGenericParameterEP11Il2CppClassEES6_N6il2cpp5utils11PointerHashIS4_EEN14dense_hash_mapIS6_S9_SE_NS6_14EqualsComparerINS0_8equal_toIS5_EEEENS0_9allocatorISA_EEE9SelectKeyESJ_SL_E14squash_deletedEv
gGc:__ZNK12b2MouseJoint17GetReactionTorqueEf
nsc:__Z14GUIClipTextureP9Texture2DPhiiii
Vt:__ZN14SafeBinaryRead21TransferSTLStyleArrayI13dynamic_arrayI11KeyframeTplI11QuaternionfELj4EEEEvRT_17TransferMetaFlags
o3i:_AnimatorControllerPlayable__ctor_m4080566273
iCf:_TlsServerCertificate_validateCertificates_m1988583701
uNa:__ZNK9Transform18TransformDirectionERK8Vector3f
A1j:_emscripten_glClearStencil__wrapper
daj:__ZN15dense_hashtableINSt3__24pairIK10KeyWrapperIPK11Il2CppClassEPKcEES6_N6il2cpp5utils11PointerHashIS3_EEN14dense_hash_mapIS6_S9_SE_NS6_14EqualsComparerINS0_8equal_toIS5_EEEENS0_9allocatorISA_EEE9SelectKeyESJ_SL_E12resize_deltaEjj
ESj:__ZNK10__cxxabiv120__si_class_type_info27has_unambiguous_public_baseEPNS_19__dynamic_cast_infoEPvi
jWj:_glTexSubImage3D__wrapper
$Of:_FactoryCache_Add_m2602974721
dpa:__Z30AddDefaultStreamsToMeshBuffersR9GfxDeviceR11MeshBuffersj17ShaderChannelMaskS3_
W3:__ZL16GetInterfaceImpl18UnityInterfaceGUID
kIe:_RegionInfo_construct_internal_region_from_name_m3316088619
V4i:__ZN6il2cpp2vmL17SetupFieldOffsetsENS0_15FieldLayoutKindEP11Il2CppClassjRKNSt3__26vectorIjNS4_9allocatorIjEEEE
T1e:_List_1_System_Collections_IList_get_Item_m936612973_gshared
dFj:__ZN6il2cpp6icalls8mscorlib6System15MonoCustomAttrs27GetCustomAttributesInternalEP12Il2CppObjectP20Il2CppReflectionTypeb
R3c:_UNITY_TT_Set_MM_Blend
x2:__GLOBAL__sub_I_runtime_math_random_0_cpp
_Wf:_ObjectReader_ReadAssembly_m869834280
MBi:_Sprite_INTERNAL_get_textureRect_m127050026
_Mb:__ZN14PreloadManager35WaitForAllAsyncOperationsToCompleteEv
Xkf:_Collection_1_IsSynchronized_m971497175_gshared
syd:_ExecuteEvents_Execute_m1617536317
ZSh:_Text_get_cachedTextGeneratorForLayout_m1357670532
oP:__ZL31InitializeAudioScriptingClassesv
XRb:__Z14SortGUIByDepthP10GUIElementS0_
dMe:_NumberFormatter_NumberToString_m126384393
$Zj:_emscripten_glVertexAttrib4fv__wrapper
DRf:_LogicalCallContext__ctor_m3173272863
dG:__ZN12_GLOBAL__N_120ProcessRootMotionMixER33AnimationPlayableEvaluationOutputR35AnimationPlayableEvaluationConstantR32AnimationPlayableEvaluationInputS1_f
hWe:_MonoCustomAttrs__cctor_m2608447972
LKe:_Int32_FindSign_m3803672540
aah:__Z92RuntimeInvoker_Void_t1841601450_DateTime_t693205669_DateTime_t693205669_TimeSpan_t3430258949PFvvEPK10MethodInfoPvPS4_
Srb:__ZNK20LocalFileSystemPosix21GetAvailableDiskSpaceEPKcRy
d3:__ZNSt3__26__treeIiNS_4lessIiEENS_9allocatorIiEEE7destroyEPNS_11__tree_nodeIiPvEE
ayf:_CipherSuite_InitializeCipher_m229247572
ILf:_X509Certificate2__ctor_m1095336775
Uha:__ZNK9GfxDevice14GetWorldMatrixEv
Cng:_MonoProperty_GetGetMethod_m1100580870
gqb:__Z19scripting_array_new17ScriptingClassPtrjj
aU:__ZN11SoundHandle13CreateChannelEb
J1a:__ZN14SafeBinaryRead21TransferSTLStyleArrayI13dynamic_arrayI12LightmapDataLj4EEEEvRT_17TransferMetaFlags
$Ge:_ArgumentException__ctor_m3312963299
ilb:__ZNSt3__26vectorIN9ShaderLab20SerializedSubProgram16TextureParameterENS_9allocatorIS3_EEE6assignIPS3_EENS_9enable_ifIXaasr21__is_forward_iteratorIT_EE5valuesr16is_constructibleIS3_NS_15iterator_traitsISA_E9referenceEEE5valueEvE4typeESA_SA_
J8i:__ZN13Il2CppHashMapIN6il2cpp5utils13dynamic_arrayIPK10Il2CppTypeLj4EEEPFvvENS0_8metadata19Il2CppSignatureHashENS9_22Il2CppSignatureCompareENSt3__29allocatorINSC_4pairIK10KeyWrapperIS6_ES8_EEEEEC2EjRKSA_RKSB_
Xnc:__Z51Quaternion_CUSTOM_INTERNAL_CALL_Internal_ToEulerRadRK11QuaternionfR8Vector3f
$nj:__ZN15dense_hashtableINSt3__24pairIK10KeyWrapperIPK22Il2CppGenericParameterEPK24MonoGenericParameterInfoEES6_N6il2cpp5utils11PointerHashIS4_EEN14dense_hash_mapIS6_SA_SF_NS6_14EqualsComparerINS0_8equal_toIS5_EEEENS0_9allocatorISB_EEE9SelectKeyESK_SM_E15set_deleted_keyERKSB_
d6b:__ZN6prcoreL11inner_clearILj2EEEvPhjjj
EOf:_X509SubjectKeyIdentifierExtension__ctor_m3887138480
x_e:_Enumerator_System_Collections_IEnumerator_get_Current_m2853089017_AdjustorThunk
sFc:__ZN12b2WheelJoint24SolvePositionConstraintsERK12b2SolverData
Kg:_emscripten_exit_fullscreen
mLd:_InputField_get_mesh_m3276583786
L8h:_GCHandle_Free_m1639542352_AdjustorThunk
PXc:_sfnt_done_face
bBj:__ZN6il2cpp6icalls8mscorlib6System6String19InternalAllocateStrEi
nCc:__Z29Transfer_Blittable_ArrayFieldI8JSONRead11QuaternionfEvRT_R9ArrayInfoRK23StaticTransferFieldInfo
plc:__Z45Register_UnityEngine_Camera_get_targetDisplayv
Ubc:__ZNK24RendererAnimationBinding15GenerateBindingERKN4core12basic_stringIcNS0_20StringStorageDefaultIcEEEEbRN11UnityEngine9Animation14GenericBindingE
XRa:__Z15GetFlareManagerv
Udi:_Enumerator_System_Collections_IEnumerator_get_Current_m1429268283
Smf:_ReadOnlyCollection_1_System_Collections_Generic_ICollectionU3CTU3E_Clear_m388357963_gshared
SOj:___toread
gLb:__ZNSt3__26vectorI10vector_mapIiiNS_4lessIiEE13stl_allocatorINS_4pairIiiEEL18MemLabelIdentifier38ELi16EEES4_IS9_LS7_38ELi16EEE26__swap_out_circular_bufferERNS_14__split_bufferIS9_RSA_EE
fTj:___cxa_is_pointer_type
Cud:_String_Concat_m56707527
fG:__ZN7mecanim9animation16EvaluateAvatarDXEPKNS0_14AvatarConstantEPKNS0_11AvatarInputEPNS0_12AvatarMemoryEPNS0_15AvatarWorkspaceEPNS0_12AvatarOutputE
Wva:__ZN4gles20DestroyRenderSurfaceEP7ApiGLESP17RenderSurfaceGLES
w_e:_Enumerator_System_Collections_IEnumerator_get_Current_m2853089017_gshared
Qqc:__Z34Transform_CUSTOM_SetAsFirstSiblingP12Il2CppObject
jDa:__ZN17PersistentManager40GlobalToLocalSerializedFileIndexInternalERK26SerializedObjectIdentifier
_Y:__ZN11UnityEngine15CloudWebService17SessionEventQueue14ParseEventDataERKN4core12basic_stringIcNS2_20StringStorageDefaultIcEEEE
cwd:_BaseEventData_get_selectedObject_m3551206992
Pxe:_SimpleCollator_CompareOrdinal_m2176988387
Hee:_CCGregorianCalendar_GetYear_m1289900195
bMe:_Int16_ToString_m2592645088
bna:__ZN13TranslateGLES4InitERK12GraphicsCaps16GfxDeviceLevelGL
tYf:_SerializationInfoEnumerator_Reset_m2206466680
sEi:_Vector2_Normalize_m2269900634_AdjustorThunk
wYj:_emscripten_glGetShaderPrecisionFormat__wrapper
SQi:_GenericEqualityComparer_1_Equals_m1934771410_gshared
hMj:__ZN6il2cpp5utils9Exception26FormatInvalidCastExceptionEPK11Il2CppClassS4_
M9b:__ZN13ProduceHelperI10TagManagerLb0EE7ProduceE18MemLabelIdentifier18ObjectCreationMode
MMj:__ZN6il2cpp2os6Memory12AlignedAllocEjj
BGj:__ZN6il2cpp8metadataL7CompareEPK10Il2CppTypeS3_
Neg:_TypeBuilder_get_is_created_m736553860
Hwf:_RSAManaged__ctor_m1370411656
AGb:__Z18Transfer_BlittableI18StreamedBinaryReadILb0EELb1E10ColorRGBAfEvRK29SerializationCommandArgumentsR31RuntimeSerializationCommandInfo
vxi:_PropertyName_op_Equality_m112228798
djc:__ZL27GetComponentsImplementationILb0ELi0EEbR10GameObjectbRK17CompareParametersRK39GetComponentsImplementation_ReturnValue
OJb:__ZN9Scripting36IsSystemCollectionsGenericDictionaryE17ScriptingClassPtr
TNh:_Raycast3DCallback_EndInvoke_m3234280377
PEd:_ColorTweenCallback__ctor_m3619686788
C9:__ZL16ReadTypeTreeImplILb0EEbR8TypeTreeRK16TypeTreeIteratorRPKhS6_i
yK:__ZN25RuntimeAnimatorControllerD2Ev
fC:__ZN27AnimationLayerMixerPlayable16SetLayerMaskCopyEjRKN7mecanim6bitsetILj70EEEPKNS0_8skeleton12SkeletonMaskE
uVa:__ZNK22BuiltinResourceManager21GetResourceInstanceIDEPKN5Unity4TypeERKN4core12basic_stringIcNS4_20StringStorageDefaultIcEEEE
fnc:__Z42Register_UnityEngine_RectOffset_set_bottomv
BXd:_ArrayListWrapper_IndexOf_m3574835167
aUb:__ZN28LightProbeProxyVolumeContext8CopyFromERKS_
YLa:__ZN23TransformChangeDispatch32QueueTransformChangeIfHasChangedER18TransformHierarchy
Xva:__ZN7ApiGLES18DeleteRenderbufferERj
Bua:__ZL23ProgramUniformMatrix4fvPK7ApiGLESjiihPKv
hwa:__ZN7ApiGLES13CreateTextureEjj14GraphicsFormatiiiii
Skb:__ZN9ShaderLab20SerializedSubProgram15MatrixParameter8TransferI14SafeBinaryReadEEvRT_
fjc:__ZL27GetComponentsImplementationILb0ELi1EEbR10GameObjectbRK17CompareParametersRK39GetComponentsImplementation_ReturnValue
Y2c:_Round_Down_To_Grid
k3f:_UTF8Decoder__ctor_m1460357288
hma:__ZN13RenderTexture7ReleaseEv
Mzc:__Z18Transfer_BlittableI8JSONReadLb1EN4math12int3_storageEEvRK29SerializationCommandArgumentsR31RuntimeSerializationCommandInfo
D9a:__ZN10MeshFilter23VirtualRedirectTransferER14SafeBinaryRead
R1d:_Convert_ToByte_m1201588964
N9a:__ZN12MeshRenderer17MainThreadCleanupEv
sza:__ZN22CreateGpuProgramOutput12CreateParamsEv
yQ:__ZN10ObjectPoolIN4FMOD7ChannelENS0_8ChannelIEE7GetFreeEi
xvg:__ZL55EventBuilder_t2927243889_CustomAttributesCacheGeneratorP21CustomAttributesCache
Tma:__ZNK14GfxContextGLES13GetDefaultFBOEv
cie:_Array_InternalArray__ICollection_Remove_TisSByte_t454417549_m2474211570_gshared
rMb:__ZN14GraphicsHelper5ClearE13GfxClearFlagsRK10ColorRGBAffjR17ShaderPassContext
Vzi:_RectTransform_set_anchorMax_m1168582032
Efc:__Z13GetImagePixelI10ColorRGBAfET_PKhii13TextureFormat15TextureWrapModeS5_ii
vfj:_il2cpp_class_is_enum
Brj:__ZN6il2cpp2vm6Thread49CheckCurrentThreadForInterruptAndThrowIfNecessaryEv
ePa:__ZNSt3__23mapIN9ShaderLab16FastPropertyNameEN18UnityPropertySheet11UnityTexEnvENS_4lessIS2_EENS_9allocatorINS_4pairIKS2_S4_EEEEEixERS9_
lva:__ZNK13TranslateGLES25GetTextureTargetDimensionEj
jqe:_Array_InternalArray__set_Item_TisByte_t3683104436_m1694926640_gshared
Hei:_PatternCompiler_EmitInfo_m597931026
Ytf:_ModulusRing_Multiply_m3113924743
bqc:__Z47Texture2D_CUSTOM_INTERNAL_CALL_GetPixelBilinearP12Il2CppObjectffR10ColorRGBAf
v5:__ZN9Scripting12LogExceptionE21ScriptingExceptionPtriPKcb
Ki:_emscripten_glVertexAttrib4f
wmf:_ReadOnlyCollection_1_System_Collections_IEnumerable_GetEnumerator_m531171980_gshared
Qnb:__ZNSt3__26vectorIN20GpuProgramParameters14ConstantBufferENS_9allocatorIS2_EEE8__appendEj
zzi:_RectOffset__ctor_m976836251
Nse:_Array_Sort_TisUILineInfo_t3621277874_m3105833015_gshared
RXe:_MonoType_GetGenericArguments_m2708198481
Z1e:_List_1_AddEnumerable_m2489692396_gshared
gB:__ZN7mecanim12statemachine24CreateStateMachineMemoryEPKNS0_20StateMachineConstantERNS_6memory9AllocatorE
dBh:_Enumerator_get_Current_m419581838_AdjustorThunk
vka:__ZN9GfxDevice18SetGlobalDepthBiasEff
Kcj:__ZN6il2cpp6icalls8mscorlib6System8MonoType12get_AssemblyEP20Il2CppReflectionType
hyi:_Vector3_get_normalized_m1057036856
Yi:_emscripten_glGetPointerv
VF:__ZN8Animator22ApplyBuiltinRootMotionEv
GMb:__Z26ApplyMaterialPassWithCacheRK18SharedMaterialDataR17ShaderPassContextP6ShaderPN9ShaderLab4PassEibPKNS6_10GrabPassesEPNS6_11SubProgramsEPK22DeviceRenderStateBlock
k2i:_Rigidbody2D_INTERNAL_get_position_m2092247005
Ghe:_Array_InternalArray__ICollection_Remove_TisKeyValuePair_2_t3716250094_m2566517826_gshared
zvj:__ZN30dense_hashtable_const_iteratorINSt3__24pairIK10KeyWrapperIP14Il2CppIUnknownEjEES5_N6il2cpp5utils11PointerHashIS3_EEN14dense_hash_mapIS5_jSB_NS5_14EqualsComparerINS0_8equal_toIS4_EEEENS0_9allocatorIS7_EEE9SelectKeyESG_SI_EppEv
N3a:__ZN8Renderer23VirtualRedirectTransferER14SafeBinaryRead
Rfg:_DerivedType_get_UnderlyingSystemType_m3904230233
TTa:__Z27ConvertSubMeshesToTrianglesR13dynamic_arrayI7SubMeshLj4EERS_ItLj2EE
Q4i:__ZN6il2cpp2vmL15GetBitmapNoInitEP11Il2CppClassPjRjj
gNf:_X509Certificate2Collection__ctor_m819526826
WO:__ZN12AudioManager5ResetEv
rwh:__Z75RuntimeInvoker_RuntimeObject_Single_t2076509932_RuntimeObject_RuntimeObjectPFvvEPK10MethodInfoPvPS4_
jvf:_KeyBuilder_Key_m3814433741
aHe:_ArgumentException__ctor_m158205422
Yke:_Array_compare_TisVector3_t2243707580_m3709184876_gshared
RJd:_HorizontalLayoutGroup_SetLayoutHorizontal_m3237355818
kta:__ZN6prcoreL17RemapGenericFloatI17TexFormatRGBAHalf15TexFormatRGHalfEEvPKNS_9InnerInfoE
pCj:__ZN6il2cpp6icalls8mscorlib6System11Environment20GetWindowsFolderPathEi
U1g:__ZL60AspectRatioFitter_t3114550109_CustomAttributesCacheGeneratorP21CustomAttributesCache
Wz:__ZN7mecanim5human18HumanPoseBlendNodeERNS0_9HumanPoseEPS1_f
aWc:_UNITY_FT_RoundFix
Znb:__ZN9ShaderLab20SerializedSubProgram15AddTextureParamEPKcii16TextureDimension
Ft:__Z14resize_trimmedINSt3__26vectorI24CompressedAnimationCurve13stl_allocatorIS2_L18MemLabelIdentifier26ELi16EEEEEvRT_j
Gii:_Uri_get_Parser_m2250631932
P9a:__ZNK12MeshRenderer22GetTypeVirtualInternalEv
UHd:_Graphic_set_color_m646149893
jYa:__ZN14SafeBinaryRead19TransferSTLStyleMapINSt3__23mapIN4core12basic_stringIcNS3_20StringStorageDefaultIcEEEES7_NS1_4lessIS7_EE13stl_allocatorINS1_4pairIKS7_S7_EEL18MemLabelIdentifier1ELi16EEEEEEvRT_17TransferMetaFlags
S7c:__ZN2UI6Canvas27UpdateEventIndexesRecursiveERi
Dy:__ZN7mecanim9animation18EvaluateRootMotionERKNS0_18ClipMuscleConstantERKNS0_15ClipMuscleInputEPKfS8_RNS0_12MotionOutputEb
eZ:__ZN11UnityEngine15CloudWebService16SessionContainer21PrepareDataErrorEventERN4core12basic_stringIcNS2_20StringStorageDefaultIcEEEE
CWc:_UNITY_FT_Outline_New
HCb:__Z19TransferField_ArrayI19StreamedBinaryWriteILb0EE27Converter_SimpleNativeClassI8GUIStyleEEvRK23StaticTransferFieldInfoR31RuntimeSerializationCommandInfoRT0_
dPh:_Scrollbar_SetDirection_m3264558284
LVc:__ZN20TextRenderingPrivate8TextMesh23VirtualRedirectTransferER18StreamedBinaryReadILb0EE
J_j:_emscripten_glCopyTexSubImage2D__wrapper
pJj:_maybe_finalize
olh:__Z69RuntimeInvoker_Void_t1841601450_Vector2_t2243707579_Int32_t2071877448PFvvEPK10MethodInfoPvPS4_
rVf:_RemotingServices_RegisterInternalChannels_m1827304423
Azc:__Z35Transfer_Blittable_FixedBufferFieldI8JSONReadiEvRK29SerializationCommandArgumentsR31RuntimeSerializationCommandInfo
Nbj:__ZNSt3__213__vector_baseIN6il2cpp2os19SocketHandleWrapperENS_9allocatorIS3_EEED2Ev
Ygh:__Z77RuntimeInvoker_RuntimeObject_Int32_t2071877448_RuntimeObject_SByte_t454417549PFvvEPK10MethodInfoPvPS4_
gc:invoke_viiffi
iIe:_RegionInfo_GetByTerritory_m3452395101
j3b:__ZN13sorted_vectorINSt3__24pairIN4core12basic_stringIcNS2_20StringStorageDefaultIcEEEEPK17MessageIdentifierEEN10vector_mapIS6_S9_NS0_4lessIS6_EENS0_9allocatorISA_EEE13value_compareESF_E10insert_oneERKSA_
w4f:_Thread_GetCachedCurrentUICulture_m5590127
BMi:_GUILayoutEntry_get_margin_m3913640621
Klb:__Z14resize_trimmedINSt3__26vectorIN9ShaderLab18SerializedPropertyENS0_9allocatorIS3_EEEEEvRT_j
Faf:_List_1_CheckMatch_m4018158235_gshared
qye:_Context_t2636657155_marshal_pinvoke_back
N9i:__ZN6il2cpp2vm13MetadataCache38GetMethodInfoFromMethodDefinitionIndexEi
bUd:_Byte_System_IConvertible_ToDateTime_m1583041031
WVi:__ZL24UnresolvedVirtualCall_68P12Il2CppObjectS0_iS0_S0_S0_S0_S0_S0_PK10MethodInfo
T5a:__ZN10VertexData8TransferI24GenerateTypeTreeTransferEEvRT_
DDj:__ZN13Il2CppHashMapIPK19Il2CppGenericMethodP10MethodInfoN6il2cpp8metadata23Il2CppGenericMethodHashENS6_26Il2CppGenericMethodCompareENSt3__29allocatorINS9_4pairIK10KeyWrapperIS2_ES4_EEEEEC2EjRKS7_RKS8_
gKh:_EqualityComparer_1_System_Collections_IEqualityComparer_Equals_m1089835085_gshared
f_b:__ZL10CullLightsRK22SceneCullingParametersR11CullResults
_Gd:_Dropdown__cctor_m264401557
cRd:_Array_IndexOf_m2819632474
nyi:_Ray_GetPoint_m2427899009_AdjustorThunk
G6h:_Comparer_1__cctor_m3996541505_gshared
bB:__ZN7mecanim12statemachine20GetBlendTreeConstantERKNS0_13StateConstantEi
Z5b:__Z40GetTemporaryCachePathApplicationSpecificv
Cia:__ZN9GfxDevice16EndAsyncJobFrameEv
SXc:_UNITY_tt_face_load_hhea
p1d:_Convert_ToBase64String_m1936815455
Sk:___syscall3
Vk:___syscall6
Xk:___syscall4
Nae:_Decimal_ToString_m759431975
Nsb:__ZNSt3__26__treeINS_12__value_typeIN4core12basic_stringIcNS2_20StringStorageDefaultIcEEEEPN16MemoryFileSystem4NodeEEENS_19__map_value_compareIS6_SA_NS_4lessIS6_EELb1EEE13stl_allocatorISA_L18MemLabelIdentifier55ELi16EEE7destroyEPNS_11__tree_nodeISA_PvEE
FCd:_ColorBlock_get_fadeDuration_m987725262
b_f:_CryptographicException__ctor_m2415891459
HMc:__ZNSt3__26__sortIR24RayHitsByDepthComparitorP12RaycastHit2DEEvT0_S5_T_
Pia:__ZN9GfxDevice27UpdateComputeSkinPoseBufferE15ComputeBufferIDP12SkinMeshInfo
N4e:_List_1_AddCollection_m3266731889_gshared
ll:_emscripten_glShaderBinary
eQd:_Array_InternalArray__RemoveAt_m1126483634
Krb:__ZNK20LocalFileSystemPosix6ExistsERK13FileEntryData
QLi:_GUI_CallWindowDelegate_m2603162942
kHf:_DictionaryNodeEnumerator_get_DictionaryNode_m3521889822
by:__ZN7mecanim5human19MaskHasLeftFootGoalERKNS_6bitsetILj70EEE
Kqh:__Z101RuntimeInvoker_Int32_t2071877448_RuntimeObject_Color32_t874517518_Int32_t2071877448_Int32_t2071877448PFvvEPK10MethodInfoPvPS4_
mbd:__Z58Register_UnityEngine_Canvas_GetETC1SupportedCanvasMaterialv
eFb:__ZN17AnimationCurveTplIfE8TransferI18StreamedBinaryReadILb1EEEEvRT_
P8d:_DateTimeOffset_GetHashCode_m3312197462_AdjustorThunk
Ddd:__ZN18UnityConnectClientD2Ev
Nej:_il2cpp_set_data_dir
Bii:_Uri_get_IsUnc_m2111738174
okg:_TypeBuilder_IsValueTypeImpl_m1499671481
Hcd:__ZN11UnityEngine15PlatformWrapper30GetGraphicsDriverLibraryStringEv
rwf:_EncryptedPrivateKeyInfo_Decode_m1706190306
BGb:__Z18Transfer_BlittableI18StreamedBinaryReadILb0EELb0E4AABBEvRK29SerializationCommandArgumentsR31RuntimeSerializationCommandInfo
gUi:_AudioListener_ClearExtensionProperties_m2267088681
MK:__ZN16MecanimAnimation24DeleteAnimatedPropertiesERP26IAnimatedPropertyEvaluator
J5d:_Convert_ToUInt16_m1665900934
hIe:_RegionInfo__ctor_m2058831971
oQb:__Z14DrawGUITextureRK5RectTIfEP7Texture11ColorRGBA32P8Materiali
eTh:_Text_get_supportRichText_m3291105891
IE:__ZN9BlobWrite8TransferI22OffsetPtrArrayTransferIKN4math7_float4EEEEvRT_PKc17TransferMetaFlags
HNi:_GUIUtility_set_systemCopyBuffer_m3458871692
rJc:__ZNK11b2EdgeShape7RayCastEP15b2RayCastOutputRK14b2RayCastInputRK11b2Transformi
Rdi:_MatchCollection_GetEnumerator_m3516985966
jzc:__ZN9JSONWrite8TransferI4AABBEEvRT_PKc17TransferMetaFlags
z0f:_UTF7Encoding__ctor_m2365939916
GIa:__ZN25MultiBlocksMemoryFileData9SetLengthEy
w3i:_Animator_SetTrigger_m2003713590
Lmi:_DelegatePInvokeWrapper_StateChanged_t2480912210
QLh:_MatEntry__ctor_m3650167335
OCc:__ZN10Collider2D13AwakeFromLoadE17AwakeFromLoadMode
Z$a:__ZNK9Texture2D20GetRuntimeMemorySizeEv
n8f:_TypeInitializationException__ctor_m2993591639
tvc:__ZN5Unity9rapidjson13GenericReaderINS0_4UTF8IcEES3_13JSONAllocatorE9ParseTrueILj0ENS0_19GenericStringStreamIS3_EENS0_15GenericDocumentIS3_S4_S4_EEEEvRT0_RT1_
tm:_emscripten_glUniform2iv
hKe:_Int16_System_IConvertible_ToInt64_m733340257
hUc:_UNITY_FT_Outline_Transform
Xpc:__Z60Register_UnityEngine_Sprites_DataUtility_Internal_GetMinSizev
h5i:__ZN6il2cpp2vm5Class10GetMethodsEP11Il2CppClassPPv
WVb:__Z30AddDefaultStreamsToMeshBuffersR9GfxDeviceR11MeshBuffersRK16DrawBuffersRange17ShaderChannelMaskS6_
Ava:__ZN7ApiGLES17DeleteFramebufferERN2gl6HandleILNS0_10ObjectTypeE9EEES3_
vya:__ZN15UniformTFMethod13MapBoneBufferEj
Ezf:_RecordProtocol_SendAlert_m2816808523
J6c:__ZN2UI14CanvasRendererD2Ev
eSf:_MethodCall_get_LogicalCallContext_m3769562079
csj:__ZN6il2cpp6icalls8mscorlib6System5Array8SetValueEP11Il2CppArrayP12Il2CppObjectS5_
mUe:_SynchronizedReader_Read_m1399666181
fmg:_MonoEvent_get_Name_m2796714646
ALb:__Z9SetupArgviPPKc
i3i:_AnimationOffsetPlayable__ctor_m1644499845
Czd:_PointerEventData_set_worldNormal_m2025727441
FDi:_Transform_INTERNAL_get_worldToLocalMatrix_m2822011810
LAf:_Context_get_SentConnectionEnd_m3114190867
Z_a:__ZN12CubemapArray23VirtualRedirectTransferER24GenerateTypeTreeTransfer
gaa:__ZN12FileAccessor4OpenER15FileSystemEntry14FilePermission16FileAutoBehavior
DTi:_AudioSource_get_spatializeInternal_m4243931620
xRc:__ZL12PhysxJobFuncPN5physx10PxBaseTaskE
c3a:__ZN23TransformChangeDispatch32QueueTransformChangeIfHasChangedERK15TransformAccess
fzd:_PointerEventData_set_clickTime_m3931922487
l9:__ZN15dense_hashtableINSt3__24pairIKiP4RTTIEEiN11TypeManager27HashFunctorPersistentTypeIDEN14dense_hash_mapIiS4_S7_NS0_8equal_toIiEE13stl_allocatorIS5_L18MemLabelIdentifier7ELi16EEE9SelectKeyESA_SD_E12maybe_shrinkEv
tLe:_NumberFormatter_AppendNonNegativeNumber_m629862866
EZa:__ZNSt3__26vectorINS_4pairIN9ShaderLab16FastPropertyNameEN18UnityPropertySheet11UnityTexEnvEEENS_9allocatorIS6_EEE21__push_back_slow_pathIKS6_EEvRT_
F7h:_ResourceInfo__ctor_m2401359321_AdjustorThunk
lCj:__ZN6il2cpp2os26LibraryNamePrefixAndSuffixC2EPKcS3_
Iqe:_Array_InternalArray__set_Item_TisMonoResource_t3127387157_m732733855_gshared
bJi:_UnityEvent_1_Invoke_m1599856953_gshared
x_d:_Hashtable__ctor_m392789568
w2f:_UTF7Encoding__cctor_m4192443836
B:tempValue
vni:_Display_get_systemHeight_m3140485477
lKe:_Int16_System_IConvertible_ToSingle_m3277935657
Z5:__Z29scripting_class_from_fullnamePKcS0_S0_
cFi:_Vector3_get_sqrMagnitude_m1445517847_AdjustorThunk
RNh:_Raycast3DCallback_Invoke_m2271859924
CB:__ZN26AnimatorControllerPlayable18DeallocateBindingsEv
rU:__ZN11AudioSource19CreateOpenALRolloffEfff
FYc:_UNITY_FT_Stream_ReadAt
vxh:_Enumerator_get_CurrentKey_m2387752419_AdjustorThunk
Y8i:__ZN15dense_hashtableINSt3__24pairIK10KeyWrapperIN6il2cpp5utils13dynamic_arrayIPK10Il2CppTypeLj4EEEEPFvvEEESA_NS3_8metadata19Il2CppSignatureHashEN14dense_hash_mapISA_SD_SG_NSA_14EqualsComparerINSF_22Il2CppSignatureCompareEEENS0_9allocatorISE_EEE9SelectKeyESK_SM_E9set_valueEPSE_RKSE_
soi:_UnityEventBase_FindMethod_m2780816114
jIe:_RegionInfo__ctor_m997788172
r8f:_UInt16_System_IConvertible_ToBoolean_m887616848
dV:__ZN11AudioModule22CreateAudioClipFromWWWEP10IWWWStreamPKcbbi
l1f:_StringBuilder_set_Length_m3039225444
Vif:_Collection_1_System_Collections_IList_Contains_m3870109702_gshared
ihe:_Array_InternalArray__ICollection_Contains_TisRaycastResult_t21186376_m3188614988_gshared
s6d:_CultureAwareComparer_GetHashCode_m3681260951
S8c:__Z13RegisterClassIN2UI11CanvasGroupEEvv
f6b:__ZN6prcoreL11inner_clearILj4EEEvPhjjj
rf:_emscripten_glClear
_Nh:_Selectable__ctor_m1440593935
eXi:__ZL25UnresolvedVirtualCall_132P12Il2CppObject17Color_t2020392075faaaPK10MethodInfo
uda:__ZNK8Playable6HandleEv
i8:__ZN14MessageHandler28MessageIDToMessageIdentifierEi
AIf:_HttpRequestCreator_Create_m3607509610
n6a:__ZNK11SpriteAtlas20GetRuntimeRenderDataEPK6Sprite
HKj:__ZN6il2cpp2vm10WaitHandle19NewManualResetEventEb
Lof:_ReadOnlyCollection_1_System_Collections_IList_Contains_m3707723158_gshared
pUc:__ZN20TextRenderingPrivate15DynamicFontData36GetFaceForCharacterIfAvailableInFontERKNS_7FontRefERK13dynamic_arrayI4PPtrIN13TextRendering4FontEELj4EEj
oUi:_AudioExtensionManager_GetReadyToPlay_m3272224102
yz:__ZN7mecanim14ValueArrayCopyILb0EEEvPKNS_10ValueArrayEPS1_
rM:__Z51Register_UnityEngine_Animator_get_hasBoundPlayablesv
l$i:_Nullable_1_ToString_m1238126148_AdjustorThunk
Id:emscriptenWebGLGetUniform
yo:FUNCTION_TABLE_iiiiiiiiiii
M$b:__ZL10CleanUpJobP20CullingGroupsJobData
NVd:_Char_CompareTo_m3044885427_AdjustorThunk
qQe:_FileStream_GetSecureFileName_m508045384
Y0h:_InternalEnumerator_1_System_Collections_IEnumerator_get_Current_m2035754659_AdjustorThunk
fQb:__ZN13RenderManager15BatchModeUpdateEv
v5a:__ZN14SafeBinaryRead21TransferSTLStyleArrayI13dynamic_arrayI8Vector2fLj4EEEEvRT_17TransferMetaFlags
iDa:__ZN17PersistentManager51InstanceIDToLocalSerializedObjectIdentifierInternalEiR31LocalSerializedObjectIdentifier
GHc:__ZN10ClipperLib7Clipper15SetWindingCountERNS_5TEdgeE
A1c:_UNITY_FT_Create_Class_cff_services
ld:_glVertexAttribIPointer
Cjd:_HMAC_set_HashName_m457235014
Qfc:__ZNK6Sprite10GetPaddingE20SpriteRenderDataMode
k4i:__ZN6il2cpp2vm5Class11GetPtrClassEPK10Il2CppType
qge:_Array_InternalArray__ICollection_Contains_TisTableRange_t2011406615_m605506746_gshared
DDh:_Dictionary_2_Add_m1296007576_gshared
r5d:_Decimal_op_Explicit_m729046406
l_f:_CryptoConfig_CreateFromName_m2169102076
sId:_Graphic_OnEnable_m2900261811
o_f:_CryptographicUnexpectedOperationException__ctor_m3552441227
RTb:__ZN14qsort_internal5QSortIP15RODataDepthPassi17ROSorterDepthPassEEvT_S4_T0_T1_
xXd:_ArrayListWrapper_Clear_m321161741
sNd:_InputField_LineDownCharacterPosition_m2690468785
EYc:_UNITY_ft_glyphslot_alloc_bitmap
Rse:_Array_Sort_TisVector2_t2243707579_TisVector2_t2243707579_m2582252549_gshared
rag:_UInt64_System_IConvertible_ToDouble_m2828923873
E6e:_List_1_System_Collections_IList_set_Item_m1129584681_gshared
$Zc:_ft_raster1_render
Mrc:__Z47Register_UnityEngine_Mesh_RecalculateBoundsImplv
v2e:_List_1_set_Capacity_m491101164_gshared
ORj:__ZNKSt3__221__basic_string_commonILb1EE20__throw_length_errorEv
K1f:_StringBuilder_Insert_m1733097906
sFf:_SslStreamBase_get_HashStrength_m480059173
nwa:__ZN18GfxFramebufferGLES13ReadbackImageER14ImageReferenceiiiiii
Xvc:__ZN5Unity9rapidjson6WriterI16TempBufferWriterNS0_4UTF8IcEES4_13JSONAllocatorE11WriteStringEPKcj
NBh:_ValueCollection_System_Collections_Generic_ICollectionU3CTValueU3E_Clear_m3271993638_gshared
a1d:_Enumerator_MoveNext_m1419609883
gQ:__ZN4FMOD7Channel19setReverbPropertiesEPK29FMOD_REVERB_CHANNELPROPERTIES
I7:__ZN13MonoBehaviour22GetScriptFullClassNameEv
eyi:_RangeInt_get_end_m480861812
JIf:_ServicePointManager_FindServicePoint_m3137356168
xJb:__ZN13MonoBehaviour9CallAwakeEv
OVa:__ZN20SphericalHarmonicsL211AddWeightedERKS_f
Uzd:_PointerInputModule_GetPointerData_m1695674453
zch:__Z90RuntimeInvoker_Void_t1841601450_RuntimeObject_RuntimeObject_RuntimeObject_SByte_t454417549PFvvEPK10MethodInfoPvPS4_
Myb:__Z19TransferField_ArrayI17RemapPPtrTransfer27Converter_SimpleNativeClassI8GUIStyleEEvRK23StaticTransferFieldInfoR31RuntimeSerializationCommandInfoRT0_
n6d:_Convert_ToUInt64_m345450801
o$i:_Predicate_1_BeginInvoke_m2559992383_gshared
Dwc:__ZN9JSONWrite8TransferI10ColorRGBAfEEvRT_PKc17TransferMetaFlags
K8e:_List_1_Find_m1270109362_gshared
c8:__Z25scripting_method_get_name18ScriptingMethodPtr
dxb:__Z19TransferField_ArrayI14SafeBinaryRead16Converter_StringEvRK23StaticTransferFieldInfoR31RuntimeSerializationCommandInfoRT0_
hRj:_rename
gJj:_GC_exit_check
gYe:_NotSupportedException__ctor_m3232764727
Ds:__ZN7mecanim9animation9DenseClip8TransferI14SafeBinaryReadEEvRT_
aIf:_TypeConverterAttribute_Equals_m2330345916
yhh:__Z90RuntimeInvoker_Boolean_t3825574718_Int32_t2071877448_Int32U26_t455636984_Int32_t2071877448PFvvEPK10MethodInfoPvPS4_
w$h:_InternalEnumerator_1_System_Collections_IEnumerator_get_Current_m1038263751_gshared
SPe:_MonoIO_CreateDirectory_m379525469
y3b:__ZNSt3__26vectorINS_4pairIN4core12basic_stringIcNS2_20StringStorageDefaultIcEEEES6_EE13stl_allocatorIS7_L18MemLabelIdentifier38ELi16EEE6insertENS_11__wrap_iterIPKS7_EERSD_
zE:__ZN9BlobWrite8TransferI22OffsetPtrArrayTransferI9OffsetPtrIN7mecanim12statemachine18StateMachineMemoryEEEEEvRT_PKc17TransferMetaFlags
OWc:_UNITY_ft_smooth_renderer_class_pic_free
o9e:_List_1_System_Collections_IList_Remove_m3763718607_gshared
hf:_emscripten_glStencilOpSeparate
xtd:_String_Concat_m2000667605
vEj:__ZN6il2cpp2vm6String8NewUtf16EPKDsi
pBj:__ZN6il2cpp2os10ThreadImpl12QueueUserAPCEPFvPvES2_
tdd:__ZN22BaseUnityConnectClient10QueueEventERN11UnityEngine15CloudWebService17CloudServiceEventEPKcjb
Cnh:__Z71RuntimeInvoker_Bounds_t3033363703_RuntimeObject_Matrix4x4U26_t266301477PFvvEPK10MethodInfoPvPS4_
uwe:_ExecuteEvents_GetEventHandler_TisRuntimeObject_m3333041576_gshared
cWc:_UNITY_FT_Hypot
rSd:_BitConverter_ToInt64_m1329623425
y9b:__ZN8RendererC2E12RendererType18MemLabelIdentifier18ObjectCreationMode
pfj:_il2cpp_class_is_abstract
Bf:_emscripten_glGetError
Enj:__ZN15dense_hashtableINSt3__24pairIK10KeyWrapperIPK14Il2CppAssemblyEPK22Il2CppMonoAssemblyNameEES6_N6il2cpp5utils11PointerHashIS4_EEN14dense_hash_mapIS6_SA_SF_NS6_14EqualsComparerINS0_8equal_toIS5_EEEENS0_9allocatorISB_EEE9SelectKeyESK_SM_E14squash_deletedEv
TQ:__Z14FMOD_FILE_SeekPvjS_
hSf:_MethodCall_get_Properties_m1893707917
Yyh:_ShimEnumerator_get_Entry_m2387156530_gshared
w9i:__ZN14dense_hash_mapI10KeyWrapperIN6il2cpp5utils13dynamic_arrayIPK10Il2CppTypeLj4EEEEPFvvENS1_8metadata19Il2CppSignatureHashENS8_14EqualsComparerINSB_22Il2CppSignatureCompareEEENSt3__29allocatorINSG_4pairIKS8_SA_EEEEEC2EjRKSC_RKSF_
P0b:__ZNK13RenderTexture32CalculateNeedsInvertedProjectionEv
H5b:__ZN10systeminfo18GetOperatingSystemEv
Jf:emscriptenWebGLGet
vaa:__Z19CanReplaceComponentRN5Unity9ComponentEPKNS_4TypeEPN4core12basic_stringIcNS5_20StringStorageDefaultIcEEEE
Yac:__ZN12CubemapArray11InitTextureEiii13TextureFormatb
Xhc:__Z17GetSceneBuildInfoRKN4core12basic_stringIcNS_20StringStorageDefaultIcEEEEiR14SceneBuildInfo
SLf:_X509Certificate2_get_SignatureAlgorithm_m3069898012
zNe:_Int64_System_IConvertible_ToSingle_m1678482180
gF:__ZN7mecanim5human13HumanFixTwistEPKNS0_5HumanEPNS_8skeleton13SkeletonPoseTIN4math4trsXEEES9_iiRKf
GWb:__ZL24AssignProjectorQueuesJobP30AssignProjectorQueuesJobHeader
O5f:_TimeSpan_get_Hours_m3804628138
Cyj:__ZN14dense_hash_mapI10KeyWrapperIP12Il2CppObjectEN6il2cpp2gc9CachedCCWENS4_5utils11PointerHashIS1_EENS3_14EqualsComparerINSt3__28equal_toIS2_EEEENSB_9allocatorINSB_4pairIKS3_S6_EEEEEC2EjRKS9_RKSE_
c9i:__ZN15dense_hashtableINSt3__24pairIK10KeyWrapperIN6il2cpp5utils13dynamic_arrayIPK10Il2CppTypeLj4EEEEPFvvEEESA_NS3_8metadata19Il2CppSignatureHashEN14dense_hash_mapISA_SD_SG_NSA_14EqualsComparerINSF_22Il2CppSignatureCompareEEENS0_9allocatorISE_EEE9SelectKeyESK_SM_E4swapERSP_
Wnb:__ZN9ShaderLab20SerializedSubProgram14SetConstBufferEPKci
dHe:_ArgumentNullException__ctor_m911049464
Nsf:_Comparison_1_Invoke_m345024424_gshared
W$c:_cf2_getStdVW
Tpf:_ReadOnlyCollection_1_System_Collections_IList_Insert_m3936197025_gshared
M1:__Z40DebugStringToFilePostprocessedStacktraceRK21DebugStringToFileData
pBc:__Z29Transfer_Blittable_ArrayFieldI8JSONReadjEvRT_R9ArrayInfoRK23StaticTransferFieldInfo
y0h:_InternalEnumerator_1_get_Current_m314017974_AdjustorThunk
pg:__setLetterbox
wRe:_MemoryStream__ctor_m1043059966
dTf:__ZN21InterfaceFuncInvoker3IP12Il2CppObjectP6Type_t28StreamingContext_t1417235061PS1_E6InvokeEjP11Il2CppClassS1_S3_S4_S5_
z8a:__ZNSt3__26vectorI17BlendShapeChannelNS_9allocatorIS1_EEE6assignINS_11__wrap_iterIPS1_EEEENS_9enable_ifIXaasr21__is_forward_iteratorIT_EE5valuesr16is_constructibleIS1_NS_15iterator_traitsISA_E9referenceEEE5valueEvE4typeESA_SA_
BOd:_LayoutElement_set_preferredWidth_m3072758716
XNb:__Z12SetGfxDeviceP9GfxDevice
BKf:_AsnEncodedData_ToString_m724151831
Yni:_Object_CompareBaseObjects_m1461253683
A5b:__ZN11TimeManager11GetRealtimeEv
FIj:_GC_print_block_list
lR:__ZN29AudioEffectInternalDefinitionC2EP26UnityAudioEffectDefinitionb
Ulg:_MonoMethodInfo_GetDeclaringType_m4186531677
aUf:_SoapTypeAttribute_SetReflectionObject_m1566293812
YQi:_Enumerator_System_Collections_IEnumerator_Reset_m2573763156_AdjustorThunk
vVf:_RemotingServices_CreateClientProxy_m1631035355
Xag:_UInt64_ToString_m2892887310
Oqa:_stbir_resize
KDj:__ZN15dense_hashtableINSt3__24pairIK10KeyWrapperIPK19Il2CppGenericMethodEP10MethodInfoEES6_N6il2cpp8metadata23Il2CppGenericMethodHashEN14dense_hash_mapIS6_S9_SD_NS6_14EqualsComparerINSC_26Il2CppGenericMethodCompareEEENS0_9allocatorISA_EEE9SelectKeyESH_SJ_EC2ERKSM_j
CLc:__ZN24b2ChainAndCapsuleContact6CreateEP9b2FixtureiS1_iP16b2BlockAllocator
MIa:__Z37ReadDirectoryInfo_UnityWebAndUnityRawR12FileAccessorRKN20ArchiveStorageHeader6HeaderERNS1_13DirectoryInfoE
O4:__ZNSt3__26__treeINS_12__value_typeIPKciEENS_19__map_value_compareIS3_S4_15compare_tstringIS3_ELb1EEENS_9allocatorIS4_EEE7destroyEPNS_11__tree_nodeIS4_PvEE
TGh:_Dictionary_2_ToTValue_m1381983709_gshared
_Xe:_MulticastDelegate_KPM_m1592985119
Zdd:__ZN13dynamic_arrayIN4core12basic_stringIcNS0_20StringStorageDefaultIcEEEELj4EE6assignEPKS4_S7_
Glf:_Collection_1_ConvertItem_m3941916604_gshared
fHa:__ZN15dense_hashtableINSt3__24pairIKN4core12basic_stringIcNS2_20StringStorageDefaultIcEEEEP20ArchiveStorageReaderEES6_20StringHash32FunctionIS6_EN14dense_hash_mapIS6_S9_SC_NS0_8equal_toIS6_EE13stl_allocatorISA_L18MemLabelIdentifier55ELi16EEE9SelectKeyESF_SI_E5clearEv
C7c:__ZN2UI6Canvas26MarkAllNestedCanvasesDirtyEv
Nvj:__ZN6il2cpp2vm12ReboxIfBoxedEP14Il2CppIUnknownP11Il2CppClass
_Kb:__ZN25PathNamePersistentManagerD2Ev
w6:__ZN17PersistentManager48IntegrateObjectAndUnlockIntegrationMutexInternalEi
Pga:__ZZ29InitializeSortingGroupManagerPvEN44PostLateUpdateSortingGroupsUpdateRegistrator7ForwardEv
rp:__ZN6Object12SetHideFlagsENS_9HideFlagsE
SKc:__ZN9b2Fixture11SynchronizeEP12b2BroadPhaseRK11b2TransformS4_
zYj:_emscripten_glGetFramebufferAttachmentParameteriv__wrapper
FQb:__ZN13RendererScene15InitializeUmbraEv
HUa:__Z28CalculateGlobalMatrixInverse23TransformAccessReadOnly
Dsg:__ZL60SecurityAttribute_t2016950496_CustomAttributesCacheGeneratorP21CustomAttributesCache
Pzd:_PointerEventData_ToString_m1218584363
E2f:_UTF7Encoding_GetCharCount_m2589913583
Qgj:_AnalyticsSessionInfo_CallSessionStateChanged_m2293069762
mSe:_MemoryStream_CalculateNewCapacity_m3533542025
ANj:__ZN6il2cpp6icalls8mscorlib6System6Object7GetTypeEP12Il2CppObject
Eii:_Uri_Reduce_m2577728307
m6f:_TimeSpan_Equals_m4102942751_AdjustorThunk
MBh:_ValueCollection_System_Collections_Generic_ICollectionU3CTValueU3E_Add_m1903672223_gshared
Pgd:__ZN12HeaderHelper14SetUnvalidatedERKN4core12basic_stringIcNS0_20StringStorageDefaultIcEEEES6_b
mN:__ZN4FMOD6SoundI7releaseEv
lab:__ZN14SpriteRenderer13AwakeFromLoadE17AwakeFromLoadMode
oJa:__ZN10MemoryFile9SetLengthEy
gK:__ZN7mecanim10ValueArray8TransferI19StreamedBinaryWriteILb0EEEEvRT_
RAb:__ZN5RectTIiE8TransferI24GenerateTypeTreeTransferEEvRT_
P1a:__ZN14SafeBinaryRead21TransferSTLStyleArrayI13dynamic_arrayI7Hash128Lj8EEEEvRT_17TransferMetaFlags
ZJb:__Z28scripting_class_is_interface17ScriptingClassPtr
Fh:_glTexStorage2D
NXa:__ZNK9ShaderLab10SubProgram14EnsureCompiledEv
p4g:__Z79RuntimeInvoker_Boolean_t3825574718_RuntimeObject_RuntimeObject_SByte_t454417549PFvvEPK10MethodInfoPvPS4_
TXf:_ObjectManager_RecordFixup_m3572285566
Z$d:_SortedList_InitTable_m460350503
U7:__Z18BuildScriptClassId17ScriptingClassPtr
YYh:_InternalEnumerator_1_get_Current_m4279678504_AdjustorThunk
gIa:__ZL31DeleteLastPathNameComponentImplRKN4core12basic_stringIcNS_20StringStorageDefaultIcEEEEPKc
s7b:__Z13RegisterClassI18DelayedCallManagerEvv
Hdd:__ZN18UnityConnectClient15GetCloudServiceEv
_yb:__Z18Transfer_BlittableI24GenerateTypeTreeTransferLb0EiEvRK29SerializationCommandArgumentsR31RuntimeSerializationCommandInfo
gLc:__ZN15b2CircleContact6CreateEP9b2FixtureiS1_iP16b2BlockAllocator
TJb:__ZL28SerializationCommandGroupForRK31TransferFunctionScriptingTraits17ScriptingClassPtr17ScriptingFieldPtrRK20CoreScriptingClasses
pMa:__ZN10TagManager32RegisterDefaultTagsAndLayerMasksEv
jaj:__ZN15dense_hashtableINSt3__24pairIK10KeyWrapperIPKcEP11Il2CppClassEES5_N6il2cpp5utils11StringUtils12StringHasherIS4_EEN14dense_hash_mapIS5_S8_SE_NS5_14EqualsComparerINSB_13VmStringUtils21CaseSensitiveComparerEEENS0_9allocatorIS9_EEE9SelectKeyESJ_SL_E15insert_noresizeERKS9_
j4f:_SynchronizationLockException__ctor_m549086841
VWd:_ArrayList_InsertRange_m1478230997
ana:__ZN4gles8InitCapsEP7ApiGLESP12GraphicsCapsR16GfxDeviceLevelGL
gra:__ZN6prcore14BlitImageFloatERK14ImageReferenceRS0_NS0_8BlitModeE
vSa:__Z24CalculateVertexLightDataRK15SharedLightDataR14GfxVertexLight
Yli:_Color_get_black_m455352838
ni:_glEnable
mib:__ZN15dense_hashtableINSt3__24pairIKiiEEi21InstanceIDHashFunctorN14dense_hash_mapIiiS4_NS0_8equal_toIiEE13stl_allocatorIS3_L18MemLabelIdentifier1ELi16EEE9SelectKeyES7_SA_E12maybe_shrinkEv
JXa:__ZNK9ShaderLab7Program28BeginReadUnsupportedVariantsEv
oSb:__ZNK25CameraStackRenderingState21GetImageEffectTextureEb
MYf:_RuntimeMethodHandle__ctor_m2437574937_AdjustorThunk
zfb:__ZNSt3__26vectorIN30RuntimeInitializeOnLoadManager9ClassInfoE13stl_allocatorIS2_L18MemLabelIdentifier13ELi16EEE7reserveEj
Qwc:__Z35Transfer_Blittable_FixedBufferFieldI9JSONWriteiEvRK29SerializationCommandArgumentsR31RuntimeSerializationCommandInfo
I8f:_UInt16_System_IConvertible_ToInt64_m2835280558_AdjustorThunk
FXg:__ZL53g_UnityEngine_Assembly_CustomAttributesCacheGeneratorP21CustomAttributesCache
kGi:_Predicate_1_BeginInvoke_m3926587117_gshared
oL:__ZZN8Animator15InitializeClassEvEN31FunctorImpl_427kDidModifyAvatar4CallEPviR11MessageData
kof:_ReadOnlyCollection_1_System_Collections_IList_Remove_m2779327941_gshared
uB:__ZN26AnimatorControllerPlayable17ProcessRootMotionEP35AnimationPlayableEvaluationConstantP32AnimationPlayableEvaluationInputP33AnimationPlayableEvaluationOutput
H4g:__Z94RuntimeInvoker_Boolean_t3825574718_Int32_t2071877448_SByte_t454417549_ExceptionU26_t1467204777PFvvEPK10MethodInfoPvPS4_
DFd:_DefaultControls_CreateToggle_m1568873127
EGh:_Dictionary_2_InitArrays_m2270022740_gshared
hcd:__ZN11UnityEngine7Connect15DeviceInfoEvent16CollectExtraInfoEv
K7i:__ZN15dense_hashtableI10KeyWrapperIPK17Il2CppGenericInstES4_N6il2cpp8metadata21Il2CppGenericInstHashEN14dense_hash_setIS4_S7_NS4_14EqualsComparerINS6_24Il2CppGenericInstCompareEEENSt3__29allocatorIS4_EEE8IdentityESB_SE_EC2ERKSH_j
V1f:_UnicodeEncoding_GetChars_m3765282346
mOe:_IntPtr__ctor_m4104029105
K1h:_InternalEnumerator_1_System_Collections_IEnumerator_get_Current_m771161214_AdjustorThunk
_We:_MonoType_get_attributes_m1493788675
jKa:__ZN20ArchiveStorageReader10InitializeER15FileSystemEntryyb
k4d:_Convert_ToDouble_m4236754739
TGd:_Dropdown_CreateItem_m2702141380
Ztg:__ZL48Stack_t1043988394_CustomAttributesCacheGeneratorP21CustomAttributesCache
Do:FUNCTION_TABLE_viifi
cmg:_MonoEvent_GetAddMethod_m4289563120
dsg:__ZL37Type_t_CustomAttributesCacheGeneratorP21CustomAttributesCache
B3c:_UNITY_tt_face_free_hdmx
dNc:__ZNSt3__26__sortIRN18Overlap2DQueryBase29ColliderHitsByDepthComparitorEPP10Collider2DEEvT0_S7_T_
mhj:__ZN6il2cpp2vm14TypeNameParser5ParseEb
xNh:_ReflectionMethodsCache__ctor_m1835220
egd:__ZN23UnityPurchasingSettingsC2Ev
Dce:_Double_ToString_m1864290157
Uji:_Application_LoadLevel_m2369150774
vMj:__ZN6il2cpp2os5Mutex6UnlockEv
Q0b:__ZL10RenderFaceR9GfxDeviceR18MaterialStateCacheP13RenderTextureiif
ZDi:_SpriteAtlasManager__cctor_m453260161
Fwj:__ZNK24NamespaceAndNamePairHashclERKNSt3__24pairIPKcS3_EE
Uqa:__ZL37stbir__resample_horizontal_downsampleP11stbir__infoiPf
Hib:__ZNK5Unity9Component38MarkGameObjectAndComponentDependenciesER27GarbageCollectorThreadState
W2:__ZL16OutOfMemoryErrorjj18MemLabelIdentifieriPKc
hhd:__ZN20UnityWebRequestProtoI24UnityWebRequestTransport16AtomicRefCounter14RedirectHelper14ResponseHelper15DownloadHandler13UploadHandler12HeaderHelper14AsyncOperationED0Ev
xYd:_SynchronizedArrayListWrapper_Contains_m2259439339
t8:__ZNK11TypeManager15ClassNameToRTTIEPKcb
qHb:__Z18Transfer_BlittableI18StreamedBinaryReadILb0EELb1EdEvRK29SerializationCommandArgumentsR31RuntimeSerializationCommandInfo
ZZj:_emscripten_glVertexAttrib2fv__wrapper
bJe:_Guid__ctor_m2599802704
OQe:_FileStream_get_CanRead_m4148920720
_pa:__ZN4crnd12symbol_codec32decode_receive_static_data_modelERNS_25static_huffman_data_modelE
Y5b:__ZN18ScriptingArguments8AddFloatEf
sHe:_GregorianCalendar_set_CalendarType_m2438362222
the:_Array_InternalArray__ICollection_Contains_TisVector2_t2243707579_m3625698589_gshared
Zbd:__ZN11UnityEngine15PlatformWrapper16GetVRRenderScaleEv
Qxc:__Z18Transfer_BlittableI9JSONWriteLb0EaEvRK29SerializationCommandArgumentsR31RuntimeSerializationCommandInfo
AY:__ZN11UnityEngine15CloudWebService14DataDispatcher34OnSessionContainerArchivedAndReadyERNS0_16SessionContainerE
lEc:__ZN7b2World11CreateJointEPK10b2JointDef
Z0i:_RectTransformUtility_PixelAdjustPoint_m1375786599
dIe:_NumberFormatInfo_GetFormat_m3247563525
vyf:_CipherSuiteCollection__ctor_m2154226461
Kjb:__ZN14SafeBinaryRead19TransferSTLStyleMapINSt3__23mapIN4core12basic_stringIcNS3_20StringStorageDefaultIcEEEEiNS1_4lessIS7_EENS1_9allocatorINS1_4pairIKS7_iEEEEEEEEvRT_17TransferMetaFlags
vXc:_gray_move_to
Wid:_DSAParameters_t1872138834_marshal_pinvoke
hdi:_ConstructionCall_InitDictionary_m4046452035
qmj:__ZN6il2cpp2vm10Reflection14GetEventObjectEP11Il2CppClassPK9EventInfo
Ozf:_TlsStream_Write_m2271546135
Wjc:__Z30RegisterValidateMethodCallbackiPF18ScriptingMethodPtrS_17ScriptingClassPtrP6ObjectEPKc
xfe:_CultureInfo_ConstructInternalLocaleFromCurrentLocale_m1342751405
$0f:_Latin1Encoding_GetString_m3553289597
JNh:_GetRayIntersectionAllNonAllocCallback_Invoke_m1247446986
UYc:_tt_cmap_init
gCc:__ZN8JSONRead8TransferI9BoundsIntEEvRT_PKc17TransferMetaFlagsb
Ka:invoke_viidi
kyj:__ZN15dense_hashtableI10KeyWrapperIP18Il2CppGenericClassES3_N6il2cpp8metadata22Il2CppGenericClassHashEN14dense_hash_setIS3_S6_NS3_14EqualsComparerINS5_25Il2CppGenericClassCompareEEENSt3__29allocatorIS3_EEE8IdentityESA_SD_E12maybe_shrinkEv
UEb:__Z29Transfer_Blittable_ArrayFieldI18StreamedBinaryReadILb1EEdEvRT_R9ArrayInfoRK23StaticTransferFieldInfo
MP:__ZN9AudioClip7CleanupEv
wFi:_Vector4_set_Item_m1525226067_AdjustorThunk
c2j:_emscripten_glCheckFramebufferStatus__wrapper
_qj:__ZNK15dense_hashtableINSt3__24pairIK10KeyWrapperIP11Il2CppClassES4_EES5_N6il2cpp8metadata16SZArrayClassHashEN14dense_hash_mapIS5_S4_SA_NS5_14EqualsComparerINS9_19SZArrayClassCompareEEENS0_9allocatorIS7_EEE9SelectKeyESE_SG_E12test_deletedEj
JAc:__Z18Transfer_BlittableI8JSONReadLb0EdEvRK29SerializationCommandArgumentsR31RuntimeSerializationCommandInfo
xph:__Z83RuntimeInvoker_Boolean_t3825574718_NavigationU26_t3929175072_Navigation_t1571958496PFvvEPK10MethodInfoPvPS4_
SI:__ZN7mecanim9animation21BlendTreeNodeConstant35Transfer_4_0_BackwardsCompatibilityI14SafeBinaryReadEEvRT_
D4f:_Thread_ClrState_m822263449
bye:_SimpleCollator_LastIndexOfOrdinalIgnoreCase_m550798345
_bj:__ZN6il2cpp2vm21ThreadPoolCompartment13QueueWorkItemEP17Il2CppAsyncResult
Vha:__ZNK9GfxDevice13GetViewMatrixEv
Yki:_Bounds_Encapsulate_m17114941
Fhb:__ZN17RemapPPtrTransferC2E24TransferInstructionFlagsb
uI:__ZN14SafeBinaryRead21TransferSTLStyleArrayI22OffsetPtrArrayTransferIiEEEvRT_17TransferMetaFlags
v9:__ZN8TypeTree8BlobReadERPKhS1_ib
egb:__ZN18LoadSceneOperation23GetAllowSceneActivationEv
xPa:__ZN6CameraD0Ev
cNi:_GUILayoutUtility_Begin_m659595645
Cze:_ModulusRing_Multiply_m386339435
Tea:__ZN31CanvasBatchIntermediateRenderer16StaticInitializeEPv
jJd:_GraphicRaycaster_U3CRaycastU3Em__0_m3971200721
lof:_ReadOnlyCollection_1_System_Collections_IList_RemoveAt_m3004588099_gshared
KA:__ZN7mecanim12AndValueMaskILb0EEEvPKNS_14ValueArrayMaskEPS1_
nfb:__ZN14SafeBinaryRead21TransferSTLStyleArrayINSt3__26vectorIi13stl_allocatorIiL18MemLabelIdentifier13ELi16EEEEEEvRT_17TransferMetaFlags
S3d:_Decimal_op_Implicit_m4246329390
fHe:_ArgumentNullException__ctor_m2252076819
Q1b:__ZN10GameObjectC2E18MemLabelIdentifier18ObjectCreationMode
d4c:_raccess_guess_apple_double
cHf:_ListDictionary_GetEnumerator_m1511032609
pXf:_SerializationInfo__ctor_m4016423422
hua:__ZL18ProgramUniform1uivPK7ApiGLESjiihPKv
gbc:__ZN14Texture2DArray13RebuildMipMapEv
d6i:__ZN13Il2CppHashSetIPK17Il2CppGenericInstN6il2cpp8metadata21Il2CppGenericInstHashENS4_24Il2CppGenericInstCompareENSt3__29allocatorI10KeyWrapperIS2_EEEEC2EjRKS5_RKS6_
HCj:__ZN6il2cpp2gc16GarbageCollector14RemoveWeakLinkEPPv
Xnb:__ZN9ShaderLab20SerializedSubProgram14AddVectorParamEPKcii15ShaderParamTypei
Uqf:_ReadOnlyCollection_1_System_Collections_IEnumerable_GetEnumerator_m1734360860_gshared
R7h:_ResourceSet_ReadResources_m1669023823
rFe:_PKCS12_RemoveCertificate_m1590055870
Mrj:__ZN6il2cpp2vm6Thread7SetNameEP12Il2CppThreadP12Il2CppString
gMb:__ZN13ScreenManager18SetAllowCursorLockEb
UZ:__ZN11UnityEngine15CloudWebService10RestClientINS0_23WebRequestRestHeaderMapEE16SetRequestHeaderERKN4core12basic_stringIcNS4_20StringStorageDefaultIcEEEESA_
sfb:__ZN30RuntimeInitializeOnLoadManager15ClassMethodInfo8TransferI14SafeBinaryReadEEvRT_
a2g:__ZL73CanvasScaler_t2574720772_CustomAttributesCacheGenerator_m_ScreenMatchModeP21CustomAttributesCache
uW:__ZL22InitializeModule_Audiov
rsb:__ZN16MemoryFileSystem8IsLockedERK13FileEntryData
utj:__ZN6il2cpp6icalls8mscorlib6System2IO6MonoIO5WriteEiP11Il2CppArrayiiPi
Mlg:_MonoCMethod_Invoke_m931478014
f6g:__Z86RuntimeInvoker_Int32_t2071877448_Int16_t4041245914_Int32_t2071877448_Int32_t2071877448PFvvEPK10MethodInfoPvPS4_
Y7h:_SatelliteContractVersionAttribute__ctor_m2605651717
Yk:_emscripten_glBindRenderbuffer
_Pg:__ZL77RuntimePlatform_t1869584967_CustomAttributesCacheGenerator_OSXDashboardPlayerP21CustomAttributesCache
bJj:_GC_dirty_init
_Qd:_Array_Copy_m1969461849
JWf:_MessageFormatter_ReadMethodResponse_m4134629501
Jzj:__ZN6il2cpp2vm5Field14GetValueObjectEP9FieldInfoP12Il2CppObject
H8c:__ZNK2UI6Canvas16GetTargetDisplayEv
Hti:_PKCS12_GetSymmetricAlgorithm_m3196291685
Lde:_Environment_get_OSVersion_m1247315981
Kca:__ZN6Object17FindObjectsOfTypeEPKN5Unity4TypeER13dynamic_arrayIPS_Lj4EEb
wyc:__ZN9JSONWrite8TransferI4PPtrI9Texture2DEEEvRT_PKc17TransferMetaFlags
rJb:__ZN13MonoBehaviour17RemoveFromManagerEv
hQa:__ZN12ImageFilters14AddImageFilterERK11ImageFilter
D4a:__ZL11DecodeValuePPKcS0_
xzh:_ShimEnumerator_MoveNext_m2013866013_gshared
$0:__ZN13MemoryManagerC2Ev
Exa:__ZN12SkinMeshInfo10DeallocateEPS_
DJa:__ZN20ArchiveStorageReader28AcquireAndPrefillUnusedBlockEjPNS_11CacheResultE
abc:__Z12NHxRoughnessIA4_tEvP9Texture2DPT_iiii
BUi:_AudioSource_PlayOneShot_m3607847055
eda:__ZN18AsyncUploadManagerD2Ev
Vpb:__ZN9Transform5ResetEv
fBb:__Z22TransferField_NonArrayI24GenerateTypeTreeTransfer16Converter_StringEvRK23StaticTransferFieldInfoR31RuntimeSerializationCommandInfoRT0_
KYc:_UNITY_FT_CMap_New
$Lb:__Z17MainLoopKeepalivePv
Jdi:_MatchCollection__ctor_m1944681790
fkd:_HMACSHA512__ctor_m1667460019
bPj:_printf_core
QXe:_MonoType_ToString_m473949831
Y_b:__Z14CalcHullBoundsPK8Vector3fPKhhRK5PlaneRK10Matrix4x4fR10MinMaxAABB
HUf:_RealProxy__ctor_m2147093603
KTb:__Z19SetupLODFadeKeywordR17ShaderPassContexti
HHj:_GC_set_fl_marks
hxa:__ZL25CheckCopyTextureArgumentsRK7ApiGLESP11GLESTextureS3_
Jgb:__ZN13dynamic_arrayI26EnlightenSystemInformationLj8EE6insertEPS0_PKS0_S4_
oYc:_tt_name_entry_ascii_from_utf16
aYe:_MulticastNotSupportedException__ctor_m2164514827
N6d:_DateTime_System_IConvertible_ToChar_m2489529194_AdjustorThunk
EAb:__Z29Transfer_Blittable_ArrayFieldI24GenerateTypeTreeTransferyEvRT_R9ArrayInfoRK23StaticTransferFieldInfo
xQ:__ZN4FMOD7SystemI9playSoundE17FMOD_CHANNELINDEXPNS_5SoundEbPPNS_7ChannelE
agi:_Regex_GetGroupIndex_m1686599756
IQg:__ZL68PreferBinarySerialization_t2472773525_CustomAttributesCacheGeneratorP21CustomAttributesCache
DJc:__ZN17PhysicsMaterial2D5ResetEv
JA:__ZN27AnimationLayerMixerPlayable17LayerMixerProcessEP35AnimationPlayableEvaluationConstantP32AnimationPlayableEvaluationInputP33AnimationPlayableEvaluationOutputM17AnimationPlayableFvS1_S3_S5_EMS_FvS1_S3_S5_ESA_MS_FvS5_S1_S3_S5_ifE
Ogj:__ZN6il2cpp2os4File4ReadEPNS0_10FileHandleEPciPi
ZO:__ZN12AudioManager23VirtualRedirectTransferER18StreamedBinaryReadILb0EE
g8a:__ZN10VertexData13SwapEndianessEv
yRj:_realloc
Zqc:__Z57Register_UnityEngine_Transform_INTERNAL_get_localRotationv
TQh:_ScrollRect_SetLayoutVertical_m1225848090
zwi:_Plane_ToString_m4267831659_AdjustorThunk
c7f:_Type_get_IsInterface_m3583817465
uVj:dynCall_viif
umg:_MonoField_get_DeclaringType_m1591666235
fRf:_Enumerator_MoveNext_m4234629003
W0c:_cf2_hint_lock
kyb:__ZL26Transfer_SimpleNativeClassI17RemapPPtrTransfer8GradientLb0EEvRK29SerializationCommandArgumentsR31RuntimeSerializationCommandInfo
tC:__ZN17AnimationPlayable26DisconnectNoTopologyChangeEPS_i
$We:_MonoType_GetDefaultConstructor_m925465120
P7f:_Type_IsArrayImpl_m3073208555
C_:__ZN13UploadHandlerD2Ev
PTj:dynCall_viiiiiffi
Dc:_emscripten_glBlendFuncSeparate
F5:__Z20scripting_string_newPKc
jpc:__Z43Material_CUSTOM_Internal_CreateWithMaterialP12Il2CppObjectS0_
LPe:_Directory_GetCurrentDirectory_m44486537
gdf:_Collection_1_System_Collections_ICollection_CopyTo_m1047946700_gshared
mwc:__ZN9JSONWrite12AppendToNodeEPN5Unity9rapidjson12GenericValueINS1_4UTF8IcEE13JSONAllocatorEEPKcRS6_
VJc:__ZN16PhysicsManager2D20GetRigidBodyVelocityERK11Rigidbody2D
IKf:_AsnEncodedData_Default_m4197142414
Cgj:__ZN6il2cpp2os4File17GetFileAttributesERKNSt3__212basic_stringIcNS2_11char_traitsIcEENS2_9allocatorIcEEEEPi
QF:__ZNSt3__26__sortIRPFbPKN8Animator11AnimatorJobES4_EPS4_EEvT0_S9_T_
eO:__ZN17AudioCustomFilterD2Ev
Tva:__ZN18GfxFramebufferGLES18ReleaseFramebufferEP17RenderSurfaceBaseP14GfxContextGLES
rbi:_Context_GetDynamicPropertyCollection_m1987747444
VLf:_X509Certificate2_get_Version_m1927399907
kDi:_Transform_get_eulerAngles_m2112588536
edc:__ZN13ProduceHelperI6CameraLb0EE7ProduceE18MemLabelIdentifier18ObjectCreationMode
RKd:_Image_RadialCut_m3229543088
_$:__ZN19CloudServiceHandler34HandleSaveFileWebRequestPlayerLoopEv
eC:__ZN7mecanim21ValueArrayReverseCopyEPKNS_18ValueArrayConstantEPKNS_10ValueArrayES2_PS3_PKi
ON:__Z31GetParentSampleClipFromInstancePN11SoundHandle8InstanceE
W8b:__ZNK28RectTransformPropertyBinding13GetFloatValueERKN11UnityEngine9Animation10BoundCurveE
l1b:__ZN6Camera22StandaloneCustomRenderENS_10RenderFlagEP6ShaderRKN4core12basic_stringIcNS3_20StringStorageDefaultIcEEEEPNS_21PerformRenderFunctionE
Keb:__ZNSt3__26vectorI4PPtrI6ObjectE13stl_allocatorIS3_L18MemLabelIdentifier52ELi16EEE6assignINS_11__wrap_iterIPS3_EEEENS_9enable_ifIXaasr21__is_forward_iteratorIT_EE5valuesr16is_constructibleIS3_NS_15iterator_traitsISD_E9referenceEEE5valueEvE4typeESD_SD_
RNj:__ZN6il2cpp2os16ThreadLocalValue8GetValueEPPv
qaj:__ZN6il2cpp2vm13MetadataCache14GetGenericInstEPKPK10Il2CppTypej
Cnd:_SHA384Managed_Initialize_m712692291
xW:__ZN13AudioListener17ReadExtensionNameEi
T9h:_ChannelInfo__ctor_m2502026239
Pb:invoke_iiidii
hp:setThrew
Uac:__ZL21BuildEmptyCubeTexturePKci11ColorRGBA3217TextureColorSpace
nLi:_Event_get_modifiers_m3267430607
Njb:__ZN14SafeBinaryRead21TransferSTLStyleArrayINSt3__26vectorIN9ShaderLab20SerializedSubProgramENS1_9allocatorIS4_EEEEEEvRT_17TransferMetaFlags
Izc:__Z15Transfer_StringI8JSONReadLb1EEvRK29SerializationCommandArgumentsR31RuntimeSerializationCommandInfo
Csa:__ZN6prcoreL17RemapGenericFloatI17TexFormatRGBFloat15TexFormatRGHalfEEvPKNS_9InnerInfoE
aVb:__Z25DoForwardShaderRenderLoopR17RenderLoopContextR13dynamic_arrayI16RenderObjectDataLj4EERK11CullResultsbbbN6Camera10RenderFlagE
WW:__Z36AudioSource_CUSTOM_PlayOneShotHelperP12Il2CppObjectS0_f
OXc:_sfnt_load_face
AEe:_PKCS12_GetSymmetricAlgorithm_m1812022677
U2f:_UTF8Encoding_GetByteCount_m2372933408
obi:_Context_get_NeedsContextSink_m1907794755
FXc:_UNITY_ft_service_list_lookup
wDi:_Transform_get_localScale_m46214814
ivf:_ARC4Managed_GenerateKey_m716135508
rtc:__ZN5IMGUI21SelectReceivingWindowER8GUIStateb
p1h:_InternalEnumerator_1_get_Current_m3179981210_gshared
A0:__ZN13BaseAllocator13TryDeallocateEPv
KQd:_Array_CreateInstance_m1054139389
fKi:_U3CStartU3Ec__Iterator0_Reset_m2580847683_gshared
dKd:_LayoutGroup_GetAlignmentOnAxis_m1783063916
pRa:__ZNSt3__26vectorIN12FlareManager10FlareEntryENS_9allocatorIS2_EEE21__push_back_slow_pathIKS2_EEvRT_
Fdg:_Default_check_arguments_with_score_m1714931543
ajd:_SHA1_Create_m4086509717
cng:_MonoMethodInfo_GetMethodInfo_m3298558752
GO:__ZN13AudioListener17RemoveFromManagerEv
xd:_glAttachShader
XGd:_Dropdown_SetAlpha_m2769981009
ONa:__ZNK6Camera19GetProjectionMatrixEv
A$i:_Predicate_1_BeginInvoke_m1856151290_gshared
Fbe:_StackTrace__ctor_m2404985356
B7:__Z38PreallocateObjectFromPersistentManagerib
$6d:_DateTime_System_IConvertible_ToSingle_m3927769066
e0a:__ZNK9Texture2D20GetUnscaledTextureIDEv
k5d:_Convert_ToSByte_m883113940
X$i:_Canvas_get_renderOrder_m2592588836
SXe:_MonoType_get_ContainsGenericParameters_m3229732653
xcf:_Queue_1_Peek_m1463479953_gshared
z3i:_Animator_ResetTriggerString_m946167554
z$g:__ZL53InputField_t1631627530_CustomAttributesCacheGeneratorP21CustomAttributesCache
GLi:_GUI_set_skin_m929513544
wCd:_ButtonClickedEvent__ctor_m938038541
_ch:__Z119RuntimeInvoker_Int32_t2071877448_RuntimeObject_Int32_t2071877448_Int32_t2071877448_CharU26_t1894467670_SByte_t454417549PFvvEPK10MethodInfoPvPS4_
C8f:_UInt16_System_IConvertible_ToDouble_m4100549304_AdjustorThunk
Wgb:__Z29ClearRepeatingLogMessageStatev
csd:_Single_System_IConvertible_ToInt16_m962677079
xca:__ZN21EnlightenSceneMappingaSERKS_
hOj:__ZNK6il2cpp8metadata21Il2CppGenericInstHashclEPK17Il2CppGenericInst
qsd:_Single_System_IConvertible_ToUInt32_m2447833283
NBa:__ZN7ApiGLESD2Ev
JLa:__ZN9Transform47ClearTransformHierarchyAndApplyToSerializedDataEv
M$h:_InternalEnumerator_1_get_Current_m4083613828_AdjustorThunk
XAc:__ZN8JSONRead21TransferSTLStyleArrayINSt3__26vectorI8MonoPPtr13stl_allocatorIS3_L18MemLabelIdentifier1ELi16EEEEEEvRT_17TransferMetaFlags
DPa:__ZN6Camera23VirtualRedirectTransferER19StreamedBinaryWriteILb0EE
KVj:dynCall_fidi
vjj:__ZN15dense_hashtableINSt3__24pairIK10KeyWrapperINS1_IPK9FieldInfoP11Il2CppClassEEEjEES9_17ReflectionMapHashIS8_EN14dense_hash_mapIS9_jSD_NS9_14EqualsComparerINS0_8equal_toIS8_EEEENS0_9allocatorISB_EEE9SelectKeyESI_SK_E12resize_deltaEjj
FOa:__ZN15dense_hashtableINSt3__24pairIKN9ShaderLab7Program23ShaderKeywordSetAndHashEPKNS2_10SubProgramEEES4_NS3_24ShaderKeywordHashFunctorEN14dense_hash_mapIS4_S8_SA_NS0_8equal_toIS4_EE13stl_allocatorIS9_L18MemLabelIdentifier67ELi16EEE9SelectKeyESD_SG_E15insert_noresizeERKS9_
qWa:__ZN13RenderTexture12SetDimensionE16TextureDimension
me:_SDL_FreeRW
RCe:_PKCS1_OS2IP_m1273945439
cnd:_SHA1Internal_FillBuff_m891541953
X9c:__Z34CanvasRenderer_Get_Custom_PropCullP12Il2CppObject
gU:__ZN20SoundChannelInstance8getDelayE14FMOD_DELAYTYPEPjS1_
WLd:_InputField_set_customCaretColor_m3534590098
DPh:_ScrollRect_set_viewport_m323693490
PLe:_NumberFormatter_FormatExponential_m3975285307
SSc:__ZNSt3__26vectorIN20TextRenderingPrivate8FontImpl13CharacterInfoE13stl_allocatorIS3_L18MemLabelIdentifier1ELi16EEE8__appendEj
v:tempBigInt
ue:_emscripten_glVertexAttrib1fv
Dri:_Mesh_CheckCanAccessSubmesh_m764012688
skb:__ZNSt3__26vectorIN9ShaderLab20SerializedSubProgram12UAVParameterENS_9allocatorIS3_EEE7reserveEj
JSj:__ZSt11__terminatePFvvE
RDg:__ZL99Thread_t241561612_CustomAttributesCacheGenerator_Thread_t241561612____ExecutionContext_PropertyInfoP21CustomAttributesCache
XQ:__ZN12AudioManager14systemCallbackEP11FMOD_SYSTEM24FMOD_SYSTEM_CALLBACKTYPEPvS3_
nYi:__ZL25UnresolvedVirtualCall_195P12Il2CppObjectfPK10MethodInfo
GVa:__ZN16ReflectionProbes16UpdateSampleDataEv
k9h:_SafeHandle_Finalize_m1839546519
Zbi:_Context_AllocateNamedDataSlot_m3200404053
pvf:_CryptoConvert_ToHex_m2874017189
TKf:_X509EnhancedKeyUsageExtension_Decode_m3866320499
LLe:_NumberFormatter_AppendIntegerStringWithGroupSeparator_m1401773574
Re:_JS_Sound_Play
eLd:_Image_IsRaycastLocationValid_m864962354
k9g:__Z181RuntimeInvoker_Void_t1841601450_RuntimeObject_Int32_t2071877448_Int32_t2071877448_RuntimeObject_Int32_t2071877448_Int32_t2071877448_RuntimeObject_Int32_t2071877448_Int32_t2071877448PFvvEPK10MethodInfoPvPS4_
ojb:__ZN9ShaderLab16SerializedShader8TransferI14SafeBinaryReadEEvRT_
iF:__ZN7mecanim8skeleton13SkeletonAlignEPKNS0_8SkeletonERKN4math7_float4ES7_i
Mbc:__ZN19ShaderPropertySheet16SetVectorIndexedEN9ShaderLab16FastPropertyNameEifRK8Vector4fNS_8SetFlagsE
bVf:_RemotingConfiguration_RegisterWellKnownServiceType_m2491506630
Dyg:__ZL55_TypeBuilder_t2783404358_CustomAttributesCacheGeneratorP21CustomAttributesCache
Npj:__ZN15dense_hashtableINSt3__24pairIK10KeyWrapperINS1_IP11Il2CppClassjEEES4_EES6_N6il2cpp8metadata14ArrayClassHashEN14dense_hash_mapIS6_S4_SB_NS6_14EqualsComparerINSA_17ArrayClassCompareEEENS0_9allocatorIS8_EEE9SelectKeyESF_SH_E9copy_fromERKSK_j
nPd:_LayoutRebuilder_Initialize_m2671585490
y5e:_List_1_System_Collections_IList_IndexOf_m4061554721_gshared
H$:__ZN11UnityEngine15CloudWebService14DataDispatcher4StopEv
ukb:__ZNSt3__26vectorIN9ShaderLab20SerializedSubProgram12UAVParameterENS_9allocatorIS3_EEE8__appendEj
jpd:_X509Certificate_ToString_m1582581274
nBh:_Enumerator_get_Current_m2986380627_gshared
TGa:__ZN17ScriptingGCHandle7AcquireE18ScriptingObjectPtr25ScriptingGCHandleWeakness
_ai:_LifetimeServices_set_LeaseTime_m1487876644
Qeg:_ConstructorBuilder_not_supported_m3687319507
K4c:__ZN13ProduceHelperIN20TextRenderingPrivate8TextMeshELb0EE7ProduceE18MemLabelIdentifier18ObjectCreationMode
T7c:__ZN2UI14CanvasRenderer14AttachToCanvasER8JobFencePNS_6CanvasENS0_15InstructionTypeE
DKc:__ZN25SyncColliderTransformData3JobEPS_jPK23TransformAccessReadOnlyPKyj
hsd:_Single_System_IConvertible_ToInt64_m3555853323_AdjustorThunk
FUj:dynCall_iifiii
Cqa:__Z21HasAlphaTextureFormat13TextureFormat
MV:__ZN12AudioManager6UpdateEv
vqa:__ZN14ImageReference9BlitImageERKS_NS_8BlitModeE
uw:__ZN8Animator12AddToManagerEv
kKb:__ZN23CachedSerializationDataD2Ev
l0b:__ZNK25CameraStackRenderingState31CalculateStereoCameraTargetTypeEv
hVa:__ZN14RenderSettings23VirtualRedirectTransferER14SafeBinaryRead
kJc:__ZNK13b2CircleShape5CloneEP16b2BlockAllocator
xBj:__ZN6il2cpp2os10ThreadImpl15CurrentThreadIdEv
ghe:_Array_InternalArray__ICollection_Contains_TisColor32_t874517518_m2818328910_gshared
HTi:_AudioExtensionManager_WriteExtensionProperties_m4015275001
G3c:_UNITY_tt_face_load_fpgm
yLa:__Z17IsObjectAvailablei
Lbb:__ZN12InputManagerD0Ev
rjj:__ZN15dense_hashtableINSt3__24pairIK10KeyWrapperINS1_IPK9FieldInfoP11Il2CppClassEEEjEES9_17ReflectionMapHashIS8_EN14dense_hash_mapIS9_jSD_NS9_14EqualsComparerINS0_8equal_toIS8_EEEENS0_9allocatorISB_EEE9SelectKeyESI_SK_E4findERSA_
pFd:_DefaultControls_CreateUIObject_m2810394112
sPa:__ZNK16LightmapSettings14GetLightProbesEv
P1f:_UnicodeEncoding_GetBytes_m1337660232
DRj:_posix_memalign
acc:__ZN13ProduceHelperI12MeshRendererLb0EE7ProduceE18MemLabelIdentifier18ObjectCreationMode
W4h:_InternalEnumerator_1_get_Current_m747506907_AdjustorThunk
Rji:_LogCallback_Invoke_m115567905
E7:__ZNK15MonoScriptCache7ReleaseEv
T4i:__ZN6il2cpp2vm5Class13HasReferencesEP11Il2CppClass
eg:_glBindTexture
RPj:_snprintf
DMd:_InputField_set_caretPosition_m888572237
fig:_ILGenerator__cctor_m3943061018
LXd:_ArrayListWrapper_Clone_m1506311066
Q0i:_CanvasRenderer_CreateUIVertexStream_m2882962535
tib:__Z36scripting_liveness_calculation_begin17ScriptingClassPtriPFvPP12Il2CppObjectiPvES3_PFvvES7_
tza:__ZN16UniformCacheGLES6CreateERK20GpuProgramParameters
b3f:_UTF8Encoding_Fallback_m811555654
jJ:__ZN7mecanim12statemachine13StateConstant8TransferI24GenerateTypeTreeTransferEEvRT_
sme:_Array_InternalArray__IndexOf_TisPlayableBinding_t2498078091_m398853908_gshared
F0f:_Encoding_GetString_m1894033578
Kof:_ReadOnlyCollection_1_System_Collections_IList_Clear_m1918003010_gshared
xYj:_emscripten_glGetProgramInfoLog__wrapper
yDi:_Transform_set_localScale_m1442831667
QK:__ZN25AnimatedPropertyEvaluator29BindCurveToScriptingObjectPtrERKN13AnimationClip10FloatCurveEj18ScriptingObjectPtrb
f3f:_UTF8Encoding_InternalGetChars_m373801468
O8:__ZN17PersistentManager23DestroyFromFileInternalEi
Q9d:_Decimal_System_IConvertible_ToChar_m2425091200_AdjustorThunk
pVb:__Z19SetupMotionMatricesR6CameraR18RPDataMotionVector
Dde:_Enum_ToString_m2112979707
PSf:_MonoMethodMessage_get_MethodName_m3580519713
xG:__ZN26AnimatorControllerPlayable18PrepareForPlaybackERN7mecanim6memory9AllocatorE
hkd:_HMACSHA512__cctor_m1167457383
Y2f:_UTF8Encoding_GetBytes_m4170182058
_4e:_List_1_IndexOf_m2418862432_gshared
ROa:__ZN22CreateGpuProgramOutputC2Ev
DNf:_X509Chain__ctor_m2242540866
_Re:_MemoryStream_InternalConstructor_m2423667240
KTf:_SoapMethodAttribute_SetReflectionObject_m3431595769
dSh:_Slider_set_maxValue_m2951480075
Gcc:__ZN8GUILayer12CleanupClassEv
RNd:_InputField_OnSubmit_m2856515494
S4i:__ZN6il2cpp2vm5Class4InitEP11Il2CppClass
ha:invoke_vidi
i8c:__ZN2UI14CanvasRenderer17SyncDirtyElementsER8JobFence
gEd:_ColorBlock_op_Inequality_m1517672458
YEj:__ZN6il2cpp5utils11StringUtils15StringDuplicateEPKc
G1b:__Z15CanAddComponentR10GameObjectPKN5Unity4TypeE
gOa:__ZNK9ShaderLab21ShaderRasterStateDesc16ToGfxRasterStateEPK19ShaderPropertySheetS3_R14GfxRasterState
y1:_tlsf_memalign
w_f:_CspParameters__ctor_m2480441577
YNj:__ZN6il2cpp2os9EventImplC2Ebb
Abi:_DynamicPropertyCollection_NotifyMessage_m840388347
oii:_Uri_ParseUri_m5711497
qih:__Z98RuntimeInvoker_RuntimeObject_RuntimeObject_RayU26_t3651946800_Single_t2076509932_Int32_t2071877448PFvvEPK10MethodInfoPvPS4_
Xs:__ZNSt3__26vectorIN13AnimationClip9PPtrCurveE13stl_allocatorIS2_L18MemLabelIdentifier26ELi16EEE6resizeEj
l4:__Z20IsMatrixBuiltinParamPKcPi
tbc:__ZN8Renderer19PostInitializeClassEv
CWh:_InternalEnumerator_1_get_Current_m1943362081_AdjustorThunk
lKj:__ZN6il2cpp6icalls8mscorlib6System8Delegate23CreateDelegate_internalEP20Il2CppReflectionTypeP12Il2CppObjectP22Il2CppReflectionMethodb
zdg:_Default_check_type_m2363631305
FJb:__ZN18DelayedCallManager18CancelCallDelayed2E4PPtrI6ObjectEPF15CallObjectStatePS1_PvES7_
MEa:__ZN25ThreadsafeLinearAllocator10ReallocateEPvji
Ntb:__Z18Transfer_BlittableI14SafeBinaryReadLb1E11QuaternionfEvRK29SerializationCommandArgumentsR31RuntimeSerializationCommandInfo
Mga:__ZN18SpriteAtlasManagerD0Ev
ume:_Array_InternalArray__IndexOf_TisRaycastHit2D_t4063908774_m3739817942_gshared
Bng:_MonoProperty_GetAccessors_m3704698731
OJj:_GC_disable
r8a:__ZN10Matrix4x4f8TransferI14SafeBinaryReadEEvRT_
sQc:__ZN15dense_hashtableINSt3__24pairIKNS1_IPK10Collider2DS4_EEjEES5_NS2_23ColliderPairHashFunctorEN14dense_hash_mapIS5_jS8_NS0_8equal_toIS5_EE13stl_allocatorIS7_L18MemLabelIdentifier67ELi16EEE9SelectKeyESB_SE_E9copy_fromERKSH_j
pVe:_UnmanagedMemoryStream_ReadByte_m2501145010
TWf:_ObjectRecord_UnchainFixup_m3025030310
uG:__ZN14AvatarPlayback8StopTimeEv
Zaa:__Z6AppendRKN4core12basic_stringIcNS_20StringStorageDefaultIcEEEEPKc
pih:__Z81RuntimeInvoker_RuntimeObject_Ray_t2469606224_Single_t2076509932_Int32_t2071877448PFvvEPK10MethodInfoPvPS4_
Nli:_Color_ToString_m55788918_AdjustorThunk
Una:__ZN7ApiGLES18ClearBufferSubDataEjN2gl12BufferTargetEll
dlc:__Z37Camera_Get_Custom_PropAllCamerasCountv
g7a:__ZN14Texture2DArray8TransferI18StreamedBinaryReadILb0EEEEvRT_
Zrj:__ZN6il2cpp6icalls8mscorlib6System5Array9GetLengthEP11Il2CppArrayi
wZb:__Z18ApplyOcclusionMaskR19ProbeOcclusionCacheRK17LightProbeContextRK10RenderNodeb
tRe:_FileStreamAsyncResult__ctor_m1096228032
v_c:_Split_Cubic
eb:invoke_fiiii
r9d:_DBNull_System_IConvertible_ToSByte_m1228193074
lff:_Collection_1__ctor_m2818834331_gshared
vhh:__Z68RuntimeInvoker_UInt16_t986882611_UInt16_t986882611_UInt16_t986882611PFvvEPK10MethodInfoPvPS4_
iIi:_UnityAction_1_Invoke_m3979091955_gshared
VQe:_FileStream_FlushBuffer_m2594140542
LFj:__ZN6il2cpp2vm8Profiler12GCHeapResizeEx
RVj:dynCall_viiifi
vva:__ZN18GfxFramebufferGLES20ActiveContextChangedEPP17RenderSurfaceBaseS2_
iva:__Z19PluginsRenderMarkeri
yL:__ZN10HumanTrait18InitializeBoneNameEv
Yti:_X509CertificateEnumerator_get_Current_m3129374511
zxj:__ZNSt3__214__split_bufferIN6il2cpp2vm5Image20EmbeddedResourceDataERNS_9allocatorIS4_EEEC2EjjS7_
VJd:_HorizontalOrVerticalLayoutGroup_get_spacing_m2859152439
Lxg:__ZL57DispIdAttribute_t607560947_CustomAttributesCacheGeneratorP21CustomAttributesCache
mO:__ZN12AudioManager17RemoveAudioSourceEP11AudioSource
IMi:_GUILayoutEntry_SetVertical_m861127195
POi:_AesManaged_get_KeySize_m2773901127
xve:_Array_InternalArray__get_Item_TisUInt64_t2909196914_m2580870875_gshared
P9b:__ZN13ProduceHelperI14SpriteRendererLb0EE7ProduceE18MemLabelIdentifier18ObjectCreationMode
BX:__ZN5physx14PxLightCpuTask12addReferenceEv
pMc:__Z10b2DistanceP16b2DistanceOutputP14b2SimplexCachePK15b2DistanceInput
p2a:__ZN21EnlightenSceneMapping8TransferI19StreamedBinaryWriteILb0EEEEvRT_
_yj:__ZN6il2cpp2gc16GarbageCollector19InitializeFinalizerEv
gC:__ZN7mecanim8skeleton18CreateSkeletonMaskEjPKNS0_19SkeletonMaskElementERNS_6memory9AllocatorE
Psc:__ZN10GUIManager10DoGUIEventER10InputEventb
Ezb:__Z35Transfer_Blittable_FixedBufferFieldI24GenerateTypeTreeTransferxEvRK29SerializationCommandArgumentsR31RuntimeSerializationCommandInfo
L3c:_UNITY_TT_Init_Glyph_Loading
pUb:__Z20CalculateSqrDistanceRK8Vector3fRK4AABB
zS:__Z32AudioMixerDuckingProcessCallbackP21UnityAudioEffectStatePfS1_jii
meg:_CustomAttributeTypedArgument_GetHashCode_m999147081_AdjustorThunk
xac:__ZN26CustomRenderTextureManagerD2Ev
cRe:_FileStream_Read_m3880951166
mUi:_AudioExtensionManager_Update_m3727859914
cP:__ZN12AudioManager8TransferI24GenerateTypeTreeTransferEEvRT_
Epa:__Z25GetBytesFromTextureFormat13TextureFormat
Rsj:__ZN6il2cpp6icalls8mscorlib6System9Threading6Thread20Thread_free_internalEP12Il2CppThreadi
RTj:dynCall_iiffi
JK:__ZN16MecanimAnimation25RegisterIAnimationBindingEPKN5Unity4TypeEiP17IAnimationBinding
D8:__Z32scripting_class_get_assemblyname17ScriptingClassPtr
$bd:__ZN11UnityEngine15PlatformWrapper15GetVRDeviceNameEv
CDh:_Dictionary_2_Resize_m2532139610_gshared
Yqi:_Mathf_RoundToInt_m1833913145
i6f:_TimeSpan_Equals_m2029123271_AdjustorThunk
Paj:__ZN6il2cpp2vm13MetadataCache23GetInvokerMethodPointerEPK10MethodInfoPK20Il2CppGenericContext
OAa:__ZN9GfxDevice21RegisterNativeTextureE9TextureIDi16TextureDimension
tfe:_CultureInfo__ctor_m456863818
tLj:__ZN6il2cpp6icalls8mscorlib6System10Reflection4Emit11TypeBuilder20create_generic_classEP27Il2CppReflectionTypeBuilder
O$e:_Enumerator_MoveNext_m2504790928_gshared
fX:__Z60Register_UnityEngine_AudioListener_GetNumExtensionPropertiesv
Xi:_emscripten_glUniformMatrix4fv
aqj:__ZN15dense_hashtableINSt3__24pairIK10KeyWrapperINS1_IP11Il2CppClassjEEES4_EES6_N6il2cpp8metadata14ArrayClassHashEN14dense_hash_mapIS6_S4_SB_NS6_14EqualsComparerINSA_17ArrayClassCompareEEENS0_9allocatorIS8_EEE9SelectKeyESF_SH_E13set_empty_keyERKS8_
Gob:__ZN12ScriptMapperD2Ev
Mjd:_KeyedHashAlgorithm_Dispose_m1864300576
Rti:_X509Certificate_PEM_m49854707
WKf:_X509BasicConstraintsExtension__ctor_m3320418592
$si:_ExtendedKeyUsageExtension_Decode_m901297139
kqc:__Z52Register_UnityEngine_RenderTexture_Internal_GetWidthv
yIj:_GC_check_leaked
Ymb:__ZN9ShaderLab20SerializedSubProgram16TextureParameter8TransferI19StreamedBinaryWriteILb0EEEEvRT_
fqe:_Array_InternalArray__Insert_TisVector4_t2243707581_m1643342708_gshared
VDa:__ZNK7Hash12812PackToUInt32Ev
I4c:__ZZN20TextRenderingPrivate8TextMesh15InitializeClassEvEN31FunctorImpl_299kDidAddComponent4CallEPviR11MessageData
saa:__ZNSt3__227__insertion_sort_incompleteIRNS_6__lessI14ObjectLoadDataS2_EEPS2_EEbT0_S6_T_
P$:__ZN11UnityEngine15CloudWebService16SessionContainer8AddEventEPNS0_14CloudEventInfoE
vza:__Z4TrimRKN4core12basic_stringIcNS_20StringStorageDefaultIcEEEES5_
lTh:_Text_set_resizeTextMaxSize_m4034967714
Esg:__ZL55GuidAttribute_t222072359_CustomAttributesCacheGeneratorP21CustomAttributesCache
Zdg:_CustomAttributeNamedArgument_Equals_m2691468532
F5a:__ZN10VertexData8TransferI14SafeBinaryReadEEvRT_
rQ:__ZN4FMOD8ChannelI8setDelayE14FMOD_DELAYTYPEjj
M0d:_Stack__ctor_m2410583781
sJj:_GC_malloc_atomic
xdg:_Default_GetBetterMethod_m4255740863
$eg:_ConstructorBuilder_GetILGenerator_m1731893569
Bxj:__ZNSt3__214__split_bufferIN6il2cpp2vm5Image20EmbeddedResourceDataERNS_9allocatorIS4_EEED2Ev
E6:__ZL20SortItemByInstanceIDRKN18AwakeFromLoadQueue4ItemES2_
dkg:_TypeBuilder_create_runtime_class_m2719530260
gmd:_RNGCryptoServiceProvider_RngClose_m2921734810
sC:__ZNK34AnimationStateMachineMixerPlayable26GetInterruptedPosePlayableEv
Xed:__ZN20UnityConnectSettings8TransferI24GenerateTypeTreeTransferEEvRT_
LE:__ZN34BlobWriteTransferSTLStyleArrayImplI22OffsetPtrArrayTransferIbEEclERS1_17TransferMetaFlagsR9BlobWrite
pxe:_SimpleCollator_IsHalfKana_m4255579023
jdf:_Collection_1_System_Collections_IList_Contains_m3365884450_gshared
bIa:__Z16FlaggedAsSkippedIN4core12basic_stringIcNS0_20StringStorageDefaultIcEEEEEbRK13FileEntryInfoRKT_19FileEnumerationFlag
mca:__ZL31InitializeRendererUpdateManagerPv
bfh:__Z106RuntimeInvoker_RuntimeObject_Int16_t4041245914_RuntimeObject_BooleanU26_t3168250738_BooleanU26_t3168250738PFvvEPK10MethodInfoPvPS4_
gAf:_ClientSessionInfo_Dispose_m2571428025
$Od:_LayoutGroup_DelayedSetDirty_m4276695617
sDf:_RecordProtocol_decryptRecordFragment_m2510859489
lHi:_InvokableCall_1__ctor_m975753341_gshared
Bcb:__ZN11TimeManager8TransferI19StreamedBinaryWriteILb0EEEEvRT_
KRe:_DelegatePInvokeWrapper_ReadDelegate_t3184826381
q$c:_compare_uni_maps
Mcd:__ZN11UnityEngine15PlatformWrapper27GetGraphicsCapsSupportFlagsEv
Hae:_Decimal_Equals_m1115043331
fDb:__ZN12NativeBufferI16Converter_StringE15SetupForWritingER9ArrayInfo
AXj:___cxa_end_catch__wrapper
BCh:_ValueCollection_System_Collections_Generic_ICollectionU3CTValueU3E_Clear_m231380274_gshared
ayd:_Entry__ctor_m1176697586
nKb:__ZN13MonoBehaviour22DoScriptRebuildWarningEv
flc:__Z38Camera_CUSTOM_INTERNAL_CALL_RaycastTryP12Il2CppObjectRK3Rayfi
uTh:_Text_get_verticalOverflow_m3134063496
Trj:__ZN6il2cpp6icalls8mscorlib6System5Array13ClearInternalEP11Il2CppArrayii
F8h:_GCHandle_get_Target_m2327042781
qTj:_llvm_cttz_i32
pLf:_PublicKey_DecodeDSA_m1169363495
Stc:__ZN11IMGUIModule25GetGUIStyleScriptingClassEv
i2c:_tt_get_interface
sse:_Array_Sort_TisRuntimeObject_m143182644_gshared
Csj:__ZN6il2cpp5utils9PathUtils7CombineIcEENSt3__212basic_stringIT_NS3_11char_traitsIS5_EENS3_9allocatorIS5_EEEERKSA_SC_
CHf:_NameObjectCollectionBase_BaseGet_m667273025
Xbh:__Z104RuntimeInvoker_RuntimeObject_Byte_t3683104436_RuntimeObject_SByte_t454417549_RuntimeObject_RuntimeObjectPFvvEPK10MethodInfoPvPS4_
xzc:__ZN9JSONWrite8TransferI13dynamic_arrayIiLj4EEEEvRT_PKc17TransferMetaFlags
iec:__ZN13PlayableGraph21InvalidateMultithreadEv
I5:__Z18ConvertUTF16toUTF8PPKtS0_PPhS2_15ConversionFlags
BNi:_GUIStyleState__ctor_m3673085649
y7f:_TypeLoadException__ctor_m1903359728
w2i:__ZL16my_g_bit_nth_msfj
Lid:_KeySizes__ctor_m3526899007
gKe:_Int16_System_IConvertible_ToInt32_m191782913_AdjustorThunk
WQg:__ZL69ArgumentCache_t4810721_CustomAttributesCacheGenerator_m_FloatArgumentP21CustomAttributesCache
y$f:_EncoderReplacementFallback__ctor_m2208438262
ASb:__Z23SetupStereoFlareElementP11FlareVertexRK8Vector2fS3_S3_RK11ColorRGBA32RK10Matrix4x4fRK8Vector3fb
ta:invoke_iiiifiiii
Zzi:_RectTransform_set_anchoredPosition_m4223859262
WPe:_Directory_GetFiles_m4036267478
$ce:_Enum_System_IConvertible_ToType_m2669300536
Zva:__ZL19BlitFramebufferImplRN4gles23BlitFramebufferDrawQuadER9GfxDevice9TextureIDRK8Vector4f
Xjj:__ZN15dense_hashtableINSt3__24pairIK10KeyWrapperIPK10Il2CppTypeEjEES6_N6il2cpp8metadata14Il2CppTypeHashEN14dense_hash_mapIS6_jSB_NS6_14EqualsComparerINSA_26Il2CppTypeEqualityComparerEEENS0_9allocatorIS8_EEE9SelectKeyESF_SH_E4findERS7_
eCi:_StackTraceUtility_ExtractStringFromExceptionInternal_m234524721
$mf:_ReadOnlyCollection_1_System_Collections_IList_Add_m2333231354_gshared
JUc:_UNITY_FT_List_Add
yjg:_OpCodes__cctor_m939885911
Wac:__ZN14Texture2DArray11InitTextureEiii13TextureFormatb
wji:_UriParser_InitializeAndValidate_m251943319
tod:_SymmetricAlgorithm_set_Padding_m3081984460
Ooj:__ZN15dense_hashtableINSt3__24pairIK10KeyWrapperINS1_IPK11Il2CppImageP11Il2CppClassEEEjEES9_17ReflectionMapHashIS8_EN14dense_hash_mapIS9_jSD_NS9_14EqualsComparerINS0_8equal_toIS8_EEEENS0_9allocatorISB_EEE9SelectKeyESI_SK_E14squash_deletedEv
kcb:__ZN9InputAxis8TransferI18StreamedBinaryReadILb0EEEEvRT_
FWb:__ZNK6Camera26GetStereoSingleCullEnabledEv
uYf:_StreamingContext_t1417235061_marshal_pinvoke_back
Dfb:__Z14resize_trimmedINSt3__26vectorIN4core12basic_stringIcNS2_20StringStorageDefaultIcEEEE13stl_allocatorIS6_L18MemLabelIdentifier13ELi16EEEEEvRT_j
YWd:_ArrayList_RemoveAt_m2578928333
vub:__Z18Transfer_BlittableI14SafeBinaryReadLb0EaEvRK29SerializationCommandArgumentsR31RuntimeSerializationCommandInfo
JHi:_InvokableCall_3__ctor_m4270240248_gshared
fmf:_ReadOnlyCollection_1_System_Collections_IList_set_Item_m1233322304_gshared
gti:_GeneralNames_get_DNSNames_m2721668874
Rce:_Enum_System_IConvertible_ToByte_m38374586
Plf:_ReadOnlyCollection_1_System_Collections_Generic_IListU3CTU3E_RemoveAt_m1592158292_gshared
LWj:_emscripten_glFrustum__wrapper
KDf:_ReceiveRecordAsyncResult_get_CompletedWithError_m2670396551
sae:_Decimal_Equals_m1798565377
emb:__ZN15SerializeTraitsINSt3__26vectorIN9ShaderLab20SerializedSubProgram15MatrixParameterENS0_9allocatorIS4_EEEEE8TransferI24GenerateTypeTreeTransferEEvRS7_RT_
lgg:_TypeBuilder_check_created_m2929267877
Ev:__ZN19StreamedBinaryWriteILb0EE8TransferIKN4math7_float3EEEvRT_PKc17TransferMetaFlags
MQb:__Z20SyncFenceCullResultsR11CullResults
jya:__ZN15TextureTFMethod20IsBoneCountSupportedEi
gVa:__ZN14RenderSettings23VirtualRedirectTransferER24GenerateTypeTreeTransfer
_6d:_DateTime_System_IConvertible_ToSByte_m2575078084_AdjustorThunk
Pyb:__Z22TransferField_NonArrayI17RemapPPtrTransfer27Converter_SimpleNativeClassI8GUIStyleEEvRK23StaticTransferFieldInfoR31RuntimeSerializationCommandInfoRT0_
o9b:__ZNK17AnimationCurveTplIfE20EvaluateWithoutCacheEfRf
pDj:__ZN6il2cpp2os6Thread12QueueUserAPCEPFvPvES2_
xVa:__ZN19ShaderPropertySheet10SetTextureERK23FastTexturePropertyNameP7Texture
Tff:_Collection_1_IsValidItem_m1304951912_gshared
kgc:__ZN4Mesh10SetNormalsEPK8Vector3fj
fRc:__Z66Register_UnityEngine_Physics2D_INTERNAL_CALL_GetRayIntersectionAllv
m3d:_Convert_ToDateTime_m4161927553
rgg:_TypeBuilder_GetConstructors_m774120094
PEj:__ZNSt3__212basic_stringIDsNS_11char_traitsIDsEENS_9allocatorIDsEEE9__grow_byEjjjjjj
et:__ZN17AnimationCurveTplIfE8TransferI14SafeBinaryReadEEvRT_
P3b:__Z29StdTemplateConversionFunctionIybEbPvR14SafeBinaryRead
e4a:__ZNSt3__26vectorIN15QualitySettings14QualitySettingENS_9allocatorIS2_EEE6assignIPS2_EENS_9enable_ifIXaasr21__is_forward_iteratorIT_EE5valuesr16is_constructibleIS2_NS_15iterator_traitsIS9_E9referenceEEE5valueEvE4typeES9_S9_
pRb:__ZNK19ShaderPropertySheet11HasPropertyERKN9ShaderLab16FastPropertyNameE
L6d:_DateTime_System_IConvertible_ToByte_m2670443498_AdjustorThunk
auf:_BigInteger_op_Addition_m1734797151
t6a:__ZN15dense_hashtableINSt3__24pairIKN4core12basic_stringIcNS2_20StringStorageDefaultIcEEEE13dynamic_arrayI4PPtrI6SpriteELj4EEEES6_20StringHash32FunctionIS6_EN14dense_hash_mapIS6_SC_SF_NS0_8equal_toIS6_EE13stl_allocatorISD_L18MemLabelIdentifier81ELi16EEE9SelectKeyESI_SL_E4findERS7_
Mgg:_EnumBuilder_CreateNotSupportedException_m62763134
Hgd:__ZNK12HeaderHelper3GetERKN4core12basic_stringIcNS0_20StringStorageDefaultIcEEEE
zMf:_X509Chain_CheckRevocation_m2480313486
MVe:_Math_Log_m3371716878
bcb:__ZN9InputAxis8TransferI14SafeBinaryReadEEvRT_
T6:__ZNK21ExecutionOrderManager30GetCustomAwakeFromLoadQueueForEPKN5Unity4TypeE
hgd:__Z27RegisterModule_UnityConnectv
C_d:_Hashtable__ctor_m4280223555
$ng:_ParameterInfo_get_IsRetval_m1881464570
CUf:_RealProxy__ctor_m3041043303
dLe:_NumberFormatter_Init_m2654758994
Wjd:_HMACSHA1__ctor_m1168389339
WOc:__ZNK17Physics2DSettings22GetTypeVirtualInternalEv
kZj:_glBindRenderbuffer__wrapper
LR:__ZN10ObjectPoolIN4FMOD12ChannelGroupENS0_13ChannelGroupIEE7SetSizeEi
iAe:_PrimalityTest_BeginInvoke_m966469054
Tki:_Bounds_get_max_m1939845278_AdjustorThunk
cpf:_ReadOnlyCollection_1_System_Collections_Generic_ICollectionU3CTU3E_Clear_m1785953911_gshared
uag:_UInt64_System_IConvertible_ToInt16_m2797150165_AdjustorThunk
hve:_Array_InternalArray__get_Item_TisLabelData_t3712112744_m863115768_gshared
TMe:_Int32_Parse_m753946802
O6b:__ZN9Polygon2D7SetPathEiRK13dynamic_arrayI8Vector2fLj4EE
tUi:_AudioConfigurationChangeHandler_Invoke_m653824108
S9e:_List_1_RemoveAt_m2331128844_gshared
Uoj:__ZN14dense_hash_mapI10KeyWrapperINSt3__24pairIPK9EventInfoP11Il2CppClassEEEj17ReflectionMapHashIS8_ENS9_14EqualsComparerINS1_8equal_toIS8_EEEENS1_9allocatorINS2_IKS9_jEEEEE15set_deleted_keyERSH_
Bkg:_UnmanagedMarshal_ToMarshalAsAttribute_m3695569337
fwb:__Z14resize_trimmedINSt3__26vectorI17AnimationCurveTplIfE13stl_allocatorIS3_L18MemLabelIdentifier1ELi16EEEEEvRT_j
j0b:__ZN25CameraStackRenderingState19SetupLastEyeCamerasERK11CameraStack
cKa:__Z12GUIDToStringRK9UnityGUID
LN:__ZN11SoundHandleC2ERKS_
iB:__ZN17AnimationPlayableC2E18DirectorPlayerType
Z9i:__ZNK6il2cpp5utils11collections13ArrayValueMapIPK10Il2CppType17Il2CppInteropData26InteropDataToTypeConverterNS_8metadata14Il2CppTypeLessENS8_26Il2CppTypeEqualityComparerEE10find_firstERKS5_
$Sa:__ZN15SerializeTraitsI12fixed_bitsetILi24EjEE8TransferI18StreamedBinaryReadILb0EEEEvRS1_RT_
Pze:_BigInteger_op_Addition_m1196561843
y0i:_CanvasRenderer_INTERNAL_CALL_GetColor_m3192682614
ebi:_FormatterData__ctor_m3974986124
sld:_RijndaelManagedTransform_get_CanReuseTransform_m3735256596
_Zd:_Comparer__cctor_m1327316974
RPe:_MonoIO_ExistsFile_m1421941572
x8d:_DateTime_op_GreaterThanOrEqual_m3818963848
jz:__ZN17AnimationPlayable18DeallocateBindingsEv
S1b:__ZN6Camera25StandaloneRenderToCubemapEP7TextureiPFvPK9SceneNodePK4AABBR9IndexListPvESA_j
sFd:_DefaultControls_SetDefaultTextValues_m1707718380
tBd:_TouchInputModule_UseFakeInput_m2112019004
sxd:_EventSystem_get_baseEventDataCache_m4294741599
lVa:__ZN14RenderSettings18TransferDeprecatedI14SafeBinaryReadEEvRT_
Eyi:_Rect_get_center_m2903917731_AdjustorThunk
V2:__ZN12TLSAllocatorI14StackAllocatorE8AllocateEji
T7:__ZN16ScriptingManager18GetMonoScriptCacheEi
K7g:__Z62RuntimeInvoker_Void_t1841601450_RuntimeObject_Int64_t909078037PFvvEPK10MethodInfoPvPS4_
m6i:__ZN15dense_hashtableINSt3__24pairIK10KeyWrapperIPK11Il2CppClassEPKcEES6_N6il2cpp5utils11PointerHashIS3_EEN14dense_hash_mapIS6_S9_SE_NS6_14EqualsComparerINS0_8equal_toIS5_EEEENS0_9allocatorISA_EEE9SelectKeyESJ_SL_E15set_deleted_keyERKSA_
zJd:_GridLayoutGroup_CalculateLayoutInputHorizontal_m2355123124
Cub:__Z18Transfer_BlittableI14SafeBinaryReadLb1EyEvRK29SerializationCommandArgumentsR31RuntimeSerializationCommandInfo
twc:__ZN8JSONRead8TransferIfEEvRT_PKc17TransferMetaFlagsb
Jnb:__ZN9ShaderLab7Program22ComputeSupportsShadowsEv
bSj:__ZNSt3__212basic_stringIcNS_11char_traitsIcEENS_9allocatorIcEEE6appendEPKcj
Vvg:__ZL54TypeBuilder_t3308873219_CustomAttributesCacheGeneratorP21CustomAttributesCache
Rsa:__ZN6prcoreL17RemapGenericFloatI18TexFormatARGBFloat17TexFormatRGBAHalfEEvPKNS_9InnerInfoE
Ggf:_Collection_1_CheckWritable_m691269733_gshared
hT:__ZN11AudioSource21ApplyCachedParametersE12SoundChannel
ohg:_GenericTypeParameterBuilder_GetAttributeFlagsImpl_m3338182267
ZX:__ZN13Simd4iFactoryIN6detail9FourTupleEEC2Eiiii
hUe:_SynchronizedReader__ctor_m1408327515
lwi:_X509Store_LoadCrl_m1146720614
Wqf:_ReadOnlyCollection_1_System_Collections_IList_Clear_m1858417639_gshared
CIi:_UnityAction_3_Invoke_m1025098032_gshared
T1a:__ZN15SerializeTraitsI33EnlightenTerrainChunksInformationE8TransferI14SafeBinaryReadEEvRS0_RT_
EKc:__ZN6b2Body12SetTransformERK6b2Vec2f
Jbc:__ZNK32RendererMaterialAnimationBinding9BindValueER6ObjectRKN11UnityEngine9Animation14GenericBindingERNS3_10BoundCurveE
s_a:__Z13GetIAnimationv
_qa:__ZL18stbir__support_onef
G3e:_List_1_System_Collections_IList_Remove_m2040310137_gshared
Xki:_Bounds_SetMinMax_m2094075031_AdjustorThunk
eyc:__Z26Transfer_UnityEngineObjectI9JSONWriteLb0EEvRK29SerializationCommandArgumentsR31RuntimeSerializationCommandInfo
OYa:__ZNSt3__26vectorIN4core12basic_stringIcNS1_20StringStorageDefaultIcEEEE13stl_allocatorIS5_L18MemLabelIdentifier1ELi16EEE6assignINS_11__wrap_iterIPS5_EEEENS_9enable_ifIXaasr21__is_forward_iteratorIT_EE5valuesr16is_constructibleIS5_NS_15iterator_traitsISF_E9referenceEEE5valueEvE4typeESF_SF_
B9f:_UInt32_System_IConvertible_ToInt16_m2251335934_AdjustorThunk
r7c:__ZNSt3__27__sort5IRNS_6__lessIN2UI14DepthSortEntryES3_EEPS3_EEjT0_S7_S7_S7_S7_T_
xSd:_Boolean_System_IConvertible_ToType_m3990189691
Ca:invoke_vdd
Ufa:__ZN14dense_hash_mapIN4core12basic_stringIcNS0_20StringStorageDefaultIcEEEE13dynamic_arrayI4PPtrI6SpriteELj4EE20StringHash32FunctionIS4_ENSt3__28equal_toIS4_EE13stl_allocatorINSC_4pairIKS4_S9_EEL18MemLabelIdentifier81ELi16EEE15set_deleted_keyERSH_
pce:_Double_System_IConvertible_ToUInt32_m624993430
_9b:__ZNK30SpriteRendererAnimationBinding12GetPPtrValueERKN11UnityEngine9Animation10BoundCurveE
Q4c:__ZZ29InitializeTextRenderingModulevEN27cleanupAfterLoadRegistrator7ForwardEv
e5f:_Scheduler_Add_m376749205
IA:__ZN27AnimationLayerMixerPlayable24ProcessAnimationLayerMixEP33AnimationPlayableEvaluationOutputP35AnimationPlayableEvaluationConstantP32AnimationPlayableEvaluationInputS1_if
W$b:__Z29PluginsIssueRenderingExtEvent26UnityRenderingExtEventTypePv
Sbj:_WebRequestUtils_RedirectTo_m675215376
Kac:__Z14RandomRotationP9Texture2DPhiiii
yxe:_SimpleCollator_IsIgnorable_m2485013022
q1i:_Physics2D_GetColliderFromInstanceID_m2716839224
t7e:_List_1_System_Collections_IList_Insert_m2036969360_gshared
$Md:_InputField_GetUnclampedCharacterLineFromPosition_m1912794077
V8d:_DateTimeOffset_ToString_m2121173678_AdjustorThunk
Cfh:__Z74RuntimeInvoker_RuntimeObject_RuntimeObject_Int16_t4041245914_RuntimeObjectPFvvEPK10MethodInfoPvPS4_
jj:_JS_WebRequest_SetResponseHandler
P0j:_glDeleteProgram__wrapper
mlc:__Z50Register_UnityEngine_Camera_INTERNAL_get_pixelRectv
wSi:_player_Update_m2878195153
hsa:__ZN6prcoreL18BlitFloatToIntegerERK14ImageReferenceRS0_
IFe:_X509CertificateCollection_get_Item_m410866272
i$:__ZN11UnityEngine15CloudWebService14RestDownloader17OnCompleteContentEv
TJd:_LayoutGroup_SetChildAlongAxis_m1615929339
Gfh:__Z75RuntimeInvoker_RuntimeObject_RuntimeObject_Double_t4078015681_RuntimeObjectPFvvEPK10MethodInfoPvPS4_
Ueh:__Z200RuntimeInvoker_Boolean_t3825574718_RuntimeObject_RuntimeObject_RuntimeObject_Int32_t2071877448_DateTimeU26_t3448131235_SByte_t454417549_BooleanU26_t3168250738_SByte_t454417549_ExceptionU26_t1467204777PFvvEPK10MethodInfoPvPS4_
Sa:invoke_viffi
EC:__ZN17AnimationPlayable28UpdateInternalStateRecursiveILi1ELb0EEEvPK35AnimationPlayableEvaluationConstant
$Ri:_U3CDelayedSelfDestroyU3Ec__Iterator0_MoveNext_m3228777579
lzj:__ZN6il2cpp2gcL10CleanupCCWEPvS1_
Va:invoke_vifff
Lnc:__Z53Register_UnityEngine_Input_INTERNAL_get_mousePositionv
B$j:_glGetVertexAttribiv__wrapper
Qe:_emscripten_request_fullscreen
jLb:__ZN20LocalFileSystemWebGL6DeleteER13FileEntryDatab
eae:_Decimal_System_IConvertible_ToUInt16_m1621568250
Se:_emscripten_glDisableVertexAttribArray
Wm:FUNCTION_TABLE_iiiifiiii
_5f:_TimeSpan_get_TotalMinutes_m1645177229_AdjustorThunk
nc:invoke_fifffi
Doa:__ZN4gles23ClearCurrentFramebufferEP7ApiGLESbbbRK10ColorRGBAffi
cB:__ZN7mecanim12statemachine20CreateStateWorkspaceEjjjRNS_6memory9AllocatorE
iXh:_InternalEnumerator_1_System_Collections_IEnumerator_get_Current_m3680087284_gshared
bf:_emscripten_glDeleteObjectARB
Yf:_IMG_Load
ZUe:_UnexceptionalStreamReader_Read_m3839775235
Xpi:_Input_get_compositionCursorPos_m1028058884
lqc:__Z53Register_UnityEngine_RenderTexture_Internal_GetHeightv
cwe:_Dropdown_GetOrAddComponent_TisRuntimeObject_m2875934266_gshared
ita:__ZN6prcoreL17RemapGenericFloatI17TexFormatRGBAHalf18TexFormatARGBFloatEEvPKNS_9InnerInfoE
Xce:_Enum_System_IConvertible_ToInt32_m2459904362
Jfh:__Z61RuntimeInvoker_RuntimeObject_Double_t4078015681_RuntimeObjectPFvvEPK10MethodInfoPvPS4_
fNc:__ZNSt3__27__sort4IRN18Overlap2DQueryBase29ColliderHitsByDepthComparitorEPP10Collider2DEEjT0_S7_S7_S7_T_
Itc:__Z14GetBuiltinSkini
$wf:_ContentInfo__ctor_m3871771681
owd:_BaseInput_set_compositionCursorPos_m2632248731
XQi:_Enumerator_System_Collections_IEnumerator_Reset_m2573763156_gshared
Dsh:__Z74RuntimeInvoker_Void_t1841601450_Int32_t2071877448_MonoResource_t3127387157PFvvEPK10MethodInfoPvPS4_
FPe:_DirectoryInfo_Initialize_m2216118894
Xqd:_WindowsIdentity_Dispose_m2649088337
rpb:__ZN2UI13RectTransform23VirtualRedirectTransferER14SafeBinaryRead
Dlb:__ZNSt3__26vectorIN9ShaderLab20SerializedSubProgramENS_9allocatorIS2_EEE6assignIPS2_EENS_9enable_ifIXaasr21__is_forward_iteratorIT_EE5valuesr16is_constructibleIS2_NS_15iterator_traitsIS9_E9referenceEEE5valueEvE4typeES9_S9_
qAc:__Z18Transfer_BlittableI8JSONReadLb0E8BitFieldEvRK29SerializationCommandArgumentsR31RuntimeSerializationCommandInfo
KVf:_SoapServices_RegisterInteropXmlType_m2949236705
zEb:__ZL17Transfer_GUIStyleI18StreamedBinaryReadILb1EELb0EEvRK29SerializationCommandArgumentsR31RuntimeSerializationCommandInfo
$ud:_String_CharCopy_m2550399897
ugh:__Z234RuntimeInvoker_RuntimeObject_Int16_t4041245914_RuntimeObject_Int32_t2071877448_Int32_t2071877448_Int32_t2071877448_SByte_t454417549_SByte_t454417549_SByte_t454417549_SByte_t454417549_Int16_t4041245914_SByte_t454417549_SByte_t454417549PFvvEPK10MethodInfoPvPS4_
Jjb:__ZN9ShaderLab14SerializedPass8TransferI14SafeBinaryReadEEvRT_
Auc:__Z71Register_UnityEngine_GUILayoutUtility_INTERNAL_CALL_Internal_MoveWindowv
QV:__ZN12AudioManager16SetListenerPauseEb
QGc:__ZNSt3__26__sortIRN10ClipperLib12LocMinSorterEPNS1_12LocalMinimumEEEvT0_S6_T_
Ctj:__ZN6il2cpp2vm9Exception25RaiseOutOfMemoryExceptionERKNS_5utils10StringViewIDsEE
gff:_Collection_1_IsValidItem_m2254106115_gshared
Agg:_TypeBuilder_GetEvent_m3876348075
BSh:_Slider_OnMove_m641164662
ea:invoke_viiiiiiiiiii
COj:___syscall_ret
h5f:_Scheduler__ctor_m3716265742
NCe:_MACAlgorithm_Final_m4076939925
T6b:__ZN14qsort_internal30FindAndMovePivotToLastPositionIP8Vector2fi26PointDistanceSortPredicateEEvT_S4_T0_T1_
j6a:__ZN11ChannelInfo8TransferI19StreamedBinaryWriteILb0EEEEvRT_
QWh:_InternalEnumerator_1_System_Collections_IEnumerator_get_Current_m3583252352_gshared
Tsi:_Object_op_Implicit_m1757773010
bgg:_EnumBuilder_get_FullName_m2818393911
pTb:__ZN14qsort_internal13Partition3WayIP17RODataReplacementi19ROSorterReplacementEENSt3__24pairIT_S6_EES6_S6_T0_T1_
zmc:__Z34Register_UnityEngine_Gradient_Initv
Rwd:_BaseInputModule_GetAxisEventData_m3903709281
yve:_Array_InternalArray__get_Item_TisUriScheme_t1876590943_m1821482697_gshared
dtf:_BigInteger__ctor_m3239748086
e5a:__ZN13ScreenManager23SetIsOrientationEnabledE18EnabledOrientationb
rBi:_HitInfo_SendMessage_m3395411273
OA:__ZN7mecanim5human25HumanPoseAddOverrideLayerERNS0_9HumanPoseERKS1_fRKNS_6bitsetILj70EEE
i9b:__ZN13ProduceHelperI9TransformLb0EE7ProduceE18MemLabelIdentifier18ObjectCreationMode
Nne:_Array_InternalArray__ICollection_Add_TisHitInfo_t1761367055_m2956071622_gshared
fLa:__ZN10GameObject23VirtualRedirectTransferER18StreamedBinaryReadILb0EE
tg:_glFrontFace
HXf:_ObjectRecord_get_IsUnsolvedObjectReference_m2202692850
aPf:_FactoryCache_Cleanup_m4130035987
uAi:_Vector2_op_Addition_m4229571528
h8b:__ZN13ProduceHelperI19LowerResBlitTextureLb0EE7ProduceE18MemLabelIdentifier18ObjectCreationMode
qYb:__ZNSt3__26vectorI16ShadowCasterData13stl_allocatorIS1_L18MemLabelIdentifier2ELi16EEE21__push_back_slow_pathIKS1_EEvRT_
dag:_UInt32_ToString_m1783596809
xZj:_glUniform1i__wrapper
z5c:__Z51Register_UnityEngine_TextGenerator_GetLinesInternalv
qRi:_HashSet_1_Init_m1258286688_gshared
Hvi:_X509ExtensionCollection_get_Item_m4212651995
fnf:_ReadOnlyCollection_1_System_Collections_IList_RemoveAt_m525136953_gshared
zsa:__ZN6prcoreL17RemapGenericFloatI17TexFormatRGBFloat18TexFormatRGBAFloatEEvPKNS_9InnerInfoE
iag:_UInt64_System_IConvertible_ToBoolean_m3012279573_AdjustorThunk
Z7f:_Type_get_IsGenericTypeDefinition_m2147901038
$fd:__ZN20UnityConnectSettings10InitializeEv
pHe:_GregorianCalendar__ctor_m3794576475
_9f:_UInt32_TryParse_m4283512434
aDi:_TrackedReference_GetHashCode_m1278837032
_Jc:__ZN16PhysicsManager2D12BeginContactEP9b2Contact
CN:__ZN9AudioClip11CreateSoundEv
Xyh:_ShimEnumerator_MoveNext_m3313047792_gshared
F6f:_TimeSpan_op_Inequality_m257547441
gpj:__ZN14dense_hash_mapI10KeyWrapperINSt3__24pairIPK9FieldInfoP11Il2CppClassEEEj17ReflectionMapHashIS8_ENS9_14EqualsComparerINS1_8equal_toIS8_EEEENS1_9allocatorINS2_IKS9_jEEEEEC2EjRKSB_RKSF_
Ikj:__ZNK15dense_hashtableINSt3__24pairIK10KeyWrapperINS1_IPK10MethodInfoP11Il2CppClassEEEjEES9_17ReflectionMapHashIS8_EN14dense_hash_mapIS9_jSD_NS9_14EqualsComparerINS0_8equal_toIS8_EEEENS0_9allocatorISB_EEE9SelectKeyESI_SK_E13find_positionERSA_
$ka:__ZN13GfxDeviceGLES20CreateComputeProgramEPKhj
e3d:_DateTimeFormatInfo_get_RoundtripPattern_m562440017
ufd:__ZN11UnityEngine7Connect16PersistentValues13RestoreValuesER8JSONRead
xIa:__ZN20ArchiveStorageReader31TryToReadDirectoryFromBlockDataEyPKvj
Wbe:_Double_System_IConvertible_ToByte_m3004284950_AdjustorThunk
Svj:__ZN6il2cpp2vmL11GetIdentityEP14Il2CppIUnknown
hIj:_GC_push_gc_structures
jIf:_ServicePointManager_get_ServerCertificateValidationCallback_m1409951209
Zdj:__ZN6il2cpp6icalls8mscorlib6SystemL8IsPublicEPK9EventInfo
G0d:_Enumerator_get_Current_m1271212567
tFj:__ZThn4_N6il2cpp2vm13ComObjectBase18ReleaseMarshalDataEP13Il2CppIStream
lt:__ZNSt3__26vectorIN13AnimationClip10FloatCurveE13stl_allocatorIS2_L18MemLabelIdentifier26ELi16EEE6resizeEj
aRc:__Z41Rigidbody2D_CUSTOM_INTERNAL_CALL_AddForceP12Il2CppObjectRK13Vector2fIcallN11Rigidbody2D9ForceModeE
VIf:_IPAddress_ParseIPV6_m2209709575
fPh:_U3CClickRepeatU3Ec__Iterator0_MoveNext_m1747924386
Rsf:_Comparison_1_Invoke_m1670081898_gshared
WTh:_Toggle_set_group_m3833595685
tPd:_LayoutRebuilder_ForceRebuildLayoutImmediate_m566681977
C6a:__ZNSt3__213__stable_sortIRNS_4lessI4PPtrI11SpriteAtlasEEENS_11__wrap_iterIPS4_EEEEvT0_SA_T_NS_15iterator_traitsISA_E15difference_typeEPNSD_10value_typeEi
Vne:_Array_InternalArray__ICollection_Add_TisVector4_t2243707581_m698578249_gshared
Dxi:_PropertyName_ToString_m1129982609_AdjustorThunk
L3:__ZN8keywords6CreateEPKc
S:Math_imul
Gab:__ZN14SpriteRenderer15SetupPropertiesEv
s4a:__ZN11PlayerPrefs6GetIntERKN4core12basic_stringIcNS0_20StringStorageDefaultIcEEEEi
K8i:__ZN6il2cpp5utils13dynamic_arrayIPK10Il2CppTypeLj4EEC2ERKS5_
g5c:__Z45TextGenerator_CUSTOM_INTERNAL_get_rectExtentsP12Il2CppObjectP5RectTIfE
xxf:_CertificateValidationCallback_Invoke_m2500463874
Rie:_SetPropertyUtility_SetStruct_TisChar_t3454481338_m2333420724_gshared
jff:_Collection_1_IsSynchronized_m2601980439_gshared
b$d:_Hashtable_ContainsKey_m2716576664
NGa:__Z18ReadStringFromFilePN4core17string_with_labelILi1EEERKNS_12basic_stringIcNS_20StringStorageDefaultIcEEEE
jei:_PatternCompiler_EmitCategory_m1696942454
pae:_Decimal_decimalFloorAndTrunc_m3655683429
noe:_Array_InternalArray__ICollection_CopyTo_TisInt32_t2071877448_m984622488_gshared
x5:__ZN18ScriptingArguments9AddObjectE18ScriptingObjectPtr
y9c:__Z39CanvasGroup_Get_Custom_PropInteractableP12Il2CppObject
uY:__ZN11UnityEngine15CloudWebService16SessionContainerD2Ev
Ffd:__ZL38InitializeUnityConnectScriptingClassesv
F0b:__ZN13ProbeRenderer8ConvolveEbijjb
Toa:__ZN17GenericDynamicVBOC2ER9GfxDevice13GfxBufferModejj
Ebi:_Context_get_HasDynamicSinks_m1998518649
tNc:__Z28GetPhysics2DScriptingClassesv
Jsc:__ZZN10GUIManager14InitGUIManagerEvEN41PreUpdateIMGUISendQueuedEventsRegistrator7ForwardEv
eIi:_UnityAction_1_Invoke_m2903588655_gshared
NZ:__ZN11UnityEngine15CloudWebService17SessionEventQueue10PurgeItemsEj
k1b:__ZN6Camera16StandaloneRenderENS_10RenderFlagEP6ShaderRKN4core12basic_stringIcNS3_20StringStorageDefaultIcEEEE
NPd:_Array_System_Collections_IList_get_Item_m2088124007
fQd:_Array_GetLength_m2083296647
jOi:_SymmetricTransform_OFB_m397918932
NYd:_SynchronizedArrayListWrapper_ToArray_m1522185111
TDb:__Z18Transfer_BlittableI18StreamedBinaryReadILb1EELb1EtEvRK29SerializationCommandArgumentsR31RuntimeSerializationCommandInfo
ija:__ZN9GfxDevice20DeallocRenderSurfaceEP17RenderSurfaceBase
Bbg:_ValueType_ToString_m3796301715
Sua:__ZN20GpuProgramParameters36UpdatePrepareValuesMaximumBufferSizeEv
jyj:__ZNK15dense_hashtableI10KeyWrapperIP18Il2CppGenericClassES3_N6il2cpp8metadata22Il2CppGenericClassHashEN14dense_hash_setIS3_S6_NS3_14EqualsComparerINS5_25Il2CppGenericClassCompareEEENSt3__29allocatorIS3_EEE8IdentityESA_SD_E12test_deletedEj
coc:__Z53Register_UnityEngine_Quaternion_INTERNAL_CALL_Inversev
bBi:_Screen_get_height_m3831644396
VMa:__ZN12BaseRenderer23RendererBecameInvisibleEv
_Sc:__ZN20TextRenderingPrivate8FontImpl13CharacterInfo8TransferI18StreamedBinaryReadILb0EEEEvRT_
gBb:__Z29Transfer_Blittable_ArrayFieldI24GenerateTypeTreeTransferfEvRT_R9ArrayInfoRK23StaticTransferFieldInfo
sba:__ZNSt3__26__treeINS_12__value_typeIN4core12basic_stringIcNS2_20StringStorageDefaultIcEEEES6_EENS_19__map_value_compareIS6_S7_NS_4lessIS6_EELb1EEE13stl_allocatorIS7_L18MemLabelIdentifier13ELi16EEE7destroyEPNS_11__tree_nodeIS7_PvEE
e8g:__Z76RuntimeInvoker_RuntimeObject_RuntimeObject_SByte_t454417549_SByte_t454417549PFvvEPK10MethodInfoPvPS4_
z2b:__ZN19CustomRenderTexture9AddParentE4PPtrIS_E
g3a:__ZN8Gradient8TransferI14SafeBinaryReadEEvRT_
wJi:_UnityEvent_1_Invoke_m1533100983_gshared
NYa:__ZNSt3__26vectorIN4core12basic_stringIcNS1_20StringStorageDefaultIcEEEE13stl_allocatorIS5_L18MemLabelIdentifier1ELi16EEE7reserveEj
nIf:_FileWebRequest__ctor_m4003648606
G1g:__ZL71SpriteState_t1353336012_CustomAttributesCacheGenerator_m_DisabledSpriteP21CustomAttributesCache
Zce:_Enum_System_IConvertible_ToSByte_m3488526280
P9i:__ZNK15dense_hashtableI10KeyWrapperIPK19Il2CppGenericMethodES4_N6il2cpp8metadata23Il2CppGenericMethodHashEN14dense_hash_setIS4_S7_NS4_14EqualsComparerINS6_26Il2CppGenericMethodCompareEEENSt3__29allocatorIS4_EEE8IdentityESB_SE_E4findERKS4_
vrb:__ZNK20LocalFileSystemPosix9IsSymLinkERK13FileEntryData
bHj:_GC_new_free_list_inner
ZGh:_DefaultComparer_Equals_m85211180_gshared
gXe:_MonoType_InternalGetEvent_m532443236
ehf:_Collection_1_IndexOf_m2700825189_gshared
ZFi:_MathfInternal__cctor_m2774058555
eBc:__ZN8JSONRead8TransferI10RectOffsetEEvRT_PKc17TransferMetaFlagsb
vZ:__ZN9JSONWrite8TransferIN11UnityEngine15CloudWebService14DataErrorEvent15FileErrorDetailEEEvRT_PKc17TransferMetaFlags
Avd:_Decoder__ctor_m2623573910
FQ:__ZN12SoundManager20RegisterModifiedClipEP10SampleClip
hni:_Logger__ctor_m1903664092
aT:__ZN11AudioSource4PlayEd
cAj:__ZN6il2cpp2vm6Object16GetVirtualMethodEP12Il2CppObjectPK10MethodInfo
yRi:_HashSet_1_Add_m199171953_gshared
G7i:__ZN15dense_hashtableI10KeyWrapperIPK17Il2CppGenericInstES4_N6il2cpp8metadata21Il2CppGenericInstHashEN14dense_hash_setIS4_S7_NS4_14EqualsComparerINS6_24Il2CppGenericInstCompareEEENSt3__29allocatorIS4_EEE8IdentityESB_SE_E13set_empty_keyERKS4_
TJh:_EqualityComparer_1_System_Collections_IEqualityComparer_Equals_m3589836321_gshared
yCe:_SmallXmlParser_IsNameChar_m1561000202
Aui:_X501__cctor_m2610532554
byh:_Enumerator_VerifyState_m3173176371_gshared
P9e:_List_1_CheckCollection_m2220107869_gshared
$$a:__ZN7Cubemap23VirtualRedirectTransferER18StreamedBinaryReadILb0EE
Mzf:_RecordProtocol_EncodeRecord_m3884270352
pnd:_SHA256_Create_m896954069
O2c:_Read_CVT
Z5d:_Convert_ToUInt32_m776714429
KIa:__ZN12FileAccessor4SeekEx10FileOrigin
Wzb:__ZL26Transfer_SimpleNativeClassI24GenerateTypeTreeTransfer17AnimationCurveTplIfELb0EEvRK29SerializationCommandArgumentsR31RuntimeSerializationCommandInfo
eCc:__ZN8JSONRead21TransferSTLStyleArrayI13dynamic_arrayI9BoundsIntLj4EEEEvRT_17TransferMetaFlags
b2a:__ZN24GenerateTypeTreeTransfer8TransferI13dynamic_arrayI33EnlightenTerrainChunksInformationLj4EEEEvRT_PKc17TransferMetaFlags
vca:__ZN16LightmapSettings20DidChangeActiveSceneEP10UnitySceneS1_
I3g:__ZL59g_AssemblyU2DCSharp_Assembly_CustomAttributesCacheGeneratorP21CustomAttributesCache
lej:__ZN6il2cpp5utils9PathUtils8BasenameIcEENSt3__212basic_stringIT_NS3_11char_traitsIS5_EENS3_9allocatorIS5_EEEERKSA_
mli:_Camera_INTERNAL_CALL_WorldToScreenPoint_m621432905
muc:__Z35Register_UnityEngine_Event_get_typev
lDe:_PrivateKeyInfo_DecodeRSA_m1427048948
Otj:__ZN6il2cpp2vm9Exception23GetInvalidCastExceptionERKNS_5utils10StringViewIDsEE
Fcg:_Assembly_FillName_m1934025015
Wtd:_String_IndexOf_m2126171214
hOe:_Int64_ToString_m1544341651_AdjustorThunk
FC:__ZN8Animator28BuildControllerPlayableCacheEv
_Ie:_Guid_CheckNull_m2903986431
Jxi:_Quaternion_Internal_MakePositive_m3988910592
I6:__Z63ThreadAndSerializationSafeCheckGetMonoBehaviourBeingTransferredv
NJj:_GC_enable
HBf:_TlsClientCertificateVerify_ProcessAsSsl3_m3377063356
CDj:__GLOBAL__sub_I_GenericMethod_cpp
Fnj:__ZN15dense_hashtableINSt3__24pairIK10KeyWrapperIPK14Il2CppAssemblyEPK22Il2CppMonoAssemblyNameEES6_N6il2cpp5utils11PointerHashIS4_EEN14dense_hash_mapIS6_SA_SF_NS6_14EqualsComparerINS0_8equal_toIS5_EEEENS0_9allocatorISB_EEE9SelectKeyESK_SM_EC2ERKSP_j
MAd:_StandaloneInputModule_set_repeatDelay_m2820945738
i9f:_UInt16_ToString_m4213290405
Gnc:__Z37Register_UnityEngine_Input_GetAxisRawv
UH:__ZNK18AnimatorController28HasMultiThreadedStateMachineEv
ede:_Enum_GetName_m1226611481
G_i:_Func_2_Invoke_m4121137703_gshared
OS:__ZN11AudioSource5ResetEv
OSb:__ZN12ImageFilters27SetSurfaceUseResolvedBufferEP13RenderTextureb
R6a:__ZN14Texture2DArray23VirtualRedirectTransferER18StreamedBinaryReadILb0EE
Mgi:_Literal_CompileLiteral_m276843152
ipb:__ZN2UI13RectTransform13AwakeFromLoadE17AwakeFromLoadMode
PXb:__ZN14qsort_internal30FindAndMovePivotToLastPositionIP20ShadowCasterSortDatai26ShadowCasterSortDataSorterEEvT_S4_T0_T1_
k8i:__ZNK15dense_hashtableI10KeyWrapperIPK19Il2CppGenericMethodES4_N6il2cpp8metadata23Il2CppGenericMethodHashEN14dense_hash_setIS4_S7_NS4_14EqualsComparerINS6_26Il2CppGenericMethodCompareEEENSt3__29allocatorIS4_EEE8IdentityESB_SE_E3endEv
utb:__Z18Transfer_BlittableI14SafeBinaryReadLb1EiEvRK29SerializationCommandArgumentsR31RuntimeSerializationCommandInfo
UYh:_InternalEnumerator_1_System_Collections_IEnumerator_get_Current_m3315293493_AdjustorThunk
Thb:__ZN17PersistentManager13GetAllFileIDsERKN4core12basic_stringIcNS0_20StringStorageDefaultIcEEEER13dynamic_arrayIxLj8EE
fRd:_Array_LastIndexOf_m4096535198
OWd:_ArrayList_Add_m1719188324
kce:_Double_System_IConvertible_ToSByte_m1653690240_AdjustorThunk
sgh:__Z59RuntimeInvoker_RuntimeObject_Byte_t3683104436_RuntimeObjectPFvvEPK10MethodInfoPvPS4_
Kki:_Bounds_get_size_m3951110137
Dk:_glGetStringi
Xxj:__ZNK15dense_hashtableI10KeyWrapperIP18Il2CppGenericClassES3_N6il2cpp8metadata22Il2CppGenericClassHashEN14dense_hash_setIS3_S6_NS3_14EqualsComparerINS5_25Il2CppGenericClassCompareEEENSt3__29allocatorIS3_EEE8IdentityESA_SD_E10test_emptyERK30dense_hashtable_const_iteratorIS3_S3_S6_SF_SA_SD_E
Nfe:_CultureInfo_set_NumberFormat_m1618950525
KMf:_X509Store__ctor_m1573680316
ZMf:_X509Chain_get_CertificateCollection_m324631835
eKh:_EqualityComparer_1__cctor_m1011898363_gshared
Qxi:_Quaternion_get_identity_m443011477
LBd:_AnimationTriggers__ctor_m2623627182
zle:_Array_InternalArray__IndexOf_TisClientCertificateType_t4001384466_m1168139450_gshared
mE:__ZN8Animator9WriteStepEy
h_:__ZN11UnityEngine15CloudWebService20WebRequestRestClient18GetResponseHeadersEv
xec:__ZN16PropertyAccessorC2Ev
B4a:__ZNSt3__23mapIN4core12basic_stringIcNS1_20StringStorageDefaultIcEEEE9PrefValueNS_4lessIS5_EENS_9allocatorINS_4pairIKS5_S6_EEEEEixERSB_
$dc:__ZN15DirectorManager22ConstructPlayableGraphEv
mod:_SymmetricAlgorithm_set_IV_m4262655606
WSh:_StencilMaterial__cctor_m2963056855
geg:_CustomAttributeNamedArgument_GetHashCode_m3715408876_AdjustorThunk
o5c:__Z38Register_UnityEngine_Font_HasCharacterv
cMf:_X509Certificate2_AppendBuffer_m3517242299
O$b:__Z35IntersectSpherePlaneBoundsOptimizedRKN4math7_float4EPS1_i
Jfe:_CultureInfo_get_IsNeutralCulture_m3874876470
dbe:_Delegate_CreateDelegate_m3813023227
Xii:_Uri_get_AbsoluteUri_m2120317928
JAj:__ZN6il2cpp2os5posix15PosixWaitObject13InterruptWaitEv
LEd:_ColorTween_TweenValue_m3279916815
Wba:__Z22CleanupLODGroupManagerPv
One:_Array_InternalArray__ICollection_Add_TisContentType_t1028629049_m2984242302_gshared
iuc:__Z21Event_CUSTOM_PopEventP12Il2CppObject
nl:_glUniform3fv
VMj:__ZNK6il2cpp8metadata24Il2CppGenericInstCompareclERK10KeyWrapperIPK17Il2CppGenericInstES8_
Eeb:__ZNSt3__218__insertion_sort_3IRN15ResourceManager10Dependency6SorterEPS2_EEvT0_S6_T_
o0e:_Enumerator_System_Collections_IEnumerator_Reset_m3796537546_AdjustorThunk
U3c:_UNITY_FT_Init_Class_tt_service_gx_multi_masters
Rfh:__Z53RuntimeInvoker_Int32_t2071877448_TimeSpan_t3430258949PFvvEPK10MethodInfoPvPS4_
g6g:__Z64RuntimeInvoker_RuntimeObject_Int32_t2071877448_Int16_t4041245914PFvvEPK10MethodInfoPvPS4_
RWe:_IntComparer_Compare_m3057931085
xWb:__ZNK16LightmapSettings31GetRealtimeLightmapDecodeValuesEv
WR:__ZN5audio5mixer12SetSuspendedERNS0_16AudioMixerMemoryEb
Oib:__ZN17PersistentManager21UnloadNonDirtyStreamsEv
Duj:__ZN6il2cpp2vm13LivenessStateC2EP11Il2CppClassjPFvPP12Il2CppObjectiPvES7_PFvvESB_
swe:_Array_ConvertAll_TisRuntimeObject_TisRuntimeObject_m2423585546_gshared
rRb:__ZN12ImageFilters4BlitER17ShaderPassContextP7TextureP13RenderTextureiPK18SharedMaterialDataPKcP6ShaderiNS_9BlitFlagsE11CubemapFaceRK8Vector2fSH_
sKf:_Oid__ctor_m1936781897
XZ:__ZN11UnityEngine15CloudWebService10RestClientINS0_23WebRequestRestHeaderMapEED2Ev
J7h:_ResourceSet__ctor_m1222864106
sdf:_Collection_1_System_Collections_IList_get_Item_m3376056117_gshared
Jl:_emscripten_glDepthMask
n0e:_Enumerator_VerifyState_m3639069574_gshared
cqa:__ZN4crnd25static_huffman_data_model22prepare_decoder_tablesEv
Scf:_Enumerator_MoveNext_m689054299_gshared
Jtf:_ModulusRing_Difference_m662924064
nDd:_CanvasUpdateRegistry_ObjectValidForUpdate_m855695984
cMd:_InputField_set_onValueChanged_m2406388125
htc:__Z23GUIStatePopDisplayIndexv
O2:__ZL22CleanupUnityWebStreamsPv
fHf:_ListDictionary_Add_m4276262662
Aca:__Znaj
Uld:_RIPEMD160Managed_GGG_m1639995340
n1j:_emscripten_glEnableClientState__wrapper
F4:__ZN17MessageIdentifierC2EPKcNS_7OptionsEPKN5Unity4TypeES1_
LAh:_Enumerator_System_Collections_IEnumerator_get_Current_m1648049763_gshared
nMj:__ZN6il2cpp6icalls8mscorlib4Mono8Security12Cryptography18KeyPairPersistence15_ProtectMachineEP12Il2CppString
GTj:dynCall_viiifiii
nX:__Z55Register_UnityEngine_AudioSource_get_spatializeInternalv
y6a:__ZN15dense_hashtableINSt3__24pairIKN4core12basic_stringIcNS2_20StringStorageDefaultIcEEEE13dynamic_arrayI4PPtrI6SpriteELj4EEEES6_20StringHash32FunctionIS6_EN14dense_hash_mapIS6_SC_SF_NS0_8equal_toIS6_EE13stl_allocatorISD_L18MemLabelIdentifier81ELi16EEE9SelectKeyESI_SL_E12resize_deltaEjj
KTe:_TextWriter__ctor_m2225796097
hFa:__ZN14SafeBinaryRead8TransferI14ConstantStringEEvRT_PKc17TransferMetaFlags
wma:__ZNK6Camera16GetStereoEnabledEv
at:__ZN13AnimationClip9PPtrCurveaSERKS0_
kbc:__ZN12LightManager15InitializeClassEv
pOa:__ZN9ShaderLab11shaderprops16GetComputeBufferEPK19ShaderPropertySheetS3_NS_16FastPropertyNameE
L5:__ZN18ScriptingArgumentsC2Ev
N6f:_TimeZone_IsDaylightSavingTime_m875882154
KYj:_emscripten_glBlendFuncSeparate__wrapper
yyf:_CipherSuiteCollection_System_Collections_IList_set_Item_m750275607
dna:__Z17HasSampledTexture14GraphicsFormat13formatSupport
pSb:__ZNK25CameraStackRenderingState27GetStereoImageEffectTextureEb
Wmd:_SHA1CryptoServiceProvider__ctor_m3127563759
Jbj:__ZN6il2cpp6icalls6System6System3Net7Sockets6Socket7ReceiveEiP11Il2CppArrayiiNS4_11SocketFlagsEPi
ohc:__ZN13BuildSettings13GetSceneIndexERKN4core12basic_stringIcNS0_20StringStorageDefaultIcEEEE
w3g:__ZL103BaseVertexEffect_t2504093552_CustomAttributesCacheGenerator_BaseVertexEffect_ModifyVertices_m3446986347P21CustomAttributesCache
Bo:FUNCTION_TABLE_ii
IBh:_Enumerator_MoveNext_m335649778_AdjustorThunk
JMa:__ZN10TagManager8TransferI18StreamedBinaryReadILb0EEEEvRT_
HVc:__ZN20TextRenderingPrivate8TextMesh13AwakeFromLoadE17AwakeFromLoadMode
cag:_UInt32_ToString_m3894907091_AdjustorThunk
gri:_Matrix4x4__ctor_m828876617_AdjustorThunk
Dfe:_CultureInfo_get_TextInfo_m1582311326
Pme:_Array_ForEach_TisRuntimeObject_m1849351808_gshared
cCe:_SmallXmlParser_Error_m1832158746
Ck:_glDeleteVertexArrays
hKa:__Z24CreateDirectoryRecursiveRKN4core12basic_stringIcNS_20StringStorageDefaultIcEEEE
aXj:b41
zmb:__ZN9ShaderLab20SerializedSubProgram8TransferI18StreamedBinaryReadILb0EEEEvRT_
kTe:_StreamAsyncResult_get_AsyncWaitHandle_m4218169359
$Wj:b40
Bve:_Array_InternalArray__get_Item_TisContactPoint2D_t3659330976_m825151777_gshared
V5c:__ZN2UI13CanvasManager9AddCanvasEPNS_6CanvasE
J7a:__ZN9Texture3D8TransferI19StreamedBinaryWriteILb0EEEEvRT_
TSb:__ZNK6Camera22CalculateRenderingPathEv
_yc:__ZN9JSONWrite8TransferI5RectTIfEEEvRT_PKc17TransferMetaFlags
WF:__ZN11UnityEngine9Animation37SetGenericRootTransformPropertyValuesERKNS0_30AnimatorGenericBindingConstantERKN7mecanim10ValueArrayER9Transformbb
swa:__Z13ConvertMipmap14GraphicsFormatPKvS_Pviiii
Gnd:_SHA384Managed_processBlock_m3232296629
AFe:_X509Certificate_get_PublicKey_m714501701
lki:_AsyncOperation_InternalDestroy_m2067452588
zYc:_tt_sbit_decoder_load_image
jud:_String_LastIndexOf_m290475879
jse:_Array_Sort_TisInt32_t2071877448_m1860415737_gshared
btc:__ZNSt3__24listIN10GUIManager12SortedScriptE11memory_poolIS2_EE6__sortI13OldSortScriptEENS_15__list_iteratorIS2_PvEESA_SA_jRT_
mag:_UInt64_System_IConvertible_ToChar_m1930853313_AdjustorThunk
CBf:_TlsClientCertificate_SendCertificates_m1096074091
N$d:_SyncHashtable_get_Item_m408601391
Ycf:_Stack_1_System_Collections_ICollection_CopyTo_m2104527616_gshared
H1f:_StringBuilder_AppendFormat_m1666670800
vlh:__Z97RuntimeInvoker_Boolean_t3825574718_RuntimeObject_TextGenerationSettings_t2543476768_RuntimeObjectPFvvEPK10MethodInfoPvPS4_
Fdd:__ZN18UnityConnectClient12CloseServiceEv
Du:__ZN13AnimationClip8TransferI17RemapPPtrTransferEEvRT_
Qsj:__ZN6il2cpp6icalls8mscorlib6System9ThreadingL11ThreadStartEPv
tea:__ZN15DirectorManager12OnSampleTimeEv
Upf:_ReadOnlyCollection_1_System_Collections_IList_Remove_m3878418841_gshared
hMd:_InputField_EnforceContentType_m1902926812
a3a:__ZN15dense_hashtableINSt3__24pairIKiiEEi21InstanceIDHashFunctorN14dense_hash_mapIiiS4_NS0_8equal_toIiEE13stl_allocatorIS3_L18MemLabelIdentifier67ELi16EEE9SelectKeyES7_SA_E12resize_deltaEjj
YCa:__ZN12CachedReader10Align4ReadEv
nKc:__ZN15b2WorldManifold10InitializeEPK10b2ManifoldRK11b2TransformfS5_f
ct:__Z14resize_trimmedINSt3__26vectorIN13AnimationClip10FloatCurveE13stl_allocatorIS3_L18MemLabelIdentifier26ELi16EEEEEvRT_j
JDa:__ZNK9Behaviour22GetTypeVirtualInternalEv
Cqf:_ReadOnlyCollection_1_System_Collections_IList_get_Item_m887129009_gshared
z0b:__Z21GetScriptingArraySize17ScriptingArrayPtr
xSc:__ZN20TextRenderingPrivate8FontImpl8TransferI14SafeBinaryReadEEvRT_
eka:__ZN9GfxDevice17ImmediateTexCoordEifff
gfi:_Parser_ParseRegularExpression_m2390577313
tHc:__ZN10ClipperLib7Clipper13AppendPolygonEPNS_5TEdgeES2_
ERd:_Array_double_swapper_m1175307080
zNf:_X509CertificateEnumerator_System_Collections_IEnumerator_Reset_m327358896
uqd:_Hash__ctor_m2554411450
ALe:_NumberFormatter_AppendDigits_m1308372770
Zrd:_Single_System_IConvertible_ToDateTime_m2510003459_AdjustorThunk
mbe:_Delegate_RemoveImpl_m3666700529
DWj:_emscripten_glUniform4f__wrapper
yHf:_NameObjectCollectionBase_OnDeserialization_m3478980442
cL:__ZN25RuntimeAnimatorControllerC2E18MemLabelIdentifier18ObjectCreationMode
VLd:_InputField_set_caretColor_m2252440840
pH:__ZN8Animator8TransferI19StreamedBinaryWriteILb0EEEEvRT_
oNa:__ZNK6Camera16GetProjectionFarEv
Oq:__Z24InverseTransformRotationRK23TransformAccessReadOnlyRKN4math7_float4E
UVe:_MissingFieldException__ctor_m1161042282
Mle:_Array_InternalArray__IndexOf_TisSlot_t2267560602_m1912863273_gshared
Uri:_Mesh_get_uv3_m1531319041
A_a:__ZNK14PlayableOutput11DerivesFromE17ScriptingClassPtr
O$a:__ZN7Texture34CreateFileTextureUploadInstructionE18TextureUploadFlagsj
Ixa:__ZN13ComputeShader14SetBufferParamEjRKN9ShaderLab16FastPropertyNameE15ComputeBufferID
Hpf:_ReadOnlyCollection_1_System_Collections_Generic_IListU3CTU3E_Insert_m3054305464_gshared
gH:__ZN8Animator8TransferI14SafeBinaryReadEEvRT_
dme:_Array_InternalArray__IndexOf_TisTypeTag_t141209596_m2882894956_gshared
gSh:_Slider_get_value_m4182660424
DDc:__ZNK14b2CapsuleShape5CloneEP16b2BlockAllocator
tx:__ZN17AnimationPlayable34CollectAnimatorControllerPlayablesER13dynamic_arrayIP26AnimatorControllerPlayableLj4EE
IV:__ZN16BaseVideoTexture19UpdateVideoTexturesEv
DTa:__Z28BuildSingleStreamChannelInfo17ShaderChannelMaskRK20VertexChannelsLayoutS_S2_P11ChannelInfo
vPa:__ZNK16LightmapSettings23HasLightProbeTetrahedraEv
PAf:_Context_get_WriteSequenceNumber_m243492531
l5a:__ZN6Sprite23VirtualRedirectTransferER19StreamedBinaryWriteILb0EE
fwg:__ZL51Assembly_t4268412390_CustomAttributesCacheGeneratorP21CustomAttributesCache
bud:_String_LastIndexOfAny_m1473637802
zqc:__Z38Transform_CUSTOM_INTERNAL_set_positionP12Il2CppObjectRK8Vector3f
wsi:_PlayerEditorConnectionEvents_InvokeMessageIdSubscribers_m795891627
Ljj:__ZNK15dense_hashtableINSt3__24pairIK10KeyWrapperINS1_IPK9FieldInfoP11Il2CppClassEEEjEES9_17ReflectionMapHashIS8_EN14dense_hash_mapIS9_jSD_NS9_14EqualsComparerINS0_8equal_toIS8_EEEENS0_9allocatorISB_EEE9SelectKeyESI_SK_E5beginEv
RXa:__ZNK9ShaderLab7Program19HasMatchingVariantsERK13dynamic_arrayI16ShaderKeywordSetLj4EE
Ona:__ZN14DataBufferGLES11CopySubDataEPKS_jjj
ie:_emscripten_glVertexPointer
SBa:__ZNSt3__26__treeI20DeviceDepthStateGLES11memcmp_lessIS1_S1_ENS_9allocatorIS1_EEE7destroyEPNS_11__tree_nodeIS1_PvEE
QHd:_Graphic__ctor_m821539719
yej:__ZN6il2cpp2vm7Runtime47RaiseExecutionEngineExceptionIfMethodIsNotFoundEPK10MethodInfo
tYb:__Z17GetFrustumPortionPK8Vector3fffPS_
ovj:__ZN15dense_hashtableINSt3__24pairIK10KeyWrapperIP14Il2CppIUnknownEjEES5_N6il2cpp5utils11PointerHashIS3_EEN14dense_hash_mapIS5_jSB_NS5_14EqualsComparerINS0_8equal_toIS4_EEEENS0_9allocatorIS7_EEE9SelectKeyESG_SI_E14squash_deletedEv
qei:_PatternCompiler_EmitClose_m2394480040
MFd:_DefaultControls_CreateDropdown_m1384069408
Ezd:_PointerEventData_get_clickCount_m4064532478
Vde:_EventArgs__cctor_m1350395667
aia:__ZNK9GfxDevice27GetPlatformAdjustedViewportEv
wee:_CCGregorianCalendar_is_leap_year_m567513478
dSd:_Attribute_IsDefined_m2118467641
YDi:_SpriteAtlasManager_Register_m447878083
kDe:_PrivateKeyInfo_Normalize_m3959595934
_Wh:_InternalEnumerator_1_System_Collections_IEnumerator_get_Current_m3125080595_gshared
Uif:_Collection_1_System_Collections_IList_Add_m2091889616_gshared
Bec:__ZN16StreamedResource8TransferI24GenerateTypeTreeTransferEEvRT_
xFc:__ZN11b2GearJoint4DumpEv
gHd:_DropdownItem_OnPointerEnter_m761897861
Gya:__ZN10Matrix3x3f15InvertTransposeEv
Fhe:_Array_InternalArray__ICollection_Remove_TisKeyValuePair_2_t1174980068_m2768765894_gshared
dQb:__Z11IsBatchmodev
Cgf:_Collection_1_set_Item_m2199807215_gshared
cxb:__Z29Transfer_Blittable_ArrayFieldI14SafeBinaryRead8Vector3fEvRT_R9ArrayInfoRK23StaticTransferFieldInfo
o9f:_UInt32_System_IConvertible_ToBoolean_m91295134
U3f:_Monitor_Monitor_test_synchronised_m1542589500
hQg:__ZL68RuntimePlatform_t1869584967_CustomAttributesCacheGenerator_WP8PlayerP21CustomAttributesCache
mTc:__ZN20TextRenderingPrivate8FontImpl18ResetCachedTextureEv
ZDe:_SymmetricTransform_TransformFinalBlock_m4192185386
NIe:_TextInfo__ctor_m1263401274
LHj:_GC_print_finalization_stats
zCh:_ValueCollection__ctor_m927733289_gshared
lFc:__ZNK12b2WheelJoint10GetAnchorBEv
Pkc:__Z53Register_UnityEngine_Behaviour_get_isActiveAndEnabledv
kJf:_IPAddress_ToString_m267966740
lq:__ZNSt3__26vectorIN4core12basic_stringIcNS1_20StringStorageDefaultIcEEEENS_9allocatorIS5_EEE8__appendEj
Udb:__ZN26PlayerSettingsSplashScreen8TransferI17RemapPPtrTransferEEvRT_
L_h:_InternalEnumerator_1_get_Current_m3922357178_gshared
hdj:__ZN6il2cpp6icalls8mscorlib6SystemL17CollectTypeFieldsINS_5utils10functional10TrueFilterEEEvP11Il2CppClassPKS7_iRNSt3__26vectorIP9FieldInfoNSB_9allocatorISE_EEEERKT_
j_g:__ZL72ColorBlock_t2652774230_CustomAttributesCacheGenerator_m_HighlightedColorP21CustomAttributesCache
d7f:_Type_get_IsValueType_m1733572463
x6b:__Z13GetTagManagerv
LPc:__ZN14PhysicsQuery2D7RaycastERK8Vector2fS2_fRKN10Collider2D13ContactFilterEPKS3_bP12RaycastHit2Di
hie:_Array_InternalArray__ICollection_Remove_TisUInt16_t986882611_m65494986_gshared
vof:_ReadOnlyCollection_1_IndexOf_m3054637117_gshared
B2i:__ZL10roundUp128PyS_
eY:__ZN11UnityEngine15CloudWebService17CloudJobSchedulerD0Ev
Ysd:_String_System_IConvertible_ToBoolean_m2696751322
hgb:__ZN18LoadSceneOperation7PerformEv
t6c:__ZNK2UI11CanvasGroup22GetTypeVirtualInternalEv
nri:_Matrix4x4_MultiplyPoint3x4_m1436516889
eud:_String_LastIndexOfAny_m4281325295
rHc:__ZN10ClipperLib7Clipper14IntersectEdgesEPNS_5TEdgeES2_RNS_8IntPointE
doh:__Z163RuntimeInvoker_Void_t1841601450_RuntimeObject_Int32_t2071877448_SByte_t454417549_SByte_t454417549_SingleU26_t4173844468_SingleU26_t4173844468_SingleU26_t4173844468PFvvEPK10MethodInfoPvPS4_
vtc:__Z21CleanupGlobalGUIStatev
I5f:_TimeSpan__ctor_m1888018443_AdjustorThunk
Puh:__Z74RuntimeInvoker_Int32_t2071877448_UIVertex_t1204258818_UIVertex_t1204258818PFvvEPK10MethodInfoPvPS4_
I$d:_SyncHashtable_get_Count_m3694444082
sGb:__Z18Transfer_BlittableI18StreamedBinaryReadILb0EELb1EN4math12int3_storageEEvRK29SerializationCommandArgumentsR31RuntimeSerializationCommandInfo
Zhj:__ZNSt3__26vectorINS_12basic_stringIcNS_11char_traitsIcEENS_9allocatorIcEEEENS4_IS6_EEE8allocateEj
oAa:__ZN22VertexDeclarationCache5ClearEv
_ib:__ZN15CacheWriterBase18GetAddressOfMemoryEv
Zz:__Z27ProcessRootMotionEmptyMixerP35AnimationPlayableEvaluationConstantP32AnimationPlayableEvaluationInputP33AnimationPlayableEvaluationOutput
ZZb:__ZN6Camera24PrepareCullingParametersERK23CameraCullingParameters13RenderingPathR11CullResults
_gc:__Z12SetIUISystemP9IUISystem
ugb:__ZN19RuntimeSceneManager22EndIntegrateMainThreadEP10UnitySceneNS_11LoadingModeE
hSi:_endingscore_Update_m791733001
Eyb:__Z26Transfer_UnityEngineObjectI17RemapPPtrTransferLb0EEvRK29SerializationCommandArgumentsR31RuntimeSerializationCommandInfo
lud:_String_IsNullOrEmpty_m2802126737
QUd:_Byte_Parse_m1442736478
RNe:_Int64_Parse_m3258022240
Xtd:_String_IndexOfOrdinal_m3591623977
p_f:_CryptoConfig_EncodeLongNumber_m2352037787
H7f:_Type_GetMethod_m475234662
w9h:_ActivationServices_get_ConstructionActivator_m1726426854
ZAb:__Z29Transfer_Blittable_ArrayFieldI24GenerateTypeTreeTransfer4AABBEvRT_R9ArrayInfoRK23StaticTransferFieldInfo
$Dg:__ZL52Activator_t1850728717_CustomAttributesCacheGeneratorP21CustomAttributesCache
NIj:_GC_adj_bytes_allocd
Jne:_Array_InternalArray__ICollection_Add_TisKeyframe_t1449471340_m887263954_gshared
ppe:_Array_InternalArray__Insert_TisDateTime_t693205669_m1484996356_gshared
D4e:_List_1_System_Collections_IList_Remove_m3933652540_gshared
wSe:_MonoIO_get_ConsoleInput_m2976499023
ujg:_OpCode_get_Size_m481593949_AdjustorThunk
fZd:_BitArrayEnumerator_checkVersion_m3839504595
tQd:_Array_GetUpperBound_m1352329707
KFc:__ZN13b2PulleyJoint24SolveVelocityConstraintsERK12b2SolverData
_uj:__ZN6il2cpp6icalls8mscorlib6System10Reflection10MonoMethod19get_base_definitionEP22Il2CppReflectionMethod
Da:invoke_fiiifii
kzf:_RecordProtocol__ctor_m168945279
L8d:_DateTimeOffset_Equals_m3728302791_AdjustorThunk
QVa:__ZN20SphericalHarmonicsL219AddDirectionalLightERKN4math7_float3ERKNS0_7_float4E
E6f:_TimeSpan_op_GreaterThanOrEqual_m3997050520
kea:__Z26ScheduleJobForEachInternalR8JobFencePFvPvjES1_iPFvS1_E11JobPriority
iLf:_OidEnumerator_MoveNext_m1889267785
QPb:__ZZ23InitPlayerLoopCallbacksvEN41PostLateUpdateProfilerEndFrameRegistrator7ForwardEv
zhc:__ZN9Scripting18RaiseMonoExceptionEPKcz
V0a:__ZN9Texture2D8TransferI19StreamedBinaryWriteILb0EEEEvRT_
uKi:_TweenRunner_1_StartTween_m3792842064_gshared
Kbc:__ZN9ShaderLab16FastPropertyName15InitBy28BitHashEj
fsd:_Single_System_IConvertible_ToInt32_m3269519527_AdjustorThunk
tZi:_TextGenerationSettings_Equals_m1603221718
and:_SHA1Internal_ProcessBlock_m4070037334
cMa:__ZN17PersistentManager17IsObjectAvailableEi
T8h:_Marshal_copy_from_unmanaged_m98320635
xqe:_Array_InternalArray__set_Item_TisDouble_t4078015681_m24756265_gshared
xni:_Display_RelativeMouseAtImpl_m700362000
LEi:_Vector2_get_right_m4262310679
R8b:__ZN13ProduceHelperIN2UI13RectTransformELb0EE7ProduceE18MemLabelIdentifier18ObjectCreationMode
n8a:__ZN17PackedFloatVector12UnpackFloatsEPfiiii
mmf:_ReadOnlyCollection_1__ctor_m3671019970_gshared
bD:__ZN17AnimationPlayable28UpdateInternalStateRecursiveILi3ELb0EEEvPK35AnimationPlayableEvaluationConstant
ala:__ZN13GfxDeviceGLES21DestroyComputeProgramER12ObjectHandleI18ComputeProgram_TagPvE
E3d:_Convert_ToDecimal_m2007036836
dsj:__ZN6il2cpp6icalls8mscorlib6System5Array12SetValueImplEP11Il2CppArrayP12Il2CppObjecti
_ba:__ZN17UniqueIDGenerator16DestroyPureIndexEj
E8:__ZL21AppendNestedClassName17ScriptingClassPtrRN4core17string_with_labelILi1EEE
jkb:__ZN14SafeBinaryRead21TransferSTLStyleArrayINSt3__26vectorIN9ShaderLab20SerializedSubProgram12UAVParameterENS1_9allocatorIS5_EEEEEEvRT_17TransferMetaFlags
Dbi:_Context_NotifyDynamicSinks_m1367144344
nZ:__ZN24TextDOMTransferWriteBaseI9JSONWriteE12PushMetaFlagEi
jBf:_Context_get_Current_m2717045324
qzf:_TlsClientCertificateVerify__ctor_m110646389
Bta:__ZN6prcoreL26RemapGenericIntegerToFloatI17TexFormatARGB888815TexFormatRFloatEEvPKNS_9InnerInfoE
Mbi:_Context_GetServerContextSinkChain_m390126977
Mhj:__ZN6il2cpp2vm17TypeNameParseInfoD2Ev
dQ:__ZN4FMOD7Channel7setModeEj
dUe:_StringReader_Read_m513112775
I2a:__ZNK8Renderer8GetLayerEv
YRa:__ZN12FlareManager11DeleteFlareEi
BUb:__ZNK6Camera20GetReplacementShaderEv
lYj:_glProgramBinary__wrapper
D9d:_Decimal__ctor_m569480123_AdjustorThunk
FIf:_HttpWebRequest__cctor_m3013631978
PLj:__ZNSt3__26__treeINS_12__value_typeINS_12basic_stringIcNS_11char_traitsIcEENS_9allocatorIcEEEEPFvvEEENS_19__map_value_compareIS7_SA_NS_4lessIS7_EELb1EEENS5_ISA_EEE4findIS7_EENS_15__tree_iteratorISA_PNS_11__tree_nodeISA_PvEEiEERKT_
xkb:__ZNSt3__26vectorIN9ShaderLab20SerializedSubProgram14ConstantBufferENS_9allocatorIS3_EEE7reserveEj
Qqa:__ZL23stbir__calculate_memoryP11stbir__info
mch:__Z83RuntimeInvoker_Void_t1841601450_Int64_t909078037_Int32_t2071877448_Int64_t909078037PFvvEPK10MethodInfoPvPS4_
YOh:_Scrollbar_FindSelectableOnRight_m3219495255
nqi:_Logger_IsLogTypeAllowed_m243840823
ERb:__ZNK6Camera18GetRenderRectangleEv
Xkj:__ZNK15dense_hashtableINSt3__24pairIK10KeyWrapperINS1_IPK10MethodInfoP11Il2CppClassEEEjEES9_17ReflectionMapHashIS8_EN14dense_hash_mapIS9_jSD_NS9_14EqualsComparerINS0_8equal_toIS8_EEEENS0_9allocatorISB_EEE9SelectKeyESI_SK_E3endEv
w6a:__ZN13sorted_vectorIN4core12basic_stringIcNS0_20StringStorageDefaultIcEEEENSt3__24lessIS4_EE13stl_allocatorIS4_L18MemLabelIdentifier81ELi16EEE4findIS4_EENS5_11__wrap_iterIPS4_EERKT_
_oe:_Array_InternalArray__ICollection_CopyTo_TisVector3_t2243707580_m509487340_gshared
zAc:__ZL26Transfer_SimpleNativeClassI8JSONRead10RectOffsetLb1EEvRK29SerializationCommandArgumentsR31RuntimeSerializationCommandInfo
G9c:__Z44CanvasRenderer_CUSTOM_INTERNAL_CALL_SetColorP12Il2CppObjectRK10ColorRGBAf
mHj:_GC_should_collect
K9h:_UrlAttribute_Equals_m1587451932
oxc:__Z18Transfer_BlittableI9JSONWriteLb1EsEvRK29SerializationCommandArgumentsR31RuntimeSerializationCommandInfo
jHc:__ZN10ClipperLib8JoinHorzEPNS_5OutPtES1_S1_S1_NS_8IntPointEb
fMe:_Int16_ToString_m4099416068_AdjustorThunk
Yid:_DSAParameters_t1872138834_marshal_pinvoke_cleanup
jic:__ZN9Transform16SetLocalRotationERK11Quaternionf
yQb:__ZN13RenderManager37RenderCamerasWithScriptableRenderLoopEi
AAe:_ASN1_Element_m2600236165
P$i:_Canvas_get_renderMode_m3398547532
$3:__ZN23InstancedPropInfoStaticL16RegisterCallbackEPv
jF:__ZN7mecanim8skeleton25SkeletonPoseComputeLocalQEPKNS0_8SkeletonEPKNS0_13SkeletonPoseTIN4math4trsXEEEPS7_ii
vzj:__ZN6il2cpp2os19ReleaseSocketHandleEj
YU:__ZN11AudioModule16GetDSPSampleRateEv
kfg:_TypeBuilder_get_next_table_index_m1415870184
eTj:___cxa_can_catch
uuf:_SequentialSearchPrimeGeneratorBase_GenerateNewPrime_m296245934
VVd:_Char_GetUnicodeCategory_m4273361321
IVe:_Math_Round_m565516458
ubi:_Identity_get_ClientDynamicProperties_m767245959
CAj:__ZN6il2cpp2os5posix15PosixWaitObjectC2ENS2_4TypeE
NSb:__ZN6Camera21PostMultiCustomRenderENS_10RenderFlagEb
$jg:_TypeBuilder_create_generic_class_m986834171
oxa:__ZN12_GLOBAL__N_112UploadImagesEP7ApiGLESjji14GraphicsFormatPKhjS2_iiii16TextureUsageModePh
CNb:__ZN23ShaderVariantCollection13WarmupShadersEv
pDi:_Transform_set_rotation_m2824446320
CAf:_Context_set_ProtocolNegotiated_m1177527245
s9f:_UInt32_System_IConvertible_ToChar_m1056040486
j8:__Z25GetCommonScriptingClassesv
jGf:_TlsStream_get_Length_m1562309511
Ygb:__Z27scripting_gc_collect_unsafei
bV:__ZN11AudioModule20SuspendVideoTexturesEv
dX:__Z59Register_UnityEngine_AudioExtensionManager_GetAudioListenerv
fbc:__ZN12CubemapArrayC2E18MemLabelIdentifier18ObjectCreationMode
S1d:_Convert_ToByte_m395020137
qAb:__Z26Transfer_UnityEngineObjectI24GenerateTypeTreeTransferLb0EEvRK29SerializationCommandArgumentsR31RuntimeSerializationCommandInfo
mWc:_UNITY_FT_GlyphLoader_CheckPoints
SUe:_TextWriter_WriteLine_m1754475888
URa:__ZN15SharedLightData7PrecalcEv
hNa:__ZN10Matrix4x4fmLERKS_
$ue:_Array_InternalArray__get_Item_TisDouble_t4078015681_m2215331088_gshared
ODb:__Z35Transfer_Blittable_FixedBufferFieldI18StreamedBinaryReadILb1EEsEvRK29SerializationCommandArgumentsR31RuntimeSerializationCommandInfo
wDh:_Dictionary_2_Init_m3666073812_gshared
jIa:__ZN15ArchiveReadFileD0Ev
SDe:_SymmetricTransform_TransformBlock_m1524716432
KNi:_GUIUtility_TakeCapture_m1786193394
Ike:_Array_compare_TisColor32_t874517518_m3842009370_gshared
Scd:__ZN11UnityEngine15PlatformWrapper18GetOperatingSystemEv
Oqf:_ReadOnlyCollection_1_System_Collections_Generic_ICollectionU3CTU3E_Remove_m974176789_gshared
abe:_Delegate_return_type_match_m4278947849
JNd:_InputField_GenerateHightlight_m1346735465
O1i:_Physics2D_Raycast_m1275014335
Qoi:_UnityEventBase_ToString_m2323130098
wii:_Uri_ParseNoExceptions_m1151989845
j1d:_GC_SuppressFinalize_m953228702
bWc:_FT_MSB
Sqj:__ZN15dense_hashtableINSt3__24pairIK10KeyWrapperINS1_IP11Il2CppClassjEEES4_EES6_N6il2cpp8metadata14ArrayClassHashEN14dense_hash_mapIS6_S4_SB_NS6_14EqualsComparerINSA_17ArrayClassCompareEEENS0_9allocatorIS8_EEE9SelectKeyESF_SH_E3endEv
JVf:_SoapServices_PreLoad_m490411755
xzi:_RectOffset__ctor_m2517237351
E9g:__Z63RuntimeInvoker_RuntimeObject_Int32_t2071877448_SByte_t454417549PFvvEPK10MethodInfoPvPS4_
lMj:__ZN6il2cpp6icalls8mscorlib4Mono8Security12Cryptography18KeyPairPersistence10_CanSecureEP12Il2CppString
MUh:_Action_1_Invoke_m4180501989_gshared
QRh:_Slider__ctor_m3124136916
vha:__ZN13GfxDeviceGLES14SetRasterStateEPK17DeviceRasterState
zMd:_InputField_set_caretPositionInternal_m231166704
Yzf:_TlsServerHello__ctor_m3032108168
mCa:__ZN14SafeBinaryRead11EndTransferEv
Ivg:__ZL98ILGenerator_t99948092_CustomAttributesCacheGenerator_ILGenerator_Mono_GetCurrentOffset_m3553856682P21CustomAttributesCache
dvb:__ZN14SafeBinaryRead8TransferI8MonoPPtrEEvRT_PKc17TransferMetaFlags
q3h:_InternalEnumerator_1_System_Collections_IEnumerator_get_Current_m1533037706_gshared
oya:__ZN21UniformBufferTFMethod13MapBoneBufferEj
ODf:_RecordProtocol_SendChangeCipherSpec_m3542001341
kre:_Array_InternalArray__set_Item_TisVector3_t2243707580_m1390667454_gshared
Esc:__ZN12GUIClipState10BeginOnGUIER10InputEvent
ssj:__ZNSt3__26vectorIcNS_9allocatorIcEEEC2Ej
Fnc:__Z40Register_UnityEngine_Input_GetKeyDownIntv
PBe:_KeyPairPersistence_CanSecure_m2251009700
PA:__ZN7mecanim5human14HumanPoseClearERNS0_9HumanPoseERKNS_6bitsetILj70EEE
oTf:_ReturnMessage_get_Properties_m531965085
lhg:_GenericTypeParameterBuilder_IsSubclassOf_m563999142
iee:_Exception_ToString_m627574695
Hkg:_AddEventAdapter_Invoke_m3970567975
cuc:__Z30Event_Get_Custom_PropModifiersP12Il2CppObject
Kx:__ZN7mecanim9animation16CreateClipOutputEPKNS0_4ClipERNS_6memory9AllocatorE
qpe:_Array_InternalArray__Insert_TisDecimal_t724701077_m1429254816_gshared
Ych:__Z191RuntimeInvoker_Int32_t2071877448_RuntimeObject_Int32_t2071877448_Int32_t2071877448_RuntimeObject_Int32_t2071877448_SByte_t454417549_Int32U26_t455636984_BooleanU26_t3168250738_SByte_t454417549PFvvEPK10MethodInfoPvPS4_
M5f:_TimeSpan_get_Days_m1002111510
CIb:__ZNSt3__218__stable_sort_moveIRN10vector_mapI17ScriptingClassPtrPKN5Unity4TypeENS_4lessIS2_EENS_9allocatorINS_4pairIS2_S6_EEEEE13value_compareENS_11__wrap_iterIPSB_EEEEvT0_SJ_T_NS_15iterator_traitsISJ_E15difference_typeEPNSM_10value_typeE
djb:__ZN6Shader21AwakeFromLoadThreadedEv
Dsa:__ZN6prcoreL17RemapGenericFloatI17TexFormatRGBFloat17TexFormatRGBAHalfEEvPKNS_9InnerInfoE
J$g:__ZL70InputField_t1631627530_CustomAttributesCacheGenerator_m_CharacterLimitP21CustomAttributesCache
uNj:__ZN6il2cpp2os9SemaphoreC2Eii
WWh:_InternalEnumerator_1_get_Current_m2960188445_AdjustorThunk
fvb:__ZNSt3__26vectorI8MonoPPtr13stl_allocatorIS1_L18MemLabelIdentifier1ELi16EEE8__appendEj
pTh:_Text_set_alignByGeometry_m1514652028
rTb:__ZN14qsort_internal30FindAndMovePivotToLastPositionIP17RODataReplacementi19ROSorterReplacementEEvT_S4_T0_T1_
zya:__ZN15UniformTFMethod20IsBoneCountSupportedEi
XQe:_FileStream_get_Position_m465478322
_7i:__ZN14dense_hash_setI10KeyWrapperIPK19Il2CppGenericMethodEN6il2cpp8metadata23Il2CppGenericMethodHashENS4_14EqualsComparerINS6_26Il2CppGenericMethodCompareEEENSt3__29allocatorIS4_EEEC2EjRKS7_RKSA_
oUj:dynCall_viidi
upe:_Array_InternalArray__Insert_TisInt64_t909078037_m3039874636_gshared
$Th:_ToggleGroup_NotifyToggleOn_m997426227
YDf:_RSASslSignatureDeformatter_SetKey_m1150106904
X5:__ZN24ScriptingMethodFiltering17FilterOnSignatureENS_18MethodSearchFilterE
IOh:_Scrollbar_ClickRepeat_m3403943364
eKc:__ZThn4_N16PhysicsManager2D12BeginContactEP9b2Contact
Y2b:__ZN18ScreenManagerWebGL13SetLockCursorE14CursorLockMode
I0c:_cf2_arrstack_finalize
mXe:_MonoType_GetMethodsByName_m1854415088
qxh:_Enumerator_get_CurrentValue_m3147984131_gshared
tfg:_DerivedType_GetMethods_m165266904
xDe:_RSAManaged_EncryptValue_m4089823119
C8b:__ZN13MonoBehaviour19HandleNotificationsEPviR11MessageData
gmi:_Component_get_gameObject_m2159020946
_Nj:__ZN6il2cpp2os9EventImpl5ResetEv
uaj:__ZN6il2cpp2vm13MetadataCache23GetMethodGenericContextEPK10MethodInfo
BOg:__ZL78Object_t1021602117_CustomAttributesCacheGenerator_Object_Instantiate_m86013740P21CustomAttributesCache
qLi:_Event_get_keyCode_m4176847855
LRe:_ReadDelegate_Invoke_m2091885836
Cgg:_TypeBuilder_GetField_m2112455315
LXj:b58
MXj:b59
CQb:__ZN25CameraStackRenderingState18EndStereoRenderingEv
tXj:b52
uXj:b53
VCj:__ZN6il2cpp2vm12AssemblyName20AssemblyNameToStringERK18Il2CppAssemblyName
sXj:b51
JXj:b56
KXj:b57
vXj:b54
GXj:b55
F6d:_DateTime__ctor_m3604679583_AdjustorThunk
MCe:_MACAlgorithm_Core_m2390605245
k2h:_InternalEnumerator_1_System_Collections_IEnumerator_get_Current_m30488070_gshared
adc:__ZN10GameObject12CleanupClassEv
jia:__ZN9GfxDevice25SetShaderPropertiesSharedERK19ShaderPropertySheet
OJi:_IndexedSet_1_GetEnumerator_m3646001838_gshared
Wwi:_PlayableHandle_IsValidInternal_m3315870994
qpa:__ZN18AsyncUploadManager19AsyncResourceUploadER9GfxDeviceii9TextureID
VMh:_VertexHelper_AddUIVertexTriangleStream_m4009409241
scc:__ZL25InitializeDefaultMaterialv
ead:__Z53Register_UnityEngine_CanvasRenderer_get_materialCountv
p2:__GLOBAL__sub_I_runtime_graphics_lod_0_cpp
DUh:_VertexHelper_AddVert_m3290455716
pGa:__ZN17PersistentManager12UnloadStreamERKN4core12basic_stringIcNS0_20StringStorageDefaultIcEEEEb
nK:__ZN15SerializeTraitsI9OffsetPtrIN7mecanim9animation17BlendTreeConstantEEE8TransferI19StreamedBinaryWriteILb0EEEEvRS4_RT_
E6b:__ZN14dense_hash_mapIN4core12basic_stringIcNS0_20StringStorageDefaultIcEEEE10vector_setI4PPtrI11SpriteAtlasENSt3__24lessIS8_EE13stl_allocatorIS8_L18MemLabelIdentifier81ELi16EEE20StringHash32FunctionIS4_ENS9_8equal_toIS4_EESC_INS9_4pairIKS4_SF_EELSD_81ELi16EEEixERSL_
G4a:__ZN13ScreenManager17RequestResolutionEiibi
M_f:_DESTransform__ctor_m4096028381
Ufj:_il2cpp_unity_liveness_calculation_from_statics
sB:__ZNK26AnimatorControllerPlayable11DerivesFromE17ScriptingClassPtr
$4f:_Scheduler_get_Instance_m1989471839
s3a:__ZN8Renderer8TransferI17RemapPPtrTransferEEvRT_
Cvh:__Z76RuntimeInvoker_Boolean_t3825574718_UIVertex_t1204258818_UIVertex_t1204258818PFvvEPK10MethodInfoPvPS4_
bhf:_Collection_1_Contains_m1299140035_gshared
IXj:_glBlitFramebuffer__wrapper
Pne:_Array_InternalArray__ICollection_Add_TisUICharInfo_t3056636800_m968274080_gshared
YKi:_ObjectPool_1__ctor_m1532275833_gshared
jnc:__Z22Input_CUSTOM_GetKeyInti
ZVi:__ZL24UnresolvedVirtualCall_71P12Il2CppObjectS0_S0_iS0_S0_S0_PK10MethodInfo
M8e:_List_1_GetIndex_m3262928832_gshared
MOc:__ZN16PhysicsManager2D19AddRigidbodyUpdatesEP11Rigidbody2D
Z0b:__Z24LookRotationToQuaternionRK8Vector3fS1_P11Quaternionf
X0b:__ZN16ReflectionProbes9GetCameraEv
Mnb:__ZL18IsGpuProgramUsable20ShaderGpuProgramTypePK6Shader
ZGe:_ArgumentException__ctor_m2105824819
J8c:__ZN2UI6Canvas17SetSortingLayerIDEi
pCd:_BaseMeshEffect_get_graphic_m3358796463
zAj:__ZN6il2cpp2vm11MethodStack23CleanupForCurrentThreadEv
n$i:_Predicate_1_Invoke_m695569038_gshared
A_e:_Enumerator_VerifyState_m825848279_AdjustorThunk
QSa:__ZN20TierGraphicsSettings8TransferI24GenerateTypeTreeTransferEEvRT_
DNi:_GUIStyleState_Cleanup_m824895509
Rwb:__ZN14SafeBinaryRead21TransferSTLStyleArrayI13dynamic_arrayI4AABBLj4EEEEvRT_17TransferMetaFlags
jZa:__ZN18UnityPropertySheet8TransferI19StreamedBinaryWriteILb0EEEEvRT_
kCf:_TlsServerCertificate_checkServerIdentity_m3836435780
cfa:__ZNSt3__26__treeINS_12__value_typeIiN11TypeManager18TypeCallbackStructEEENS_19__map_value_compareIiS4_NS_4lessIiEELb1EEENS_9allocatorIS4_EEE7destroyEPNS_11__tree_nodeIS4_PvEE
zEe:_PKCS12_Decrypt_m2353135969
cmi:_Color32_ToString_m685380321
gmg:_MonoEvent_ToString_m386956596
_Hc:__ZN16PhysicsManager2D42RegisterTransformChangeInterestForColliderEP10Collider2D
pse:_Array_Sort_TisRuntimeObject_m3309514378_gshared
xma:__ZL19GetCameraTargetRectRK6Camerabb
Sbd:__ZN11UnityEngine7Connect17XRDeviceInfoEventD0Ev
Jzh:_Transform_1_BeginInvoke_m1786442111_gshared
DKe:_Int32_GetFormatException_m1729046182
ELa:__ZN13dynamic_arrayIN10GameObject13ComponentPairELj4EE6insertEPS1_RKS1_
z0:__ZN21UnityDefaultAllocatorI17LowLevelAllocatorE10DeallocateEPv
Ht:__ZN15PackedIntVector8TransferI14SafeBinaryReadEEvRT_
Mkg:_FieldInfo_get_IsLiteral_m267898096
H7g:__Z45RuntimeInvoker_RuntimeObject_Int64_t909078037PFvvEPK10MethodInfoPvPS4_
kFf:_SslStreamBase_EndNegotiateHandshake_m1732321201
fAh:_Transform_1_BeginInvoke_m1167293475_gshared
IO:__ZN13AudioListener8DoUpdateEv
Gvc:__ZN5Unity9rapidjson13GenericReaderINS0_4UTF8IcEES3_13JSONAllocatorE9ParseTrueILj1ENS0_25GenericInsituStringStreamIS3_EENS0_15GenericDocumentIS3_S4_S4_EEEEvRT0_RT1_
N1d:__Z13bankers_roundd
Jdb:__ZN14SafeBinaryRead8TransferI5RectTIfEEEvRT_PKc17TransferMetaFlags
ti:_emscripten_glGenFramebuffers
V_d:_Hashtable_CopyTo_m2778915805
Zea:__ZN17BaseObjectManager16StaticInitializeEPv
Jeg:_ConstructorBuilder_get_IsCompilerContext_m2796899803
ule:_Array_IndexOf_TisUIVertex_t1204258818_m613887160_gshared
m2d:_DateTime_CoreParse_m2014268103
Wxc:__Z18Transfer_BlittableI9JSONWriteLb0EyEvRK29SerializationCommandArgumentsR31RuntimeSerializationCommandInfo
tXa:__ZN13RenderTexture15ThreadedCleanupEv
yke:_Array_BinarySearch_TisRuntimeObject_m3361740551_gshared
__a:__ZN12CubemapArray23VirtualRedirectTransferER14SafeBinaryRead
Ox:__ZN21AnimationClipPlayable16ProcessHumanPassEPK35AnimationPlayableEvaluationConstantPK32AnimationPlayableEvaluationInputP33AnimationPlayableEvaluationOutput
Vqf:_ReadOnlyCollection_1_System_Collections_IList_Add_m616574295_gshared
EKe:_Int32_ProcessTrailingWhitespace_m2812079777
Poc:__Z43RectTransform_CUSTOM_INTERNAL_set_sizeDeltaP12Il2CppObjectRK13Vector2fIcall
gKf:_WebProxy__ctor_m3679722173
Iwj:__ZN15dense_hashtableINSt3__24pairIK10KeyWrapperINS1_IPKcS4_EEEiEES6_24NamespaceAndNamePairHashN14dense_hash_mapIS6_iS9_NS6_14EqualsComparerI26NamespaceAndNamePairEqualsEENS0_9allocatorIS8_EEE9SelectKeyESD_SF_E6insertERKS8_
cEa:__ZN24GenerateTypeTreeTransfer18BeginArrayTransferEPKcS1_Ri17TransferMetaFlags
Fpa:__Z16DecompressCrunchPKhRjR13TextureFormatiiii18MemLabelIdentifier
nm:___syscall51
rm:___syscall54
zob:__ZN9ShaderLab9SubShader19CreateFromSubShaderERKS0_
eH:__ZNK8Animator20IsAnyRendererVisibleEv
n1c:_cff_builder_add_point1
Cxj:__ZN6il2cpp2vm5Image21GetCachedResourceDataEPK11Il2CppImageRKNSt3__212basic_stringIcNS5_11char_traitsIcEENS5_9allocatorIcEEEE
aKd:_HorizontalOrVerticalLayoutGroup_set_childControlWidth_m4209477792
Cne:_Array_InternalArray__ICollection_Add_TisUInt32_t2149682021_m2629016323_gshared
Otb:__Z18Transfer_BlittableI14SafeBinaryReadLb0E10ColorRGBAfEvRK29SerializationCommandArgumentsR31RuntimeSerializationCommandInfo
Aa:invoke_iiiiiiiiii
GW:__ZN11AudioSource25GetNumExtensionPropertiesEv
ipe:_Array_InternalArray__Insert_TisKeyValuePair_2_t888819835_m975554221_gshared
kch:__Z59RuntimeInvoker_RuntimeObject_Int64_t909078037_RuntimeObjectPFvvEPK10MethodInfoPvPS4_
igb:__ZN18LoadSceneOperation19IntegrateTimeSlicedEi
k5f:_Scheduler_SchedulerThread_m2209572785
Exe:_SortKeyBuffer_GetResultAndReset_m2516956577
d5b:__ZN10FileSystem19SetCurrentDirectoryERKN4core12basic_stringIcNS0_20StringStorageDefaultIcEEEE
F8:__ZN16ScriptingManager24NotifyScriptCacheReleaseEi
Hkc:__Z47Register_UnityEngine_Coroutine_ReleaseCoroutinev
tP:__ZN15AudioReverbZone13SetFMODValuesEv
e5:__ZL19StaticDestroyShaderPv
de:_glRenderbufferStorageMultisample
lyi:_Ray_GetPoint_m2427899009
AC:__ZN23AnimationPlayableOutput17SetTargetAnimatorEP8Animator
rzc:__ZN9JSONWrite8TransferI13dynamic_arrayIN4math12int3_storageELj4EEEEvRT_PKc17TransferMetaFlags
pvi:_X509Chain__ctor_m1113875360
gqf:_ReadOnlyCollection_1__ctor_m2387481411_gshared
FCf:_TlsServerHello_processProtocol_m1241336522
Ehe:_Array_InternalArray__ICollection_Remove_TisKeyValuePair_2_t888819835_m1287715465_gshared
ici:_ContextAttribute_IsContextOK_m3281216012
WSe:_PathTooLongException__ctor_m3212099251
LXf:_ObjectManager_RaiseDeserializationEvent_m1611173032
fv:__ZN17PackedFloatVector8TransferI18StreamedBinaryReadILb0EEEEvRT_
a0a:__ZN7Cubemap23VirtualRedirectTransferER17RemapPPtrTransfer
Imc:__Z37Register_UnityEngine_Screen_get_widthv
pfc:__ZN22BlockMemoryCacheWriter11GetPathNameEv
vId:_Graphic_Rebuild_m2617722358
qic:__ZN23TransformChangeDispatch38CheckAndClearChangedForMultipleSystemsEyP19ProfilerInformation
s8d:_DateTime_ToString_m3108726445_AdjustorThunk
rY:__ZN19CloudServiceHandlerD2Ev
Kue:_Array_InternalArray__get_Item_TisTableRange_t2011406615_m602485977_gshared
CNd:_InputField_Append_m2623574152
TGe:_ApplicationException__ctor_m1120437222
dp:stackAlloc
alc:__Z44Camera_CUSTOM_INTERNAL_CALL_ScreenPointToRayP12Il2CppObjectRK8Vector3fR3Ray
uJa:__ZN25SingleBlockMemoryFileData4LockEPPv
Jig:_MethodBuilder_GetHashCode_m1713271764
Odf:_Collection_1_IsSynchronized_m1319022347_gshared
Nwe:_MSCompatUnicodeTable_GetResource_m3816716847
Tmc:__Z32RectOffset_Get_Custom_PropBottomP12Il2CppObject
IQd:_Array_CreateInstance_m15016505
hwb:__ZNSt3__26vectorI17AnimationCurveTplIfE13stl_allocatorIS2_L18MemLabelIdentifier1ELi16EEE6assignINS_11__wrap_iterIPS2_EEEENS_9enable_ifIXaasr21__is_forward_iteratorIT_EE5valuesr16is_constructibleIS2_NS_15iterator_traitsISC_E9referenceEEE5valueEvE4typeESC_SC_
fQj:_stat
Ald:_RijndaelTransform_Decrypt128_m1282993908
Q$i:_Canvas_get_isRootCanvas_m3746337338
Hoe:_Array_InternalArray__ICollection_CopyTo_TisUInt16_t986882611_m3228377237_gshared
s0g:__ZL68Navigation_t1571958496_CustomAttributesCacheGenerator_m_SelectOnDownP21CustomAttributesCache
tGc:__ZN15b2DistanceJoint23InitVelocityConstraintsERK12b2SolverData
MNb:__ZNSt3__218__insertion_sort_3IRNS_4lessIN22BuiltinResourceManager8ResourceEEEPS3_EEvT0_S7_T_
Ukd:_RC2_set_KeySize_m2015782960
ma:invoke_iiiiiiiiiiii
nEe:_StrongName_get_PublicKey_m3777577320
xoi:_PersistentCallGroup_Initialize_m3729167844
hS:__ZN10AudioMixer12RebindOutputEv
qqj:__ZNK15dense_hashtableINSt3__24pairIK10KeyWrapperIP11Il2CppClassES4_EES5_N6il2cpp8metadata16SZArrayClassHashEN14dense_hash_mapIS5_S4_SA_NS5_14EqualsComparerINS9_19SZArrayClassCompareEEENS0_9allocatorIS7_EEE9SelectKeyESE_SG_E5beginEv
L4i:__ZN6il2cpp2vm17SetupFieldsLockedEP11Il2CppClassRKNS_2os12FastAutoLockE
KS:__ZN11AudioSourceD0Ev
ksb:__ZN16MemoryFileSystem4NameEv
cxd:_BaseRaycaster_OnEnable_m3641767070
_Ve:_MissingMemberException_get_Message_m2763732423
puf:_PrimeGeneratorBase_get_PrimalityTest_m308005118
Drc:__Z13SetCopyBufferRKN4core12basic_stringIcNS_20StringStorageDefaultIcEEEE
g3e:_List_1_CheckIndex_m2328469916_gshared
Hfh:__Z75RuntimeInvoker_RuntimeObject_RuntimeObject_Decimal_t724701077_RuntimeObjectPFvvEPK10MethodInfoPvPS4_
LUc:_UNITY_FT_New_Size
_ic:__Z42ScriptingGetComponentsOfTypeFromGameObjectRK26ScriptingGetComponentsArgs
FLi:_GUI_set_changed_m3199207797
Vbf:_List_1_get_Item_m3157283227_gshared
D5d:_Convert_ToString_m2915777777
GZa:__ZNSt3__27__sort4IRPFbRKNS_4pairIN9ShaderLab16FastPropertyNameEN18UnityPropertySheet11UnityTexEnvEEES8_EPS6_EEjT0_SD_SD_SD_T_
E0c:_cf2_hintmap_build
y_c:_Line_Up
UXe:_MonoType_GetGenericTypeDefinition_m2363776160
MAf:_Context_set_SentConnectionEnd_m2641458842
ke:_emscripten_glBufferSubData
TTd:_Buffer_BlockCopyInternal_m2627156229
oId:_Graphic_set_material_m329335629
Nwd:_ExecuteEvents_get_pointerExitHandler_m3250605428
Fra:__ZN6prcoreL12RemapGenericI15TexFormatRGB88817TexFormatARGB8888EEvPKNS_9InnerInfoE
Vp:__Z17CalculateGlobalRS23TransformAccessReadOnly
nze:_Kernel_multiByteDivide_m735279869
dGh:_Dictionary_2_ToTValue_m542772656_gshared
K4f:_Thread_GetNewManagedId_internal_m3211695465
j1i:_UISystemProfilerApi_EndSample_m3264820872
bpa:__ZN17GenericDynamicVBO17DrawChunkInternalERK21DynamicVBOChunkHandle17ShaderChannelMaskS3_P17VertexDeclarationP16DrawBuffersRangeij
Nwb:__ZN14SafeBinaryRead21TransferSTLStyleArrayI13dynamic_arrayI9BoundsIntLj4EEEEvRT_17TransferMetaFlags
Sib:__ZN22MemoryCacherReadBlocks14LockCacheBlockEjPPhS1_
USd:_Boolean_System_IConvertible_ToChar_m2637404801_AdjustorThunk
$qd:_SecurityContext_Capture_m2535194991
K8f:_UInt16_System_IConvertible_ToSByte_m3044765342_AdjustorThunk
DRb:__ZNK9GfxDevice26GetSinglePassStereoEyeMaskEv
Ceh:__Z66RuntimeInvoker_Void_t1841601450_Int64_t909078037_Int32_t2071877448PFvvEPK10MethodInfoPvPS4_
KTc:__ZN20TextRenderingPrivate8FontImpl16CacheFontForTextEPtiifjPK13dynamic_arrayINS_16TextFormatChangeELj4EE
Dre:_Array_qsort_TisUIVertex_t1204258818_TisUIVertex_t1204258818_m512606409_gshared
Jid:__Z21ArrayElementTypeCheckP11Il2CppArrayPv
Z_j:_emscripten_glTexSubImage2D__wrapper
THf:_NameValueCollection_AsSingleString_m10599052
CJc:__ZN17PhysicsMaterial2D16CheckConsistencyEv
VXb:__ZN14qsort_internal30FindAndMovePivotToLastPositionIP21ForwardRenderPassDataiN23ForwardShaderRenderLoop18RenderObjectSorterILb0EEEEEvT_S6_T0_T1_
UYe:_Object_InternalGetHashCode_m1371384246
MMh:_Navigation_get_defaultNavigation_m2185194207
$Pc:__ZN16PhysicsManager2D20WorldContactFilter2D13ShouldCollideEP9b2FixtureS2_
yMe:_Int32_System_IConvertible_ToSByte_m1449623243_AdjustorThunk
lGe:_AccessViolationException__ctor_m1270251537
kbd:__Z42Register_UnityEngine_Canvas_get_rootCanvasv
Ivi:_X509ExtensionCollection_IndexOf_m3972100651
cvb:__Z14resize_trimmedINSt3__26vectorI8MonoPPtr13stl_allocatorIS2_L18MemLabelIdentifier1ELi16EEEEEvRT_j
Te:_TTF_RenderText_Solid
E9f:_UInt32_System_IConvertible_ToInt64_m3091851828
bWe:_MissingMethodException__ctor_m3898429715
iVf:_RemotingConfiguration_RegisterClientProviderTemplate_m514821425
dyh:_Enumerator_System_Collections_IEnumerator_Reset_m3085583937_gshared
lfa:__ZN15dense_hashtableINSt3__24pairIKPKcPK4RTTIEES3_N11TypeManager23ConstCharPtrHashFunctorEN14dense_hash_mapIS3_S7_SA_NS9_19ConstCharPtrEqualToE13stl_allocatorIS8_L18MemLabelIdentifier7ELi16EEE9SelectKeyESC_SF_E15insert_noresizeERKS8_
yDe:_RSAManaged_ExportParameters_m2873993187
m1d:_Convert__cctor_m926133987
Lcf:_Enumerator__ctor_m2816143215_AdjustorThunk
Vfd:__ZN11UnityEngine7Connect16PersistentValuesC2Ev
UMf:_X509Chain_FindParent_m404663796
Axc:__Z18Transfer_BlittableI9JSONWriteLb0E5RectTIiEEvRK29SerializationCommandArgumentsR31RuntimeSerializationCommandInfo
aWe:_MissingMemberException__ctor_m2164043278
K2i:__ZL7log2_32j
rgf:_Collection_1_CopyTo_m2282972507_gshared
zPf:_Interpreter_GetGroupInfo_m312421921
Iva:__Z15IsIEEE754Format14GraphicsFormat
Jyb:__Z19TransferField_ArrayI17RemapPPtrTransfer27Converter_UnityEngineObjectEvRK23StaticTransferFieldInfoR31RuntimeSerializationCommandInfoRT0_
$a:invoke_iifiii
ZWb:__ZN19ShaderPropertySheet24SetTextureFromTextureRefERK23FastTexturePropertyNamePK10TextureRef
aOe:_NumberFormatter_InitDecHexDigits_m1612588520
yja:__ZN13GfxDeviceGLES15UploadTexture2DE9TextureID16TextureDimensionPKhiii14GraphicsFormati18TextureUploadFlags16TextureUsageMode
kR:__ZN4FMOD6System9createDSPEP20FMOD_DSP_DESCRIPTIONPPNS_3DSPE
YB:__ZN7mecanim9animation26DestroyControllerWorkspaceEPNS0_19ControllerWorkspaceERNS_6memory9AllocatorE
nN:__ZN4FMOD8ChannelI11EndCallbackEv
Dod:_ToBase64Transform_TransformBlock_m2201454137
Htc:__ZN8GUIStyle14SetDefaultFontEPN13TextRendering4FontE
vjg:_OpCode_get_StackBehaviourPop_m3787015663_AdjustorThunk
gei:_PatternCompiler_EmitCount_m3609178511
_3a:__ZN15QualitySettings23VirtualRedirectTransferER24GenerateTypeTreeTransfer
zgj:__ZN6il2cpp2os10FileHandleC2Ev
w7i:__ZN30dense_hashtable_const_iteratorINSt3__24pairIK10KeyWrapperIPK19Il2CppGenericMethodEPK26Il2CppGenericMethodIndicesEES6_N6il2cpp8metadata23Il2CppGenericMethodHashEN14dense_hash_mapIS6_SA_SE_NS6_14EqualsComparerINSD_26Il2CppGenericMethodCompareEEENS0_9allocatorISB_EEE9SelectKeyESI_SK_EppEv
NGf:_HybridDictionary_Add_m1037587952
nUc:_UNITY_FT_Request_Metrics
evj:__ZN6il2cpp6icalls8mscorlib6System10Reflection10MonoMethod29get_IsGenericMethodDefinitionEP22Il2CppReflectionMethod
Krj:__ZN6il2cpp2vm6Thread21AllocThreadStaticDataEi
p2d:_DateTime_YearMonthDayFormats_m4204607055
WDd:_ColorBlock_set_disabledColor_m3502887543_AdjustorThunk
UDj:__ZN30dense_hashtable_const_iteratorINSt3__24pairIK10KeyWrapperIPK19Il2CppGenericMethodEP10MethodInfoEES6_N6il2cpp8metadata23Il2CppGenericMethodHashEN14dense_hash_mapIS6_S9_SD_NS6_14EqualsComparerINSC_26Il2CppGenericMethodCompareEEENS0_9allocatorISA_EEE9SelectKeyESH_SJ_EppEv
SV:__Z13RegisterClassI13AudioListenerEvv
DOi:_Aes__ctor_m4020215067
Zwc:__Z18Transfer_BlittableI9JSONWriteLb0E8Vector3fEvRK29SerializationCommandArgumentsR31RuntimeSerializationCommandInfo
Sf:_emscripten_glUniform4i
tId:_Graphic_OnDisable_m2360886868
cLi:_ObjectPool_1_Release_m1615270002_gshared
cf:_emscripten_glUniform4f
yj:___unlock
dHa:__ZN15dense_hashtableINSt3__24pairIKN4core12basic_stringIcNS2_20StringStorageDefaultIcEEEEP20ArchiveStorageReaderEES6_20StringHash32FunctionIS6_EN14dense_hash_mapIS6_S9_SC_NS0_8equal_toIS6_EE13stl_allocatorISA_L18MemLabelIdentifier55ELi16EEE9SelectKeyESF_SI_ED2Ev
pQh:_ScrollRect_InternalCalculateOffset_m3083065267
x3b:__ZN13sorted_vectorINSt3__24pairIN4core12basic_stringIcNS2_20StringStorageDefaultIcEEEES6_EEN10vector_mapIS6_S6_27compare_tstring_insensitiveIS6_E13stl_allocatorIS7_L18MemLabelIdentifier38ELi16EEE13value_compareESD_E9erase_oneIS6_EEjRKT_
mZd:_Comparer_Compare_m4132969818
tT:__ZN20SoundChannelInstance19setReverbPropertiesEP29FMOD_REVERB_CHANNELPROPERTIES
THh:_DefaultComparer_Equals_m2171836276_gshared
auj:__ZN6il2cpp2vm9Exception18GetFormatExceptionEPKc
krc:__Z40Register_UnityEngine_Transform_IsChildOfv
Uqi:_Mathf_Floor_m484333823
eXd:_ArrayList_Sort_m923359189
upi:_Gradient_Init_m3042650694
Ulc:__Z45Register_UnityEngine_Display_GetSystemExtImplv
Ny:__ZN7mecanim9animation23TransformValuesFromClipEiiiRKNS_10ValueArrayERKNS0_10ClipOutputERKNS0_12ClipBindingsERS1_RNS_14ValueArrayMaskEb
H2i:__ZL17log2withScale_128yyi
s7c:__ZNSt3__218__insertion_sort_3IRNS_6__lessIN2UI14DepthSortEntryES3_EEPS3_EEvT0_S7_T_
S8b:__ZN2UI13RectTransform15InitializeClassEv
kda:__ZN13RuntimeStaticI15DirectorManagerLb0EE16StaticInitializeEPv
VAc:__ZN8JSONRead8TransferI23ManagedObjectTransfererEEvRT_PKc17TransferMetaFlagsb
L4f:_Thread_get_ManagedThreadId_m1995754972
wwd:_BaseInput_get_touchCount_m998724785
ycb:__ZN11TimeManager6UpdateEv
WNd:_InputField_get_preferredWidth_m3185355225
C4f:_Thread_SetState_m3198426726
yXd:_ArrayListWrapper_Contains_m1158465965
mQj:_fflush
TNa:__ZN17LightProbeContext4InitERK16LightmapSettingsRK14RenderSettings
rOj:__GLOBAL__sub_I_Error_cpp
NTi:_AudioSource_INTERNAL_CALL_ReadExtensionPropertyName_m3694806886
rgi:_Alternation_GetWidth_m4218808325
Brf:_ReadOnlyCollection_1_System_Collections_IList_Insert_m2651065875_gshared
tWc:_ft_bitmap_glyph_bbox
_Hf:_TypeConverterAttribute__ctor_m4061167050
mcf:_Enumerator_MoveNext_m3315718998_gshared
zI:__ZN14SafeBinaryRead21TransferSTLStyleArrayI22OffsetPtrArrayTransferI9OffsetPtrIN7mecanim12statemachine21SelectorStateConstantEEEEEvRT_17TransferMetaFlags
wIj:_GC_reclaim_uninit
k$b:__Z34ProcessIndexListIsNodeVisibleStep2RK22SceneCullingParametersPK9SceneNodePK4AABBR9IndexList
CKb:__ZN10MonoScriptD2Ev
Iu:__ZN18StreamedBinaryReadILb0EE8TransferINSt3__26vectorIN13AnimationClip12Vector3CurveE13stl_allocatorIS5_L18MemLabelIdentifier26ELi16EEEEEEvRT_PKc17TransferMetaFlags
wSh:_Slider_OnRectTransformDimensionsChange_m4109401172
cKf:_WebHeaderCollection_Get_m3391944907
qnc:__Z39Input_CUSTOM_INTERNAL_get_mousePositionP8Vector3f
zZc:_tt_cmap13_char_next
wob:__ZN9ShaderLab4Pass16SetupPassOptionsEv
fh:_JS_Sound_ReleaseInstance
TPg:__ZL72IL2CPPStructAlignmentAttribute_t130316838_CustomAttributesCacheGeneratorP21CustomAttributesCache
xia:__ZN13GfxDeviceGLES19DrawBuffersIndirectEP9GfxBufferPK18VertexStreamSourceiP17VertexDeclaration17ShaderChannelMask16GfxPrimitiveType15ComputeBufferIDj
CFd:_DefaultControls_CreateScrollbar_m770089625
KZj:_emscripten_glPixelStorei__wrapper
tOc:__Z20GetRigidbodyChildrenRK9Transform13dynamic_arrayIP11Rigidbody2DLj4EE
Em:FUNCTION_TABLE_diddi
gpc:__Z26Material_CUSTOM_SetIntImplP12Il2CppObjectii
mKe:_Int16_System_IConvertible_ToSingle_m3277935657_AdjustorThunk
O6c:__ZNK2UI14CanvasRenderer22GetTypeVirtualInternalEv
Jci:_InternalRemotingServices__cctor_m3821625125
enc:__Z42Register_UnityEngine_RectOffset_get_bottomv
I1f:_StringBuilder_Insert_m3322917127
aHh:_DefaultComparer_Equals_m724229128_gshared
Uyh:_Enumerator_VerifyCurrent_m1702320752_AdjustorThunk
Owb:__ZN9BoundsInt8TransferI14SafeBinaryReadEEvRT_
d4d:_Convert_ToDouble_m3520060872
dZj:_emscripten_glUniform1f__wrapper
YTj:dynCall_di
cEf:_SslCipherSuite_ComputeServerRecordMAC_m1876572367
uTc:__ZN20TextRenderingPrivate19NativeTextGeneratorC2ERK11UTF16StringPNS_8FontImplE11ColorRGBA32ifRK8Vector2fbifiibffbbbP13dynamic_arrayIN2UI8UIVertexELj4EE
Gwc:__Z28RegisterModule_JSONSerializev
R3f:_Interlocked_CompareExchange_m3227034792
tjd:_HashAlgorithm_get_Hash_m931854461
I5h:_DefaultComparer_Compare_m3564013922_gshared
ypb:__ZN2UI13RectTransform8TransferI14SafeBinaryReadEEvRT_
Sxc:__Z35Transfer_Blittable_FixedBufferFieldI9JSONWriteaEvRK29SerializationCommandArgumentsR31RuntimeSerializationCommandInfo
jlh:__Z63RuntimeInvoker_RuntimeObject_Ray_t2469606224_Single_t2076509932PFvvEPK10MethodInfoPvPS4_
Tgc:__Z20IsHumanControllingUsv
ZQb:__ZNK19RenderEventsContext21ExecuteCommandBuffersEijR17ShaderPassContextR15RenderNodeQueueP19ProfilerInformationi
o1:__ZNK20DynamicHeapAllocatorI17LowLevelAllocatorE10GetPtrSizeEPKv
Ns:__ZN7mecanim5human9HumanGoal8TransferI14SafeBinaryReadEEvRT_
sCi:_Texture2D_GetPixelBilinear_m3514551520
iz:__ZN17AnimationPlayable16AllocateBindingsEPK35AnimationPlayableEvaluationConstant
nGd:_Dropdown_set_value_m2945561009
oia:__ZN13GfxDeviceGLES17DestroyGpuProgramEPK10GpuProgram
wHe:_GregorianCalendar_GetMonth_m523739832
mtb:__Z44InitializeTransferFunctionScriptingTraitsForI18StreamedBinaryReadILb0EEEvR31TransferFunctionScriptingTraits
jXb:__ZNSt3__218__insertion_sort_3IR23CompareReflectionProbesP31RuntimeReflectionProbeBlendInfoEEvT0_S5_T_
Tyb:__ZN12NativeBufferI27Converter_SimpleNativeClassI8GradientEE15SetupForWritingER9ArrayInfo
aga:__ZNSt3__213__stable_sortIRNS_4lessIN4core12basic_stringIcNS2_20StringStorageDefaultIcEEEEEENS_11__wrap_iterIPS6_EEEEvT0_SC_T_NS_15iterator_traitsISC_E15difference_typeEPNSF_10value_typeEi
_2:__ZN12_GLOBAL__N_113StaticDestroyEPv
LJe:_Guid_ToString_m51661589
bTh:_Text_set_font_m1095513810
P1j:_glUnmapBuffer__wrapper
s7d:_DateTime_System_IConvertible_ToUInt32_m1363211018_AdjustorThunk
nLd:_InputField_get_cachedInputTextGenerator_m881618486
loc:__Z32Mesh_CUSTOM_ExtractArrayFromListP12Il2CppObject
odg:_Binder_get_DefaultBinder_m965620943
yBc:__ZN8JSONRead21TransferSTLStyleArrayINSt3__26vectorI8Gradient13stl_allocatorIS3_L18MemLabelIdentifier1ELi16EEEEEEvRT_17TransferMetaFlags
Vcb:__ZNSt3__218__insertion_sort_3IRNS_6__lessINS_4pairIPKN5Unity4TypeE7Hash128EES8_EEPS8_EEvT0_SC_T_
BAb:__ZN10RectOffset8TransferI24GenerateTypeTreeTransferEEvRT_
IRd:_SimpleEnumerator_get_Current_m482975946
SQj:_srand
oKc:__ZNK10Collider2D15GetAttachedBodyEv
Nzb:__Z18Transfer_BlittableI24GenerateTypeTreeTransferLb1E5RectTIiEEvRK29SerializationCommandArgumentsR31RuntimeSerializationCommandInfo
NPa:__ZNSt3__24listI4PPtrI6CameraENS_9allocatorIS3_EEE6removeERKS3_
b7c:__ZN2UI13CanvasManager19RemoveDirtyRendererEPNS_6CanvasEPNS_14CanvasRendererE
v8i:__ZN15dense_hashtableI10KeyWrapperIPK17Il2CppGenericInstES4_N6il2cpp8metadata21Il2CppGenericInstHashEN14dense_hash_setIS4_S7_NS4_14EqualsComparerINS6_24Il2CppGenericInstCompareEEENSt3__29allocatorIS4_EEE8IdentityESB_SE_E12resize_deltaEjj
bic:__ZN8Material14DisableKeywordERKN4core12basic_stringIcNS0_20StringStorageDefaultIcEEEE
Ecd:__ZN11UnityEngine15PlatformWrapper25GetGraphicsRendererStringEv
iNd:_InputField_KeyPressed_m3066588581
BRh:_Selectable_DoStateTransition_m539253088
Mnd:_SHA512_Create_m439875055
X$:__ZN11UnityEngine15CloudWebService17WebFileDownloaderINS0_20WebRequestRestClientENS0_23WebRequestRestHeaderMapEED2Ev
Ub:invoke_vi
End:_SHA384Managed_update_m2629600295
KHc:__ZNSt3__26vectorINS0_IN10ClipperLib8IntPointENS_9allocatorIS2_EEEENS3_IS5_EEE7reserveEj
fzc:__ZN9JSONWrite8TransferI13dynamic_arrayI9BoundsIntLj4EEEEvRT_PKc17TransferMetaFlags
Sb:invoke_vd
sb:invoke_vf
waa:__ZNK10GameObject8IsActiveEv
lYe:_NumberFormatter__cctor_m1641464619
kWg:__ZL67g_UnityEngine_PhysicsModule_Assembly_CustomAttributesCacheGeneratorP21CustomAttributesCache
vZf:_SByte_System_IConvertible_ToUInt32_m4256495110
azd:_PointerEventData_set_eligibleForClick_m2036057844
wva:__ZN18GfxFramebufferGLES23SetupDefaultFramebufferEPP17RenderSurfaceBaseS2_N2gl6HandleILNS3_10ObjectTypeE9EEE
uQj:_mbsinit
JXg:__ZL70EventSystem_t3466835263_CustomAttributesCacheGenerator_m_FirstSelectedP21CustomAttributesCache
LRi:_AudioManager_explode_m2464530137
b5a:__ZN13ScreenManager18RequestOrientationE17ScreenOrientation
i5i:__ZN6il2cpp2vm5Class12SetupMethodsEP11Il2CppClass
wic:__Z39DeleteLastPathNameComponentWithAnySlashRKN4core12basic_stringIcNS_20StringStorageDefaultIcEEEE
Hsc:__ZN10GUIManager14InitGUIManagerEv
F$g:__ZL68InputField_t1631627530_CustomAttributesCacheGenerator_m_KeyboardTypeP21CustomAttributesCache
HUh:_VerticalLayoutGroup_CalculateLayoutInputHorizontal_m497637066
_Rf:_MethodCall__ctor_m4106494862
c9g:__Z167RuntimeInvoker_Void_t1841601450_SByte_t454417549_SByte_t454417549_SByte_t454417549_SByte_t454417549_SByte_t454417549_SByte_t454417549_SByte_t454417549_SByte_t454417549PFvvEPK10MethodInfoPvPS4_
Quc:__Z37Register_UnityEngine_GUIStyle_Cleanupv
Oa:invoke_iiifii
Tdj:__ZN6il2cpp6icalls8mscorlib6System8MonoType13IsPointerImplEP20Il2CppReflectionType
P3d:_Convert_ToDecimal_m2284596541
Ri:_emscripten_glFramebufferRenderbuffer
$Zb:__ZN19CullingGroupManager17CullAndSendEventsERK22SceneCullingParametersiRK13CullingOutputRK8JobFence
NNe:_Int64_GetHashCode_m4047499913
FLa:__ZN9Transform30EnsureTransformHierarchyExistsEv
Efj:_il2cpp_field_get_flags
mV:__ZN11AudioModule26SetDefaultMicrophoneDriverEPv
eSd:_Attribute_IsDefined_m216577166
iWd:_Char_ToUpper_m109978609
r_h:_InternalEnumerator_1_get_Current_m1089848479_gshared
hce:_Double_System_IConvertible_ToInt64_m3798425616
LAd:_StandaloneInputModule_get_repeatDelay_m3025279
v6a:__ZN14dense_hash_mapIN4core12basic_stringIcNS0_20StringStorageDefaultIcEEEE13dynamic_arrayI4PPtrI6SpriteELj4EE20StringHash32FunctionIS4_ENSt3__28equal_toIS4_EE13stl_allocatorINSC_4pairIKS4_S9_EEL18MemLabelIdentifier81ELi16EEEixERSH_
o3b:__ZNSt3__26vectorINS_4pairIN4core12basic_stringIcNS2_20StringStorageDefaultIcEEEEPK17MessageIdentifierEENS_9allocatorISA_EEE12__move_rangeEPSA_SE_SE_
YAi:_SceneManager_LoadSceneAsyncNameIndexInternal_m1250496078
sTb:__ZN14qsort_internal17MedianOfThreeSwapIP17RODataReplacement19ROSorterReplacementEEvT_S4_S4_T0_
$3i:__ZNK15dense_hashtableINSt3__24pairIK10KeyWrapperIPK22Il2CppGenericParameterEP11Il2CppClassEES6_N6il2cpp5utils11PointerHashIS4_EEN14dense_hash_mapIS6_S9_SE_NS6_14EqualsComparerINS0_8equal_toIS5_EEEENS0_9allocatorISA_EEE9SelectKeyESJ_SL_E3endEv
sic:__ZN17TransformInternal36OnScaleChangedCalculateTransformTypeE15TransformAccess
CYd:_SynchronizedArrayListWrapper_InsertRange_m709359548
wHa:__ZN17ArchiveFileSystem10ToAbsoluteEPKc
duf:_BigInteger_op_Modulus_m13450242
rdd:__ZN19UnityConnectService15GetPlayerUserIdEv
F4d:_Convert_ToInt32_m2988544165
Ure:_Array_Resize_TisColor32_t874517518_m2219502085_gshared
ID:__ZN7mecanim6CRCKeyENS_7eStringE
WFf:_SslStreamBase_get_CanWrite_m2069502593
Ifc:__ZL12SetPrefValueRKN4core12basic_stringIcNS_20StringStorageDefaultIcEEEERK9PrefValue
DEj:__ZN6il2cpp5utils11StringUtils6PrintfEPKcz
UZa:__ZN15NameToObjectMapI6ShaderNSt3__23mapI4PPtrIS0_EN4core12basic_stringIcNS5_20StringStorageDefaultIcEEEENS1_4lessIS4_EENS1_9allocatorINS1_4pairIKS4_S9_EEEEEENS1_8multimapIS9_S4_NSA_IS9_EENSC_INSD_IKS9_S4_EEEEEEE4FindERSK_
azh:_ShimEnumerator_Reset_m98005789_gshared
z$a:__ZN24GenerateTypeTreeTransfer21TransferResourceImageE19ActiveResourceImagePKcR13StreamingInfoPvjiPKN5Unity4TypeE
xpf:_ReadOnlyCollection_1_System_Collections_IList_set_Item_m1377990618_gshared
hig:_ILGenerator_make_room_m373147874
DGh:_Dictionary_2_Init_m1045257495_gshared
BTd:_Boolean_CompareTo_m3691698947_AdjustorThunk
Gle:_Array_InternalArray__IndexOf_TisKeyValuePair_2_t888819835_m2660446234_gshared
ZCe:_PKCS1_Verify_v15_m2571212635
WUa:__ZNSt3__212__deque_baseI18ReflectionProbeJobNS_9allocatorIS1_EEED2Ev
eD:__ZN11UnityEngine9Animation27DestroyAnimationSetBindingsEPNS0_20AnimationSetBindingsERN7mecanim6memory9AllocatorE
akb:__ZN15dense_hashtableINSt3__24pairIKiN4core17string_with_labelILi1EEEEEi18SInt32HashFunctionN14dense_hash_mapIiS5_S7_NS0_8equal_toIiEE13stl_allocatorIS6_L18MemLabelIdentifier1ELi16EEE9SelectKeyESA_SD_E13set_empty_keyERKS6_
gL:__ZN8Animator12CleanupClassEv
d$f:_DecoderReplacementFallbackBuffer__ctor_m1305504326
wBc:__Z13TransferFieldI8JSONReadLb0E27Converter_SimpleNativeClassI10RectOffsetEEvRK23StaticTransferFieldInfoR31RuntimeSerializationCommandInfoRT1_
Vtd:_String_IndexOf_m570401060
Tce:_Enum_System_IConvertible_ToDateTime_m2924690746
PGd:_Dropdown_CreateBlocker_m4109366440
ojd:_HashAlgorithm_System_IDisposable_Dispose_m2106335965
Dxj:__GLOBAL__sub_I_GenericMetadata_cpp
fdj:__ZN6il2cpp6icalls8mscorlib6System8MonoType18GetFields_internalEP20Il2CppReflectionTypeiS5_
N_b:__Z24CalculateSpotLightBoundsffRK10Matrix4x4fR15SpotLightBounds
Qwe:_TailoringInfo__ctor_m2248501932
mY:__ZN23CloudWebServicesManager23VirtualRedirectTransferER14SafeBinaryRead
J8g:__Z150RuntimeInvoker_Int32_t2071877448_RuntimeObject_Int32_t2071877448_Int32_t2071877448_RuntimeObject_Int32_t2071877448_Int32_t2071877448_Int32_t2071877448PFvvEPK10MethodInfoPvPS4_
_Xd:_FixedSizeArrayListWrapper_InsertRange_m2690348965
fKb:__Z19ShouldTransferFieldR32SerializationCommandQueueBuilder17ScriptingClassPtriR18TransferField_InfoRK20CoreScriptingClasses
ekg:_FieldInfo_get_IsStatic_m1411173225
jSe:_MemoryStream_Read_m2289595005
_za:__ZN26SinglePassStereoSupportExt21SetStereoMatrixCommonE21MonoOrStereoscopicEye24BuiltinShaderMatrixParamRK10Matrix4x4f
SR:__ZN5audio5mixer22UpdateAudioMixerMemoryERKNS0_18AudioMixerConstantERNS0_16AudioMixerMemoryEfPN4FMOD6SystemEf
aSc:__ZL21InitializeCachedStripPv
Tsj:__ZN6il2cpp6icalls8mscorlib6System9Threading6Thread23GetCachedCurrentCultureEP12Il2CppThread
WQh:_Selectable_get_allSelectables_m3045831006
sNa:__ZNK6Camera22GetWorldToCameraMatrixEv
pAj:__ZN6il2cpp2vm12GenericClass11IsValueTypeEP18Il2CppGenericClass
cJb:__ZN13MonoBehaviour7SetNameEPKc
Zwf:_ContentInfo__ctor_m3579805263
L6i:__ZN15dense_hashtableINSt3__24pairIK10KeyWrapperIPKcEP11Il2CppClassEES5_N6il2cpp5utils11StringUtils12StringHasherIS4_EEN14dense_hash_mapIS5_S8_SE_NS5_14EqualsComparerINSB_13VmStringUtils21CaseSensitiveComparerEEENS0_9allocatorIS9_EEE9SelectKeyESJ_SL_E15set_deleted_keyERKS9_
cQh:_ScrollRect_get_verticalNormalizedPosition_m1701804869
D2:__GLOBAL__sub_I_runtime_shaders_shaderimpl_0_cpp
ygb:__ZN18AwakeFromLoadQueue5ClearEv
oBh:_Enumerator_get_Current_m2986380627_AdjustorThunk
qZb:__ZNSt3__27__sort5IR15ReflProbeSorterPP15ReflectionProbeEEjT0_S6_S6_S6_S6_T_
Ida:__ZN8Playable10DisconnectEPS_i
IXh:_InternalEnumerator_1_get_Current_m1526874475_AdjustorThunk
tk:_glGenTransformFeedbacks
gGa:__ZN13LoadOperationD2Ev
FBe:_KeyPairPersistence__ctor_m1817312194
T$i:_Canvas_set_scaleFactor_m3986864146
$ge:_Array_InternalArray__ICollection_Contains_TisMark_t2724874473_m1640201705_gshared
VMb:__Z21PlayerStartFirstSceneb
Yfg:_TypeBuilder_get_AssemblyQualifiedName_m2097258567
HZa:__ZNSt3__27__sort5IRPFbRKNS_4pairIN9ShaderLab16FastPropertyNameEN18UnityPropertySheet11UnityTexEnvEEES8_EPS6_EEjT0_SD_SD_SD_SD_T_
pna:__ZNK7ApiGLES18GetExtensionStringEv
Cya:__ZN31TransformFeedbackSkinPoseBufferD0Ev
eZj:_emscripten_glVertexAttrib1f__wrapper
tqb:__ZNK12HandlerChain4SizeERK13FileEntryData
yHh:_DefaultComparer_Equals_m1281232537_gshared
bp:FUNCTION_TABLE_iiiiiiiii
vMd:_InputField_set_asteriskChar_m619206227
H_f:_DES_IsSemiWeakKey_m3967392585
jEc:__Z22GetPhysicsGroundBody2Dv
sKe:_Int16_System_IConvertible_ToUInt32_m883204517_AdjustorThunk
xng:_MonoProperty_get_PropertyType_m1921201152
hFd:_FloatTween_TweenValue_m3881535116_AdjustorThunk
kHj:_GC_allochblk
Ngb:__Z15UnloadGameScenev
K1j:_glCheckFramebufferStatus__wrapper
tfb:__ZNSt3__26vectorIN30RuntimeInitializeOnLoadManager15ClassMethodInfoE13stl_allocatorIS2_L18MemLabelIdentifier13ELi16EEE7reserveEj
UKj:__ZN6il2cpp2vm6Atomic9IncrementEPVi
itf:_BigInteger_get_Rng_m2525288368
rOf:_X509ExtensionEnumerator_Reset_m3200687545
nZd:_CaseInsensitiveHashCodeProvider__ctor_m3775398833
Cmc:__Z36Renderer_Get_Custom_PropSortingOrderP12Il2CppObject
xMi:_GUIContent__cctor_m976962423
bkj:__ZNK15dense_hashtableINSt3__24pairIK10KeyWrapperIPK10Il2CppTypeEjEES6_N6il2cpp8metadata14Il2CppTypeHashEN14dense_hash_mapIS6_jSB_NS6_14EqualsComparerINSA_26Il2CppTypeEqualityComparerEEENS0_9allocatorIS8_EEE9SelectKeyESF_SH_E13find_positionERS7_
wWa:__ZN7Texture5ResetEv
ADc:__ZNK14b2CapsuleShape7RayCastEP15b2RayCastOutputRK14b2RayCastInputRK11b2Transformi
czb:__Z18Transfer_BlittableI24GenerateTypeTreeTransferLb1EhEvRK29SerializationCommandArgumentsR31RuntimeSerializationCommandInfo
bkc:__ZNK16TypeTreeIterator10ByteOffsetEv
_Hd:_Graphic_get_rectTransform_m2697395074
Rca:__ZnwjRKSt9nothrow_t
BG:__ZN8Animator11ClearObjectEv
uLf:_X500DistinguishedName_Decode_m3070515374
oYa:__ZN14SafeBinaryRead19TransferSTLStyleMapINSt3__23mapI39DeprecatedFastPropertyNameSerializationN18UnityPropertySheet11UnityTexEnvENS1_4lessIS3_EENS1_9allocatorINS1_4pairIKS3_S5_EEEEEEEEvRT_17TransferMetaFlags
lJf:_IPv6Address_set_ScopeId_m1442934355
MXf:_ObjectManager_RaiseOnDeserializedEvent_m512850179
Yjc:__Z35UnregisterSerializationCacheBuilderPFv17ScriptingClassPtrR23CachedSerializationDataRbE
iOa:__Z30GetBuiltinVectorParamArraySize24BuiltinShaderVectorParam
Bwe:_CodePointIndexer__ctor_m797342079
k2a:__ZN18StreamedBinaryReadILb0EE21TransferSTLStyleArrayI13dynamic_arrayI7Hash128Lj8EEEEvRT_17TransferMetaFlags
$2a:__ZN21RendererUpdateManager11AddRendererER8Renderer
O7b:__Z13RegisterClassI15ResourceManagerEvv
Wtb:__Z35Transfer_Blittable_FixedBufferFieldI14SafeBinaryReadsEvRK29SerializationCommandArgumentsR31RuntimeSerializationCommandInfo
v8a:__ZN14SafeBinaryRead21TransferSTLStyleArrayI13dynamic_arrayIfLj4EEEEvRT_17TransferMetaFlags
EEj:__ZN6il2cpp5utils11StringUtils11Utf16ToUtf8EPKDs
Yeb:__ZN18StreamedBinaryReadILb0EE21TransferSTLStyleArrayINSt3__26vectorIN15ResourceManager10DependencyE13stl_allocatorIS5_L18MemLabelIdentifier52ELi16EEEEEEvRT_17TransferMetaFlags
Vcd:__ZN11UnityEngine15PlatformWrapper20IsRootedOrJailbrokenEv
YPb:__ZZ23InitPlayerLoopCallbacksvEN52PreLateUpdateScriptRunBehaviourLateUpdateRegistrator7ForwardEv
WLf:_X509Certificate2_GetNameInfo_m402390219
J_b:__Z33IntersectAABBPlaneBoundsOptimizedRK4AABBPKN4math7_float4Ei
NRd:_Swapper_BeginInvoke_m2652511022
vzi:_RectOffset_t3387826427_marshal_pinvoke_back
Bia:__ZN9GfxDevice19EndGeometryJobFrameEv
Yyb:__ZN27Converter_SimpleNativeClassI17AnimationCurveTplIfEE17ScriptingToNativeER18ScriptingObjectPtrPS1_
WMj:__ZN6il2cpp8metadata24Il2CppGenericInstCompare7CompareERK10KeyWrapperIPK17Il2CppGenericInstES8_
t7i:__ZNK15dense_hashtableINSt3__24pairIK10KeyWrapperIPK19Il2CppGenericMethodEPK26Il2CppGenericMethodIndicesEES6_N6il2cpp8metadata23Il2CppGenericMethodHashEN14dense_hash_mapIS6_SA_SE_NS6_14EqualsComparerINSD_26Il2CppGenericMethodCompareEEENS0_9allocatorISB_EEE9SelectKeyESI_SK_E5beginEv
pId:_Graphic_get_materialForRendering_m2600868951
Xw:__ZN27AnimationLayerMixerPlayable21UpdateLayerParametersEv
yfc:__ZN9Polygon2D7DefaultEv
Oxi:_Quaternion_Internal_FromEulerRad_m1739712481
Ogf:_Collection_1_System_Collections_IList_Contains_m3210868188_gshared
m9b:__ZNK17AnimationCurveTplIfE8EvaluateEfPNS0_5CacheE
aPb:__Z31ManagerContextInitializeClassesv
vLe:_NumberFormatter_AppendIntegerString_m868842252
Ytg:__ZL53SortedList_t3004938869_CustomAttributesCacheGeneratorP21CustomAttributesCache
RUc:_UNITY_FT_List_Finalize
vUb:__Z20LightAttenuateApproxRKfS0_
mDa:__ZN9Scripting30SetCachedPtrOnScriptingWrapperE18ScriptingObjectPtrP6Object
uCb:__Z18Transfer_BlittableI19StreamedBinaryWriteILb0EELb0EdEvRK29SerializationCommandArgumentsR31RuntimeSerializationCommandInfo
pvd:_ASCIIEncoding_GetBytes_m3649277167
Rpe:_Array_InternalArray__Insert_TisColor_t2020392075_m165848534_gshared
_Fc:__ZN16b2PrismaticJoint4DumpEv
oK:__ZN7mecanim9animation21BlendTreeNodeConstant8TransferI19StreamedBinaryWriteILb0EEEEvRT_
gSa:__ZN18BlockRangeInternal16PopLastNodeIndexEP10BlockRangeji
Ebg:_Version__ctor_m2972638031
Uze:_Kernel_MultiplyByDword_m155008287
R7a:__ZN4MeshD0Ev
ech:__Z121RuntimeInvoker_Void_t1841601450_Int64_t909078037_RuntimeObject_RuntimeObject_Int64_t909078037_RuntimeObject_RuntimeObjectPFvvEPK10MethodInfoPvPS4_
kid:__ZL42RequestRecreateEyeTexturesBeforeNextUpdatev
rma:__ZNK6Camera20IsCurrentlyRenderingEv
My:__ZN21AnimationClipPlayable23ProcessRootMotionNoClipEPK35AnimationPlayableEvaluationConstantPK32AnimationPlayableEvaluationInputP33AnimationPlayableEvaluationOutput
P9c:__Z36CanvasRenderer_CUSTOM_SetPopMaterialP12Il2CppObjectS0_i
Xgj:_UpdatedEventHandler_Invoke_m4240581743
Zxc:__Z18Transfer_BlittableI9JSONWriteLb0EdEvRK29SerializationCommandArgumentsR31RuntimeSerializationCommandInfo
vFc:__ZNK11b2GearJoint16GetReactionForceEf
oJ:__ZN15SerializeTraitsI9OffsetPtrIN7mecanim9animation17BlendTreeConstantEEE8TransferI24GenerateTypeTreeTransferEEvRS4_RT_
iUh:_Toggle_OnDidApplyAnimationProperties_m325835214
jPj:_wctomb
elc:__Z27Camera_CUSTOM_GetAllCamerasP11Il2CppArray
n1d:_Convert_InternalFromBase64String_m3682756716
_c:___cxa_rethrow
Czc:__Z18Transfer_BlittableI8JSONReadLb1EhEvRK29SerializationCommandArgumentsR31RuntimeSerializationCommandInfo
mNc:__ZN18Overlap2DQueryBase13ReportFixtureEP9b2Fixture
a6f:_TimeSpan_Add_m3228293154
BHh:_DefaultComparer_Equals_m4098991076_gshared
D1b:__ZN13MonoBehaviour8SetClassE17ScriptingClassPtr18ScriptingObjectPtr
Ewf:_RC4__cctor_m523650203
mci:_CrossContextDelegate_Invoke_m2908136830
hrb:__ZN20LocalFileSystemPosix4ReadER13FileEntryDatayyPvPy
XXb:__ZNSt3__211__sift_downIRN23ForwardShaderRenderLoop18RenderObjectSorterILb0EEEP21ForwardRenderPassDataEEvT0_S7_T_NS_15iterator_traitsIS7_E15difference_typeES7_
mVe:_UnmanagedMemoryStream_get_Position_m4093669769
sJb:__ZN13MonoBehaviour5DoGUIENS_13GUILayoutTypeEii
Sfg:_DerivedType_IsDefined_m555719351
sdi:_Mark_get_IsDefined_m3332701456
XEa:__ZNK12TLSAllocatorI14StackAllocatorE8ContainsEPKv
Acb:__ZN11TimeManager8TransferI18StreamedBinaryReadILb0EEEEvRT_
Vob:__ZN15SerializeTraitsINSt3__23mapI4PPtrI6ShaderEN4core12basic_stringIcNS5_20StringStorageDefaultIcEEEENS0_4lessIS4_EENS0_9allocatorINS0_4pairIKS4_S9_EEEEEEE8TransferI24GenerateTypeTreeTransferEEvRSH_RT_
S_f:_DESTransform__cctor_m1179482644
c8a:__ZN14BlendShapeData8TransferI14SafeBinaryReadEEvRT_
cde:_Enum_Format_m2294492821
k$a:__ZN7Texture25ReloadFromStorageIfNeededEPvb
Twc:__Z35Transfer_Blittable_FixedBufferFieldI9JSONWritehEvRK29SerializationCommandArgumentsR31RuntimeSerializationCommandInfo
ccg:_OverflowException__ctor_m2564269836
kzh:_ShimEnumerator_get_Entry_m2332479818_gshared
_7d:_DateTime_CheckDateTimeKind_m329345155_AdjustorThunk
t3c:_Update_Max
fsj:__ZN6il2cpp6icalls8mscorlib6SystemL15ThrowNoWideningEv
u9b:__ZNK23TransformChangeDispatch24GetChangeMaskForInterestENS_12InterestTypeE
Nqc:__Z45Transform_CUSTOM_INTERNAL_CALL_TransformPointP12Il2CppObjectRK8Vector3fRS1_
wgf:__ZN23InterfaceActionInvoker2Ii18Color32_t874517518E6InvokeEjP11Il2CppClassP12Il2CppObjectiS0_
B5b:__ZL10KeyHandleriPK23EmscriptenKeyboardEventPv
tKc:__ZN15dense_hashtableINSt3__24pairIKNS1_IPK10Collider2DS4_EE11Collision2DEES5_NS2_23ColliderPairHashFunctorEN14dense_hash_mapIS5_S7_S9_NS0_8equal_toIS5_EE13stl_allocatorIS8_L18MemLabelIdentifier67ELi16EEE9SelectKeyESC_SF_EC2ERKSI_j
GYa:__ZNSt3__26__treeINS_12__value_typeI39DeprecatedFastPropertyNameSerializationfEENS_19__map_value_compareIS2_S3_NS_4lessIS2_EELb1EEENS_9allocatorIS3_EEE7destroyEPNS_11__tree_nodeIS3_PvEE
cZc:_tt_cmap4_char_index
B6f:_TimeSpan_op_Addition_m3421801803
Dqb:__ZNK12HandlerChain8IsHiddenERK13FileEntryData
__g:__ZL50Graphic_t2426225576_CustomAttributesCacheGeneratorP21CustomAttributesCache
myb:__ZL26Transfer_SimpleNativeClassI17RemapPPtrTransfer10RectOffsetLb0EEvRK29SerializationCommandArgumentsR31RuntimeSerializationCommandInfo
sVc:__Z14ValidateFormatR13dynamic_arrayIN20TextRenderingPrivate16TextFormatChangeELj4EE
Yt:__ZNSt3__26vectorIN13AnimationClip15QuaternionCurveE13stl_allocatorIS2_L18MemLabelIdentifier26ELi16EEE6assignINS_11__wrap_iterIPS2_EEEENS_9enable_ifIXaasr21__is_forward_iteratorIT_EE5valuesr16is_constructibleIS2_NS_15iterator_traitsISC_E9referenceEEE5valueEvE4typeESC_SC_
W6d:_DateTime_System_IConvertible_ToInt32_m2789391054_AdjustorThunk
Wih:__Z73RuntimeInvoker_Single_t2076509932_Vector3_t2243707580_Vector3_t2243707580PFvvEPK10MethodInfoPvPS4_
CAe:_ASN1Convert_FromInt32_m1541043489
dAd:_PointerInputModule_ProcessMove_m3200120346
W1d:_Convert_ToByte_m1008221737
Fvf:_MD2Managed_MD2Transform_m3825201358
G0g:__ZL69Scrollbar_t3248359358_CustomAttributesCacheGenerator_m_OnValueChangedP21CustomAttributesCache
gHc:__ZN10ClipperLib14PointInPolygonERKNS_8IntPointEPNS_5OutPtE
sGd:_Dropdown_AddOptions_m835420907
eOa:__ZNK9ShaderLab20ShaderBlendStateDesc15ToGfxBlendStateEPK19ShaderPropertySheetS3_R13GfxBlendState
EDd:_CanvasUpdateRegistry_IsRebuildingLayout_m1677873278
JC:__ZN11UnityEngine9AnimationL22GenericBindingCallbackEPvS1_i
d3c:_Compute_Point_Displacement
Cob:__ZN9ShaderLab9IntShaderC2Ev
_dj:__ZN6il2cpp6icalls8mscorlib6SystemL9IsPrivateEPK9EventInfo
wLj:__ZN6il2cpp6icalls8mscorlib6System10Reflection4Emit11TypeBuilder20setup_internal_classEP27Il2CppReflectionTypeBuilderS7_
WVh:_ArrayReadOnlyList_1_IndexOf_m1809425308_gshared
Mfj:_il2cpp_gc_disable
bwc:__ZN5Unity9rapidjson6WriterI16TempBufferWriterNS0_4UTF8IcEES4_13JSONAllocatorE11WriteUint64Ey
Myd:_ExecuteEvents_U3Cs_HandlerListPoolU3Em__0_m2903690915
c$d:_Hashtable_Clone_m165405752
bGc:__ZN16b2PrismaticJoint24SolveVelocityConstraintsERK12b2SolverData
L3i:__ZN13Il2CppHashMapIPK22Il2CppGenericParameterP11Il2CppClassN6il2cpp5utils11PointerHashIS1_EENSt3__28equal_toIS2_EENS9_9allocatorINS9_4pairIK10KeyWrapperIS2_ES4_EEEEEC2EjRKS8_RKSB_
UAc:__ZN8JSONRead21TransferSTLStyleArrayI31ArrayOfManagedObjectsTransfererEEvRT_17TransferMetaFlags
fKa:__Z15CreateDirectoryRKN4core12basic_stringIcNS_20StringStorageDefaultIcEEEE
LVa:__Z21CalculateGlobalMatrix23TransformAccessReadOnly
Jsg:__ZL70InternalsVisibleToAttribute_t1037732567_CustomAttributesCacheGeneratorP21CustomAttributesCache
Fcb:__ZNK13BuildSettings22GetTypeVirtualInternalEv
VPe:_MonoIO_GetCurrentDirectory_m1509324201
p2f:_UTF32Encoding_GetHashCode_m4205784236
R2d:_DateTime_ToUniversalTime_m1815024752
M7b:__Z13RegisterClassI14RenderSettingsEvv
k0b:__ZNK25CameraStackRenderingState25CalculateCameraTargetTypeEv
VJj:_GC_set_on_event
xvh:__Z80RuntimeInvoker_Boolean_t3825574718_Navigation_t1571958496_Navigation_t1571958496PFvvEPK10MethodInfoPvPS4_
Mdf:_Collection_1_ConvertItem_m3563206219_gshared
y6f:_TimeSpan_Subtract_m3597791685_AdjustorThunk
$A:__ZN7mecanim12statemachine24CreateStateMachineOutputEPKNS0_20StateMachineConstantEjRNS_6memory9AllocatorE
nAj:__ZN6il2cpp2vm12GenericClass8GetClassEP18Il2CppGenericClass
aja:__ZNK9GfxDevice27GetActiveRenderSurfaceWidthEv
Gcd:__ZN11UnityEngine15PlatformWrapper28GetCleanGraphicsFixedVersionEv
w:tempBigIntP
lij:__ZN6il2cpp2vm4Type7GetTypeEPK10Il2CppType
GJc:__ZN17PhysicsMaterial2D23VirtualRedirectTransferER18StreamedBinaryReadILb0EE
i6b:__ZN16SpriteRenderData28PrepareRenderingDataIfNeededEv
SRd:_AssemblyLoadEventHandler_Invoke_m108373765
cAd:_PointerInputModule_ShouldStartDrag_m4163638715
cWi:__ZL24UnresolvedVirtualCall_76P12Il2CppObjectPK10MethodInfo
Ksa:__ZN6prcoreL17RemapGenericFloatI18TexFormatRGBAFloat17TexFormatRGBAHalfEEvPKNS_9InnerInfoE
zQb:__Z16FindCameraStacksRKNSt3__24listI4PPtrI6CameraENS_9allocatorIS3_EEEERNS_6vectorI11CameraStackNS4_ISA_EEEE
K1a:__ZN10GISettings8TransferI14SafeBinaryReadEEvRT_
xn:FUNCTION_TABLE_vifff
Ipf:_ReadOnlyCollection_1_System_Collections_Generic_ICollectionU3CTU3E_Remove_m2957273994_gshared
v2b:__ZN19CustomRenderTexture12ClearGPUDataEv
Uwd:_BaseInputModule_ShouldActivateModule_m2899747874
Iuh:__Z86RuntimeInvoker_Int32_t2071877448_DateTimeOffset_t1362988906_DateTimeOffset_t1362988906PFvvEPK10MethodInfoPvPS4_
FWa:__ZN13RenderTexture13ApplySettingsEv
CWj:_glVertexAttrib4f__wrapper
Xe:_JS_Sound_SetListenerPosition
pn:FUNCTION_TABLE_fiffi
hjg:_ModuleBuilderTokenGenerator_GetToken_m3427457873
F9c:__Z55Register_UnityEngine_CanvasGroup_get_ignoreParentGroupsv
jRh:_Selectable_get_isPointerInside_m3162215687
ele:_Array_FindIndex_TisRuntimeObject_m4149904176_gshared
K1e:_List_1_System_Collections_IList_Contains_m149594880_gshared
jbg:_UnauthorizedAccessException__ctor_m3480402128
Rze:_BigInteger_op_Modulus_m3788401748
Vda:__ZZN15DirectorManager15InitializeClassEvEN45FixedUpdateDirectorFixedSampleTimeRegistrator7ForwardEv
Oci:_ArgInfo_GetInOutArgs_m3184132151
Iib:__ZNK8Material16MarkDependenciesER27GarbageCollectorThreadState
ayi:_Random_Range_m3327624272
wKc:__ZN15dense_hashtableINSt3__24pairIKNS1_IPK10Collider2DS4_EE11Collision2DEES5_NS2_23ColliderPairHashFunctorEN14dense_hash_mapIS5_S7_S9_NS0_8equal_toIS5_EE13stl_allocatorIS8_L18MemLabelIdentifier67ELi16EEE9SelectKeyESC_SF_E5clearEv
ayc:__ZL17Transfer_GUIStyleI9JSONWriteLb0EEvRK29SerializationCommandArgumentsR31RuntimeSerializationCommandInfo
nVb:__Z28GetHaloVertexPositionsStereoP8Vector3fRKS_S2_f
zta:__ZN6prcoreL27StretchGenericFloatBilinearI15TexFormatRGHalfEEvPKNS_9InnerInfoE
O_e:_Enumerator_MoveNext_m598197344_AdjustorThunk
y2:__GLOBAL__sub_I_runtime_misc_0_cpp
Gr:__ZN13AnimationClip23VirtualRedirectTransferER18StreamedBinaryReadILb0EE
Jud:_String_JoinUnchecked_m1880555587
kOa:__ZNK9ShaderLab7Program21GetMatchingSubProgramEPK6ShaderPKNS_4PassERK16ShaderKeywordSetjPS7_R19ShaderSnippetResult
jpe:_Array_InternalArray__Insert_TisKeyValuePair_2_t1174980068_m2464431954_gshared
cpc:__Z49Register_UnityEngine_Resources_GetBuiltinResourcev
oZc:_tt_cmap10_char_index
oGd:_Dropdown_Awake_m335654827
gGh:_Dictionary_2_U3CCopyToU3Em__0_m1479035402_gshared
WYd:_BitArray_set_Item_m3801461194
n4i:__ZN15dense_hashtableINSt3__24pairIK10KeyWrapperIPK22Il2CppGenericParameterEP11Il2CppClassEES6_N6il2cpp5utils11PointerHashIS4_EEN14dense_hash_mapIS6_S9_SE_NS6_14EqualsComparerINS0_8equal_toIS5_EEEENS0_9allocatorISA_EEE9SelectKeyESJ_SL_E3endEv
sud:_String_Remove_m3580114465
QNi:_GUIUtility_EndGUIFromException_m3100752188
KW:__ZN11AudioSource24ClearExtensionPropertiesE12PropertyName
Vmb:__ZN9ShaderLab22SerializedBindChannels8TransferI19StreamedBinaryWriteILb0EEEEvRT_
xwb:__ZN15SerializeTraitsI5RectTIiEE8TransferI14SafeBinaryReadEEvRS1_RT_
afh:__Z82RuntimeInvoker_Int32_t2071877448_RuntimeObject_Int32_t2071877448_Int16_t4041245914PFvvEPK10MethodInfoPvPS4_
Ktc:__ZN5IMGUI20MoveWindowFromLayoutER8GUIStateiRK5RectTIfE
XUc:_UNITY_FT_Stream_ReadUShort
IMd:_InputField_OnEnable_m3797157569
inc:__Z51Register_UnityEngine_GUILayer_INTERNAL_CALL_HitTestv
nYa:__ZNSt3__26__treeINS_12__value_typeIN4core12basic_stringIcNS2_20StringStorageDefaultIcEEEES6_EENS_19__map_value_compareIS6_S7_NS_4lessIS6_EELb1EEE13stl_allocatorIS7_L18MemLabelIdentifier1ELi16EEE7destroyEPNS_11__tree_nodeIS7_PvEE
Z_i:_Nullable_1__ctor_m796575255_gshared
KFj:__ZN6il2cpp2vm8Profiler7GCEventE13Il2CppGCEvent
e7d:_DateTimeUtils_ToString_m3878360633
Tqj:__ZN15dense_hashtableINSt3__24pairIK10KeyWrapperIP11Il2CppClassES4_EES5_N6il2cpp8metadata16SZArrayClassHashEN14dense_hash_mapIS5_S4_SA_NS5_14EqualsComparerINS9_19SZArrayClassCompareEEENS0_9allocatorIS7_EEE9SelectKeyESE_SG_E4findERS6_
esj:__ZN6il2cpp6icalls8mscorlib6SystemL16ThrowInvalidCastEPK11Il2CppClassS5_
Goa:__Z13IsDepthFormat14GraphicsFormat
Pdb:__ZN12AspectRatios8TransferI24GenerateTypeTreeTransferEEvRT_
Cki:_Bounds_GetHashCode_m458298790
FRc:__Z12FormatBufferPciPKcz
uBd:_TouchInputModule_Process_m1373751353
Aig:_MethodBuilder_Invoke_m1874904900
z4i:__ZN6il2cpp2vm5Class13GetArrayClassEP11Il2CppClassj
$Mb:__ZN19RuntimeSceneManager18LoadSceneAsyncIntoER10UnitySceneRKN4core12basic_stringIcNS2_20StringStorageDefaultIcEEEENS_11LoadingModeEb
Dfg:_DerivedType_InvokeMember_m4149586013
lGf:_TlsStream_SetLength_m1460039587
Rtc:__ZN11IMGUIModule12AddGUIScriptER8ListNodeI13MonoBehaviourE
qb:invoke_difi
sca:__ZL50StaticRegisterSceneLoadedCallback_LightmapSettingsPv
hbh:__Z119RuntimeInvoker_Void_t1841601450_RuntimeObject_RuntimeObject_RuntimeObject_RuntimeObject_Int32_t2071877448_RuntimeObjectPFvvEPK10MethodInfoPvPS4_
Om:FUNCTION_TABLE_iiffi
rJd:_GridLayoutGroup_get_cellSize_m1061731753
eoa:__ZN21GLESGpuProgramApplier11ApplyVectorERKN20GpuProgramParameters14ValueParameterEPK8Vector4ft
Gbd:__ZN22BaseUnityConnectClient17SaveSessionValuesEv
Whi:_Parser_IsIgnoreCase_m4155598997
_Li:_GUILayoutUtility_LayoutSingleGroup_m3024581181
z$c:_cff_size_done
E_b:__ZN29ExtractProjectionPlanesHelperILb1EE5ApplyERK10Matrix4x4fP5Plane
fRb:__ZN22RenderingCommandBuffer13GetAndCheckRTE24BuiltinRenderTextureTypeRKN9ShaderLab16FastPropertyNameEPKcPP13RenderTexture
L2b:__ZN6Camera34UpdatePreviousViewProjectionMatrixEv
MXa:__ZN9ShaderLab11ShaderState25RemoveUnsupportedProgramsEPK6Shader
Pnb:__ZL23AddGpuProgramParametersR20GpuProgramParametersRKNSt3__26vectorIN9ShaderLab20SerializedSubProgram15MatrixParameterENS1_9allocatorIS5_EEEERKNS2_INS4_15VectorParameterENS6_ISB_EEEEiP16PropertyNamesSet
xrc:__Z44Register_UnityEngine_Object_DestroyImmediatev
kyg:__ZL62_ConstructorBuilder_t1236878896_CustomAttributesCacheGeneratorP21CustomAttributesCache
Ghc:__Z26scripting_class_has_parent17ScriptingClassPtrS_
sNe:_Int64_System_IConvertible_ToInt16_m2022633688_AdjustorThunk
dZe:_OrdinalComparer__ctor_m2952942058
xed:__ZNSt3__26__treeINS_12__value_typeIN4core12basic_stringIcNS2_20StringStorageDefaultIcEEEEN11UnityEngine7Connect19RemoteSettingsValueEEENS_19__map_value_compareIS6_SA_NS_4lessIS6_EELb1EEE13stl_allocatorISA_L18MemLabelIdentifier6ELi16EEE16__construct_nodeERKNS_4pairIKS6_S9_EE
hDi:_Transform_INTERNAL_get_localPosition_m130325652
sX:__Z71Register_UnityEngine_AudioSource_INTERNAL_CALL_ClearExtensionPropertiesv
gOj:__ZN6il2cpp8metadata25Il2CppGenericClassCompare7CompareEPK18Il2CppGenericClassS4_
lG:__ZNK8Animator20IsInMatchTargetStateEv
BO:__ZN13AudioListener23VirtualRedirectTransferER24GenerateTypeTreeTransfer
Dm:FUNCTION_TABLE_viiifiii
wuc:__Z36Register_UnityEngine_GUI_set_changedv
zEd:_ColorTween_get_startColor_m278546349_AdjustorThunk
q0f:_Encoding_get_Unicode_m1382741113
xki:_Behaviour_set_enabled_m602406666
$ai:_LifetimeServices_set_SponsorshipTimeout_m1403222216
nWd:_Char_ToString_m1401375624_AdjustorThunk
Qme:_Array_InternalArray__ICollection_Add_TisTableRange_t2011406615_m147373358_gshared
n3d:_Convert_ToDateTime_m1251728572
Sme:_Array_InternalArray__ICollection_Add_TisBoolean_t3825574718_m1009318882_gshared
Dqf:_ReadOnlyCollection_1_System_Collections_IList_set_Item_m1149349508_gshared
wA:__ZN27AnimationLayerMixerPlayable18SetInputConnectionEP8Playablei
fA:__ZN7mecanim28TransformValueArrayBlendNodeEiiiRKNS_10ValueArrayERKNS_14ValueArrayMaskERS0_RS3_RNS_16ValueArrayWeightEf
mXf:_ObjectReader_ReadObjectContent_m3949770110
Wri:_Mesh_get_colors32_m1054093013
_5i:__ZN6il2cpp2vm5Class40GetInterfaceInvokeDataFromVTableSlowPathEPK12Il2CppObjectPK11Il2CppClassj
ZSa:__ZN20TierGraphicsSettings8TransferI18StreamedBinaryReadILb0EEEEvRT_
$Sh:_Text_get_font_m3115501113
lrj:__GLOBAL__sub_I_Thread_cpp
vYa:__ZN14SafeBinaryRead8TransferINSt3__24pairIN9ShaderLab16FastPropertyNameE10ColorRGBAfEEEEvRT_PKc17TransferMetaFlags
x2i:__ZL9rshift128PyS_
gXf:_ObjectReader_RecordFixup_m1893348030
Aue:_LayoutGroup_SetProperty_TisRuntimeObject_m1703476175_gshared
xgg:_EnumBuilder_GetElementType_m1228393631
$oj:__ZN14dense_hash_mapI10KeyWrapperINSt3__24pairIPK12PropertyInfoP11Il2CppClassEEEj17ReflectionMapHashIS8_ENS9_14EqualsComparerINS1_8equal_toIS8_EEEENS1_9allocatorINS2_IKS9_jEEEEE13set_empty_keyERSH_
Pg:_glRenderbufferStorage
Ewj:__ZNK15dense_hashtableINSt3__24pairIK10KeyWrapperINS1_IPKcS4_EEEiEES6_24NamespaceAndNamePairHashN14dense_hash_mapIS6_iS9_NS6_14EqualsComparerI26NamespaceAndNamePairEqualsEENS0_9allocatorIS8_EEE9SelectKeyESD_SF_E13find_positionERS7_
Qnc:__Z45Register_UnityEngine_Input_get_touchSupportedv
Kcd:__ZN11UnityEngine15PlatformWrapper28GetTextureFormatSupportFlagsEv
dXc:_UNITY_FT_Create_Class_pshinter_module_class
Rtd:_String_CompareOrdinalCaseInsensitiveUnchecked_m2002640463
HTd:_Boolean_GetHashCode_m1894638460
b0c:_cf2_setError
F2f:_UTF7Encoding_InternalGetChars_m4157428055
rhb:__Z33InterpolateLightProbeCoefficientsRK17LightProbeContextRK29LightProbeSamplingCoordinatesR20SphericalHarmonicsL2
Syh:_Enumerator_Reset_m3129803197_AdjustorThunk
yPb:__ZZ23InitPlayerLoopCallbacksvEN35PreUpdateSendMouseEventsRegistrator7ForwardEv
bCe:_SmallXmlParser_HandleBufferedContent_m3397096753
uma:__ZNK6Camera25GetNormalizedViewportRectEP13RenderTextureb
ah:_glDisable
QNd:_InputField_OnDeselect_m3963675647
_Wa:__ZN13RenderTexture8TransferI24GenerateTypeTreeTransferEEvRT_
pu:__ZN7mecanim9animation9DenseClip8TransferI24GenerateTypeTreeTransferEEvRT_
ZEj:__ZN6il2cpp5utils11StringUtils15StringDuplicateEPKDsj
IOf:_BaseMachine_Scan_m122450399
dz:__ZN17AnimationPlayable17ProcessRootMotionEP35AnimationPlayableEvaluationConstantP32AnimationPlayableEvaluationInputP33AnimationPlayableEvaluationOutput
_Wd:_ArrayList_CopyTo_m2353632788
lpi:_GameObject_get_activeSelf_m2643917226
jca:__ZNSt3__26vectorINS_4pairIyP17VertexDeclarationEENS_9allocatorIS4_EEE6assignIPS4_EENS_9enable_ifIXaasr21__is_forward_iteratorIT_EE5valuesr16is_constructibleIS4_NS_15iterator_traitsISB_E9referenceEEE5valueEvE4typeESB_SB_
t2j:b119
vQb:__ZNK8Material12GetPassCountEv
B0d:_Enumerator__cctor_m3784927209
j2j:b110
k2j:b111
m2j:b112
kTj:_bitshift64Ashr
o2j:b114
p2j:b115
q2j:b116
r2j:b117
qOc:__ZN11Rigidbody2D23VirtualRedirectTransferER14SafeBinaryRead
Ypa:__ZN4crnd12crn_unpacker22decode_alpha_endpointsEv
i$b:__Z23CullDynamicObjectsUmbraPK4AABBPKN5Umbra15OcclusionBufferER9IndexList
VB:__ZThn148_NK26AnimatorControllerPlayable41GetStateMachineBehaviourVectorDescriptionEv
dZc:_tt_cmap4_char_next
bri:_Mathf_Approximately_m1944881077
slh:__Z444RuntimeInvoker_Boolean_t3825574718_RuntimeObject_RuntimeObject_RuntimeObject_ColorU26_t3402129837_Int32_t2071877448_Single_t2076509932_Single_t2076509932_Int32_t2071877448_SByte_t454417549_SByte_t454417549_Int32_t2071877448_Int32_t2071877448_Int32_t2071877448_Int32_t2071877448_SByte_t454417549_Int32_t2071877448_Single_t2076509932_Single_t2076509932_Single_t2076509932_Single_t2076509932_SByte_t454417549_SByte_t454417549_UInt32U26_t2197289955PFvvEPK10MethodInfoPvPS4_
iti:_GeneralNames_ToString_m800435094
sCd:_BaseMeshEffect_OnDidApplyAnimationProperties_m2484799839
wvd:_ASCIIEncoding_GetString_m3931709239
zFi:_Vector4_Equals_m2166390052
wAi:_RectTransform_SetInsetAndSizeFromParentEdge_m2595554673
X1:__GLOBAL__sub_I_runtime_assetbundles_1_cpp
RP:__ZN4FMOD7Channel11setPositionEjj
Uh:_glBindSampler
Srf:_ReadOnlyCollection_1_System_Collections_Generic_ICollectionU3CTU3E_Clear_m964488020_gshared
Yh:_glGetVertexAttribiv
Ttd:_String_IndexOfAny_m2027595557
Ume:_Array_InternalArray__ICollection_Add_TisChar_t3454481338_m422084244_gshared
v6c:__ZN2UI11CanvasGroup23VirtualRedirectTransferER18StreamedBinaryReadILb0EE
jCi:_Texture__ctor_m1220114221
fBc:__ZN8JSONRead8TransferIbEEvRT_PKc17TransferMetaFlagsb
PKf:_X509KeyUsageExtension_Decode_m3292847033
rmh:__Z52RuntimeInvoker_RaycastResult_t21186376_RuntimeObjectPFvvEPK10MethodInfoPvPS4_
Elg:_Module_filter_by_type_name_ignore_case_m3574895736
n1a:__ZN26CustomRenderTextureManager19PreAllocateMaterialEP19CustomRenderTexture
OWf:_ObjectReader_ReadObject_m397855326
UGj:_GC_promote_black_lists
sKd:_Image_get_fillAmount_m3354146540
VBc:__Z29Transfer_Blittable_ArrayFieldI8JSONRead8Vector4fEvRT_R9ArrayInfoRK23StaticTransferFieldInfo
Wn:FUNCTION_TABLE_vf
vo:FUNCTION_TABLE_vd
K7f:_Type_GetMethod_m1930231379
xo:FUNCTION_TABLE_vi
E3:__ZN13RuntimeStaticI37UnityShaderCompilerExtPluginConfigureLb0EE16StaticInitializeEPv
ied:__ZN11UnityEngine7Connect17DeviceStatusEvent20SetDeviceAspectRatioEf
rxe:_SimpleCollator_GetContraction_m1391584430
KTd:_CultureInfo_get_InvariantCulture_m398972276
kTd:_Boolean_System_IConvertible_ToInt64_m4142756949_AdjustorThunk
eM:__ZNK8Animator17HasBoundPlayablesEv
bPc:__ZN17Physics2DSettings8TransferI24GenerateTypeTreeTransferEEvRT_
uvc:__ZN5Unity9rapidjson13GenericReaderINS0_4UTF8IcEES3_13JSONAllocatorE10ParseFalseILj0ENS0_19GenericStringStreamIS3_EENS0_15GenericDocumentIS3_S4_S4_EEEEvRT0_RT1_
tvf:_HMAC_initializePad_m3828610671
Gmd:_RSAParameters_t1462703416_marshal_pinvoke_cleanup
qej:__ZN6il2cpp2vm7Runtime9SetConfigEPKc
Zvc:__ZN5Unity9rapidjson12PrettyWriterI16TempBufferWriterNS0_4UTF8IcEES4_13JSONAllocatorE10StartArrayEv
ua:invoke_iiifiii
Itj:__ZN6il2cpp2vm9Exception11FromNameMsgEPK11Il2CppImagePKcS6_S6_
w7f:_Type_internal_from_name_m1506974323
en:FUNCTION_TABLE_fiiifii
uL:__ZN10HumanTrait15InitializeClassEv
sea:__Z14GetTimeManagerv
V6b:__ZneRK20SpriteTilingPropertyS1_
thd:__ZN19TransportJavaScript7CleanupEv
eKa:__Z12GUIDToStringRK9UnityGUIDPc
GVc:__ZN20TextRenderingPrivate8TextMesh17MainThreadCleanupEv
dT:__ZN11AudioSource22UnmuteActiveVideoSinksEv
WEj:__ZN4utf88internal20is_overlong_sequenceIiEEbjT_
Si:_glReadBuffer
ULa:__Z9SetLocalR15TransformAccessRKN4math7_float4Ey
oYd:_SynchronizedArrayListWrapper_get_Count_m4104930530
aXb:__Z30SetupBakedOcclusionForGeometrybRK26SharedLightmapSettingsDataRK15LightmapIndicesR17ShaderPassContext
Hpd:_SecurityPermission_IsSubsetOf_m1087302418
Mlc:__Z41Register_UnityEngine_Cursor_get_lockStatev
mLi:_Event_Internal_GetMousePosition_m2992465246
yWb:__Z14SetupLightmapsRK8Vector4fS1_R17ShaderPassContext
znj:__ZN14dense_hash_mapI10KeyWrapperIPK14Il2CppAssemblyEPK22Il2CppMonoAssemblyNameN6il2cpp5utils11PointerHashIS2_EENS4_14EqualsComparerINSt3__28equal_toIS3_EEEENSD_9allocatorINSD_4pairIKS4_S7_EEEEE13set_empty_keyERSJ_
uQf:_Interval_get_Empty_m3170923997
WVa:__ZL20InitializeGUIShadersv
l9b:__Z20DestroyObjectDelayedP6Objectf
i1:__ZN20DynamicHeapAllocatorI17LowLevelAllocatorED0Ev
dNd:_InputField_OnDrag_m726194348
PGc:__ZN10ClipperLib11ClipperBase5ResetEv
zye:_PreviousInfo__ctor_m1442166472_AdjustorThunk
VTb:__ZN9DepthPassD2Ev
FZi:_TextGenerator_get_rectExtents_m954923136
KO:__ZN11AudioFilter6GetDSPEv
n6:__ZN19RuntimeSceneManager14CanUnloadSceneEP10UnityScene
ieh:__Z50RuntimeInvoker_Single_t2076509932_Int64_t909078037PFvvEPK10MethodInfoPvPS4_
XTb:__Z22ExtractRenderNodeQueueRK11CullResults15ExtractionFlagsR15RenderNodeQueue
ere:_Array_InternalArray__set_Item_TisContentType_t1028629049_m703420360_gshared
Wbf:_List_1_set_Item_m1431784996_gshared
RN:__ZN24AudioScriptBufferManagerC2Ev
RTc:__ZNSt3__26vectorIh13stl_allocatorIhL18MemLabelIdentifier1ELi16EEE8__appendEj
Y7g:__Z95RuntimeInvoker_Void_t1841601450_RuntimeObject_Int32_t2071877448_Int32_t2071877448_RuntimeObjectPFvvEPK10MethodInfoPvPS4_
lvc:__ZN8JSONRead32GetValueForKeyWithNameConversionEPKN5Unity9rapidjson12GenericValueINS1_4UTF8IcEE13JSONAllocatorEEPKc
UTc:__ZN20TextRenderingPrivate8FontImpl16ResetPackingDataEv
Ele:_Array_InternalArray__IndexOf_TisLink_t865133271_m3612939760_gshared
Ppi:_Input_get_mousePresent_m1100327283
Uwc:__Z18Transfer_BlittableI9JSONWriteLb0EfEvRK29SerializationCommandArgumentsR31RuntimeSerializationCommandInfo
opa:__Z21GetAsyncUploadManagerv
Jj:_emscripten_glDetachShader
ywe:_SafeHandleZeroOrMinusOneIsInvalid_get_IsInvalid_m2033528032
$Vd:_Char_IsUpper_m4083577610
cpa:__ZN17GenericDynamicVBO20ReleaseChunkInternalERK21DynamicVBOChunkHandlejj
Z4c:__ZL27CleanupModule_TextRenderingv
xwe:_SafeHandleZeroOrMinusOneIsInvalid__ctor_m3340306667
LPj:_fmodl
mYf:_SerializationInfo_AddValue_m902275108
bTi:_U3CSpawnWaveU3Ec__Iterator0_MoveNext_m3072528816
ZPj:_fmodf
JDb:__Z18Transfer_BlittableI18StreamedBinaryReadILb1EELb1E4AABBEvRK29SerializationCommandArgumentsR31RuntimeSerializationCommandInfo
dDa:__ZN12CachedWriter11Align4WriteEv
$Ub:__Z20DoDeferredRenderLoopR17RenderLoopContextR13dynamic_arrayI16RenderObjectDataLj4EES4_RK11CullResultsRP13RenderTextureSA_Pb
dNb:__ZN19RuntimeSceneManager11CreateSceneEv
IEi:_Vector2_op_Implicit_m385881926
p$c:_ps_get_standard_strings
$Wb:__Z27SetupBakedOcclusionForLightbRK15SharedLightDataR17ShaderPassContext
tu:__ZN24GenerateTypeTreeTransfer8TransferIN13AnimationClip9PPtrCurveEEEvRT_PKc17TransferMetaFlags
nQh:_ScrollRect_OnScroll_m3346515304
z$e:_Enumerator_System_Collections_IEnumerator_get_Current_m3461301268_gshared
aFh:_Dictionary_2_CopyToCheck_m1638253305_gshared
XQb:__Z18RenderImageFiltersR10RenderLoopb
C1:__Z19free_alloc_internalPv18MemLabelIdentifier
L9c:__Z43CanvasRenderer_Get_Custom_PropMaterialCountP12Il2CppObject
kXb:__ZNSt3__227__insertion_sort_incompleteIR23CompareReflectionProbesP31RuntimeReflectionProbeBlendInfoEEbT0_S5_T_
znf:_ReadOnlyCollection_1_System_Collections_Generic_IListU3CTU3E_set_Item_m25653560_gshared
oCc:__ZN8JSONRead21TransferSTLStyleArrayI13dynamic_arrayI11QuaternionfLj4EEEEvRT_17TransferMetaFlags
kt:__ZNSt3__26vectorIN13AnimationClip10FloatCurveE13stl_allocatorIS2_L18MemLabelIdentifier26ELi16EEE6assignINS_11__wrap_iterIPS2_EEEENS_9enable_ifIXaasr21__is_forward_iteratorIT_EE5valuesr16is_constructibleIS2_NS_15iterator_traitsISC_E9referenceEEE5valueEvE4typeESC_SC_
JJ:__ZN18StreamedBinaryReadILb0EE21TransferSTLStyleArrayI22OffsetPtrArrayTransferI9OffsetPtrIN7mecanim12statemachine18TransitionConstantEEEEEvRT_17TransferMetaFlags
j1g:__ZL68Selectable_t1490392188_CustomAttributesCacheGenerator_m_InteractableP21CustomAttributesCache
Whc:__ZN19RuntimeSceneManager32LoadSceneAsyncByNameOrBuildIndexERKN4core12basic_stringIcNS0_20StringStorageDefaultIcEEEEiNS_11LoadingModeEb
txf:_CertificateSelectionCallback_Invoke_m2902629105
Lba:__ZN10InputEventD2Ev
r2d:_DateTimeFormatInfo_GetAllDateTimePatternsInternal_m1587126173
$fc:__ZN24CompressedAnimationCurve18DecompressTimeKeysI11QuaternionfEEvR17AnimationCurveTplIT_E
NLe:_NumberFormatter_Append_m3268121457
aoa:__ZN15dense_hashtableINSt3__24pairIK9TextureIDiEES2_N12TextureIdMap20TextureIDHashFunctorEN14dense_hash_mapIS2_iS6_NS0_8equal_toIS2_EE13stl_allocatorIS4_L18MemLabelIdentifier67ELi16EEE9SelectKeyES9_SC_E12resize_deltaEjj
Fhd:__ZN22UnityWebRequestManagerD2Ev
pmd:_RSA_ToXmlString_m4145056574
sce:_Double_System_IConvertible_ToUInt64_m1318285078_AdjustorThunk
qPj:_isalpha
VOh:_Selectable_FindSelectable_m2739582497
sEc:__ZNK12b2MotorJoint17GetReactionTorqueEf
g7d:_DateTimeUtils_ZeroPad_m86470512
cah:__Z94RuntimeInvoker_Void_t1841601450_RuntimeObject_Int32_t2071877448_RuntimeObject_SByte_t454417549PFvvEPK10MethodInfoPvPS4_
mcj:__ZN6il2cpp2vmL17IsSocketAsyncCallEP14Il2CppDelegate
xQc:__Z13RegisterClassI11Rigidbody2DEvv
uEj:__ZN6il2cpp2vm6String6NewLenEPKcj
eLb:__ZN17PersistentManager9AddStreamEv
Zk:_time
Sri:_Mesh_get_uv_m1990385212
hxi:_PlayableOutput_Equals_m2167434642_AdjustorThunk
TId:_Graphic_UnregisterDirtyLayoutCallback_m1724443555
aMa:__ZN14BatchAllocator6CommitE18MemLabelIdentifier
J0c:_cf2_stack_free
yyd:_ExecuteEvents_get_pointerClickHandler_m713983310
Ty:__ZN7mecanim9animation19EvaluateFloatValuesEPKNS0_18ClipMuscleConstantEPKNS_18ValueArrayConstantEPKNS0_12ClipBindingsEPKNS0_10ClipOutputEPNS0_18AnimationNodeStateEfbb
SG:__ZN8Animator31ClearInternalControllerPlayableEv
bcg:_WeakReference_Finalize_m3318354542
qLa:__ZN10GameObject8TransferI24GenerateTypeTreeTransferEEvRT_
c0e:_Enumerator_VerifyState_m3913376581_gshared
f1j:_glDeleteSync__wrapper
M3d:_Decimal_op_Implicit_m623319612
PBh:_ValueCollection_System_Collections_Generic_ICollectionU3CTValueU3E_Remove_m98888100_gshared
Mxd:_EventTrigger_OnPointerExit_m2119176877
N4f:_ThreadAbortException__ctor_m1623816114
jac:__ZN13ProduceHelperI30RuntimeInitializeOnLoadManagerLb0EE7ProduceE18MemLabelIdentifier18ObjectCreationMode
M0b:__ZN13RenderTexture19SetAutoGenerateMipsEb
Gqa:__Z20GetTextureFormatInfo13TextureFormat
vah:__Z119RuntimeInvoker_RuntimeObject_RuntimeObject_RuntimeObject_Int32_t2071877448_Int32_t2071877448_MonoIOErrorU26_t1029615899PFvvEPK10MethodInfoPvPS4_
GB:__ZN26AnimatorControllerPlayable8GetFloatEiRf
QMh:_Shadow__ctor_m924057531
Azd:_PointerEventData_set_worldPosition_m192283671
PKj:__ZN6il2cpp5utils10MemoryPool6MallocEj
jN:__ZN11SoundHandle8InstanceD2Ev
Uea:__ZN31CanvasBatchIntermediateRenderer13StaticDestroyEPv
kwi:_X509Store_BuildCrlsCollection_m52567568
S7:__ZNSt3__23mapIiP15MonoScriptCacheNS_4lessIiEE13stl_allocatorINS_4pairIKiS2_EEL18MemLabelIdentifier78ELi16EEEixERS7_
PDf:_RecordProtocol_InternalSendRecordCallback_m3984764857
Jve:_Array_InternalArray__get_Item_TisUICharInfo_t3056636800_m3872982785_gshared
Yri:_Mesh_SetNormals_m2780518036
bde:_Enum_ToString_m662345249
sjh:__Z150RuntimeInvoker_Single_t2076509932_Single_t2076509932_Single_t2076509932_SingleU26_t4173844468_Single_t2076509932_Single_t2076509932_Single_t2076509932PFvvEPK10MethodInfoPvPS4_
Hlc:__Z41Register_UnityEngine_CullingGroup_Disposev
_$a:__ZN7Cubemap23VirtualRedirectTransferER19StreamedBinaryWriteILb0EE
FIa:__ZN25MultiBlocksMemoryFileData5WriteEyyPKv
EFc:__ZNK13b2PulleyJoint16GetReactionForceEf
q7e:_List_1_System_Collections_IList_Add_m4271264217_gshared
voj:__ZN14dense_hash_mapI10KeyWrapperIPK10Il2CppTypeEjN6il2cpp8metadata14Il2CppTypeHashENS4_14EqualsComparerINS6_26Il2CppTypeEqualityComparerEEENSt3__29allocatorINSB_4pairIKS4_jEEEEE13set_empty_keyERSE_
qua:__ZL17ProgramUniform2fvPK7ApiGLESjiihPKv
S_j:b83
MTc:__ZN20TextRenderingPrivate8FontImpl21HasCharacterInTextureEjijfPj
MQj:_htonl
Qla:__Z20GetBufferManagerGLESv
AHb:__ZN18StreamedBinaryReadILb0EE21TransferSTLStyleArrayI31ArrayOfManagedObjectsTransfererEEvRT_17TransferMetaFlags
Q2f:_UTF7Decoder_GetChars_m2790530452
dAc:__Z18Transfer_BlittableI8JSONReadLb0EtEvRK29SerializationCommandArgumentsR31RuntimeSerializationCommandInfo
rTh:_Text_set_fontSize_m2101304336
TWc:_pshinter_module_class_pic_free
t0g:__ZL68Navigation_t1571958496_CustomAttributesCacheGenerator_m_SelectOnLeftP21CustomAttributesCache
pC:__ZN34AnimationStateMachineMixerPlayable13EndTransitionEv
sP:__ZN12AudioManager21FixMasterGroupRoutingEv
ood:_SymmetricAlgorithm_set_Key_m2973350820
GOc:__ZN6b2Body9SetActiveEb
M_g:__ZL58FontData_t2614388407_CustomAttributesCacheGenerator_m_FontP21CustomAttributesCache
ZJf:_WebHeaderCollection_IsHeaderValue_m1723393133
WSc:__ZN20TextRenderingPrivate8FontImpl13CharacterInfo8TransferI24GenerateTypeTreeTransferEEvRT_
DBj:__ZN6il2cpp2os10ThreadImpl33UnregisterCurrentThreadForCleanupEv
zA:__ZN27AnimationLayerMixerPlayable22PrepareAnimationEventsEfR13dynamic_arrayI22AnimationClipEventInfoLj4EE
Rtb:__Z18Transfer_BlittableI14SafeBinaryReadLb1E4AABBEvRK29SerializationCommandArgumentsR31RuntimeSerializationCommandInfo
MAj:__ZN6il2cpp6icalls8mscorlib6System4Enum12get_hashcodeEP12Il2CppObject
SJj:_GC_set_no_dls
kOj:__ZN6il2cpp8metadata26Il2CppGenericMethodCompare6EqualsEPK19Il2CppGenericMethodS4_
jda:__Z22CreateMutexLockedQueue18MemLabelIdentifier
ZN:__ZN9AudioClip7WWWOpenEPKciPjPPvS4_
Itb:__Z18Transfer_BlittableI14SafeBinaryReadLb0E8Vector2fEvRK29SerializationCommandArgumentsR31RuntimeSerializationCommandInfo
VSi:_zombie_Update_m3781698916
are:_Array_InternalArray__set_Item_TisPlayableBinding_t2498078091_m2071396616_gshared
iUe:_SynchronizedReader_Peek_m282642073
Nkb:__ZN15SerializeTraitsIN9ShaderLab20SerializedSubProgram16TextureParameterEE8TransferI14SafeBinaryReadEEvRS2_RT_
lUd:_Byte_System_IConvertible_ToInt16_m1575115635_AdjustorThunk
K1i:_Physics2D_Raycast_m298439588
UEi:_Vector3_set_Item_m2026854946_AdjustorThunk
Cbi:_Context_get_HasGlobalDynamicSinks_m3205328884
Qxe:_SimpleCollator_CompareQuick_m619038530
IFf:_SslStreamBase_EndRead_m1072850679
jd:_SDL_GetTicks
KFe:_X509CertificateEnumerator_System_Collections_IEnumerator_get_Current_m1643583406
zva:__ZN18GfxFramebufferGLES20CleanupFBOMapForRBIDERKj
klj:__ZN15dense_hashtableINSt3__24pairIK10KeyWrapperINS1_IPK11Il2CppImageP11Il2CppClassEEEjEES9_17ReflectionMapHashIS8_EN14dense_hash_mapIS9_jSD_NS9_14EqualsComparerINS0_8equal_toIS8_EEEENS0_9allocatorISB_EEE9SelectKeyESI_SK_E6insertERKSB_
P_b:__Z21CreateShadowCullerJobP30CreateUmbraShadowCullerJobData
iua:__ZL18ProgramUniform2uivPK7ApiGLESjiihPKv
zUi:_AudioConfigurationChangeHandler_BeginInvoke_m1585211075
NXb:__Z33GenerateShadowCasterPartsSortDataRK16ShadowCasterDatajRK15RenderNodeQueueRKNSt3__26vectorI20ShadowCasterPartData13stl_allocatorIS7_L18MemLabelIdentifier2ELi16EEEERK10Matrix4x4fRjP20ShadowCasterSortData
zpi:_GUILayer_INTERNAL_CALL_HitTest_m381183969
uIi:_UnityAction_2_Invoke_m319876726_gshared
Mwb:__Z29Transfer_Blittable_ArrayFieldI14SafeBinaryRead9BoundsIntEvRT_R9ArrayInfoRK23StaticTransferFieldInfo
SGh:_Dictionary_2_ToTKey_m4209561517_gshared
X$c:_cf2_computeDarkening
oHj:_GC_expand_hp_inner
kc:invoke_viiiififfi
Fmc:__Z25Screen_Get_Custom_PropDpiv
tJd:_GridLayoutGroup_get_spacing_m1909275195
LEj:__ZN4utf812find_invalidIPKcEET_S3_S3_
Qr:__ZNK13AnimationClip8IsLegacyEv
mOf:_X509ExtensionCollection_System_Collections_ICollection_CopyTo_m3421329346
IGj:_GC_err_printf
ihg:_FieldBuilder_SetValue_m3109503557
cId:_Graphic_OnBeforeTransformParentChanged_m1866292273
dMf:_X509Certificate2_Verify_m1574874641
k_:__ZN11UnityEngine15CloudWebService20WebRequestRestClient7PrepareEv
KZg:__ZL58PhysicsRaycaster_t249603239_CustomAttributesCacheGeneratorP21CustomAttributesCache
ATc:__ZN20TextRenderingPrivate19NativeTextGenerator23FixLineHorizontalOffsetEiii
t0d:_SortedList_GetEnumerator_m1318483481
ZLi:_GUILayoutUtility_LayoutFreeGroup_m2224160855
HQd:_Array_CreateInstance_m3327690220
zD:__ZN7mecanim9animation19DestroyAnimationSetEPNS0_12AnimationSetERNS_6memory9AllocatorE
NWj:_emscripten_glDepthRange__wrapper
T8:__ZN14SerializedFile7ReleaseEv
yZi:_TextGenerator__ctor_m1469954680
Xrb:__ZN16MemoryFileSystem4OpenER13FileEntryData14FilePermission16FileAutoBehavior
Hea:__ZN13RuntimeStaticI13RendererSceneLb0EE13StaticDestroyEPv
Vzb:__Z18Transfer_BlittableI24GenerateTypeTreeTransferLb1E12PropertyNameEvRK29SerializationCommandArgumentsR31RuntimeSerializationCommandInfo
Ncb:__ZN14SafeBinaryRead21TransferSTLStyleArrayI10vector_mapIPKN5Unity4TypeE7Hash128NSt3__24lessIS5_EENS7_9allocatorINS7_4pairIS5_S6_EEEEEEEvRT_17TransferMetaFlags
YN:__ZN9AudioClip18GetQueuedAudioDataEPPvj
N4c:__ZN20TextRenderingPrivate21TextMeshGeneratorImpl14GarbageCollectEv
Ufc:__ZNK9Texture2D17CheckHasPixelDataEv
XNc:__ZN15b2ContactSolver13StoreImpulsesEv
IBb:__Z18Transfer_BlittableI19StreamedBinaryWriteILb0EELb0E9BoundsIntEvRK29SerializationCommandArgumentsR31RuntimeSerializationCommandInfo
ETb:__Z18SetShadowsKeywordsR17ShaderPassContext9LightType10ShadowType16ShadowProjectionbb
_oj:__ZN14dense_hash_mapI10KeyWrapperINSt3__24pairIPK12PropertyInfoP11Il2CppClassEEEj17ReflectionMapHashIS8_ENS9_14EqualsComparerINS1_8equal_toIS8_EEEENS1_9allocatorINS2_IKS9_jEEEEEC2EjRKSB_RKSF_
occ:__ZN17CollisionMeshDataC2Ev
Hdi:_Regex_get_RightToLeft_m529734879
QPh:_ScrollRect_SetDirty_m93243192
B1a:__ZN16LightmapSettings23VirtualRedirectTransferER19StreamedBinaryWriteILb0EE
PPb:__ZZ23InitPlayerLoopCallbacksvEN47PostLateUpdateMemoryFrameMaintenanceRegistrator7ForwardEv
Ao:FUNCTION_TABLE_viiififii
$Hj:_GC_push_next_marked
Ehb:__ZN18IDCollectorFunctor18GenerateInstanceIDEi17TransferMetaFlags
sSe:_MonoIO__cctor_m2398680849
WNc:__ZN15b2ContactSolver9WarmStartEv
YLe:_NumberFormatter_ToDecHex_m1474793296
Cmh:__Z74RuntimeInvoker_Int32_t2071877448_RaycastHit_t87180320_RaycastHit_t87180320PFvvEPK10MethodInfoPvPS4_
EEa:__ZN14StackAllocatorD0Ev
Jrj:__ZN6il2cpp2vm6Thread8SetStateEP12Il2CppThreadNS0_11ThreadStateE
bZe:_OperatingSystem_Clone_m1943707477
DHd:_FontData_set_richText_m29558601
c5f:_Scheduler_Change_m4063588742
cse:_Array_Resize_TisVector2_t2243707579_m1117258774_gshared
paa:__ZNSt3__27__sort4IRNS_6__lessI14ObjectLoadDataS2_EEPS2_EEjT0_S6_S6_S6_T_
kSb:__ZNK25CameraStackRenderingState16GetCurrentCameraEv
Mic:__Z22PlayableValidityChecksRK9HPlayableb
neb:__ZN15ResourceManagerD2Ev
_5e:_List_1_Insert_m2532850849_gshared
wlc:__Z41Register_UnityEngine_Camera_GetAllCamerasv
mMh:_MaskableGraphic_OnCanvasHierarchyChanged_m2012659245
Spa:__ZN4crnd12crn_unpacker10unpack_dxnEPPhjjjjjj
Ued:__ZN28PerformanceReportingSettings8TransferI14SafeBinaryReadEEvRT_
f4d:_Double_Parse_m2344589511
qdh:__Z78RuntimeInvoker_Boolean_t3825574718_IntPtr_t_Int32_t2071877448_SByte_t454417549PFvvEPK10MethodInfoPvPS4_
lAc:__Z18Transfer_BlittableI8JSONReadLb1E5RectTIiEEvRK29SerializationCommandArgumentsR31RuntimeSerializationCommandInfo
Hsj:__ZN6il2cpp2vm22EmbeddedResourceRecordC2ERKS1_
V$a:__ZN9Texture2D13AwakeFromLoadE17AwakeFromLoadMode
hxe:_MSCompatUnicodeTableUtil__cctor_m1479836795
Uhi:_PositionAssertion__ctor_m3703837499
SOd:_LayoutGroup_get_minWidth_m4111745491
LTe:_StreamWriter_Initialize_m1707678624
eAj:__ZN6il2cpp2vm3RCW14QueryInterfaceILb0EEEP14Il2CppIUnknownP15Il2CppComObjectRK10Il2CppGuid
JPh:_ScrollRect_set_verticalScrollbar_m2903688658
Eab:__ZThn328_N14SpriteRendererD0Ev
msa:__ZN6prcoreL17RemapGenericFloatI15TexFormatRFloat18TexFormatARGBFloatEEvPKNS_9InnerInfoE
Cyg:__ZL50_Thread_t1894135853_CustomAttributesCacheGeneratorP21CustomAttributesCache
fri:_Mathf__cctor_m2286160987
B_h:_InternalEnumerator_1_get_Current_m1047712960_gshared
Tfd:__ZN11UnityEngine15PlatformWrapper20GetPlayerPrefsUInt64ERKN4core12basic_stringIcNS1_20StringStorageDefaultIcEEEEy
nXb:__ZN20ReflectionProbeCacheC2ER13BatchRendererR15RenderLoopStats
vfa:__ZN18AssetBundleManagerC2Ev
Vqb:__ZNK12HandlerChain6ExistsERK13FileEntryData
JJg:__ZL61ExtensionAttribute_t1840441203_CustomAttributesCacheGeneratorP21CustomAttributesCache
D4d:_Convert_ToInt32_m2734833291
cYb:__Z30FindDirectAttenuationFromProbeP18ForwardLightsBlockbiRK10RenderNodeRK23FindForwardLightsParamsf
Sbb:__ZN12InputManager23VirtualRedirectTransferER24GenerateTypeTreeTransfer
_pb:__ZN9Transform23VirtualRedirectTransferER24GenerateTypeTreeTransfer
dob:__ZNSt3__26vectorIN9ShaderLab20SerializedSubProgram12UAVParameterENS_9allocatorIS3_EEE21__push_back_slow_pathIKS3_EEvRT_
gai:_CrossAppDomainChannel_RegisterCrossAppDomainChannel_m43456045
XNf:_X509ChainElement_Count_m228862214
M6f:_TimeZone_IsDaylightSavingTime_m1840774423
y2c:_UNITY_tt_size_ready_bytecode
joi:_InvokableCallList_ClearPersistent_m2011323876
mSc:__ZN13TextRendering4FontD2Ev
y4g:__Z47RuntimeInvoker_Single_t2076509932_RuntimeObjectPFvvEPK10MethodInfoPvPS4_
eVc:_UNITY_FT_Stream_Open
XAb:__Z29Transfer_Blittable_ArrayFieldI24GenerateTypeTreeTransfer9BoundsIntEvRT_R9ArrayInfoRK23StaticTransferFieldInfo
iJa:__ZN10MemoryFile4ReadEyyPvPy
Yob:__ZN8keywords18KeywordSetToStringERK16ShaderKeywordSetRN4core12basic_stringIcNS3_20StringStorageDefaultIcEEEE
Jha:__ZN13GfxDeviceGLES26UpdateViewProjectionMatrixEv
Vki:_Bounds_op_Inequality_m1440807554
yM:__ZN4FMOD3DSP12setParameterEif
BLb:__ZN13MemoryManager16StaticInitializeEv
iug:__ZL53StackFrame_t2050294881_CustomAttributesCacheGeneratorP21CustomAttributesCache
of:___cxa_free_exception
Tqf:_ReadOnlyCollection_1_System_Collections_ICollection_CopyTo_m4126742951_gshared
zQ:__ZN4FMOD22FakeModChannelCallbackEPv
uf:_emscripten_glValidateProgram
qTa:__ZN4Mesh10CreateMeshEv
smj:__ZN6il2cpp2gc19AppendOnlyGCHashMapINSt3__24pairIPK9EventInfoP11Il2CppClassEEP21Il2CppReflectionEvent17ReflectionMapHashIS9_ENS2_8equal_toIS9_EEE3AddERKS9_SB_
pN:__ZN4FMOD7SystemI11createSoundEPKcjP22FMOD_CREATESOUNDEXINFOPPNS_5SoundE
$Vf:_ArrayFixupRecord_FixupImpl_m2377725358
s0c:_cf2_stack_clear
Ube:_Double_System_IConvertible_ToBoolean_m4251806534_AdjustorThunk
ozh:_ShimEnumerator_Reset_m2247049027_gshared
OGc:__ZN10ClipperLib11ClipperBase5ClearEv
N0b:__ZN7Texture13SetAnisoLevelEi
yY:__ZNSt3__26__treeINS_12__value_typeIN4core12basic_stringIcNS2_20StringStorageDefaultIcEEEEjEENS_19__map_value_compareIS6_S7_NS_4lessIS6_EELb1EEE13stl_allocatorIS7_L18MemLabelIdentifier88ELi16EEE7destroyEPNS_11__tree_nodeIS7_PvEE
oMf:_X509Chain_Process_m2508784250
Paf:_List_1_RemoveAt_m2929488689_gshared
i4c:_raccess_guess_vfat
Sad:__Z44Canvas_CUSTOM_GetETC1SupportedCanvasMaterialv
rSa:__ZN11HaloManager10UpdateHaloEiR9Transform11ColorRGBA32fjP6Object
c4:__ZN33InstancedMeshIntermediateRenderer13StaticDestroyEPv
GKe:_Int16_Parse_m3012618547
J4c:__Z13RegisterClassIN20TextRenderingPrivate8TextMeshEEvv
kvj:__ZN14dense_hash_mapI10KeyWrapperIP14Il2CppIUnknownEjN6il2cpp5utils11PointerHashIS1_EENS3_14EqualsComparerINSt3__28equal_toIS2_EEEENS9_9allocatorINS9_4pairIKS3_jEEEEE13set_empty_keyERSF_
Rah:__Z50RuntimeInvoker_Void_t1841601450_OpCode_t2247480392PFvvEPK10MethodInfoPvPS4_
kRa:__Z21DestroyShadowMapCacheP14ShadowMapCache
_A:__ZN7mecanim9animation25CreateControllerWorkspaceEPKNS0_18ControllerConstantERNS_6memory9AllocatorE
H_e:_Enumerator_VerifyState_m739025304_gshared
KFd:_Graphic_RegisterDirtyVerticesCallback_m4169445219
yoj:__ZN15dense_hashtableINSt3__24pairIK10KeyWrapperIPK10Il2CppTypeEjEES6_N6il2cpp8metadata14Il2CppTypeHashEN14dense_hash_mapIS6_jSB_NS6_14EqualsComparerINSA_26Il2CppTypeEqualityComparerEEENS0_9allocatorIS8_EEE9SelectKeyESF_SH_E14squash_deletedEv
Iuj:__ZN6il2cpp2vm13LivenessState5ResetEv
woh:__Z138RuntimeInvoker_Void_t1841601450_RuntimeObject_Color32_t874517518_Int32_t2071877448_Int32_t2071877448_Single_t2076509932_Single_t2076509932PFvvEPK10MethodInfoPvPS4_
vwc:__ZN9JSONWrite8TransferI11KeyframeTplIfEEEvRT_PKc17TransferMetaFlags
YSh:_Text_get_cachedTextGenerator_m224335893
Rvj:__ZN6il2cpp2vm3RCW23GetOrCreateFromIUnknownEP14Il2CppIUnknownP11Il2CppClass
sOb:__ZN24BuiltinShaderParamValuesC2Ev
Kwc:__ZL41CreateJSONTransferFunctionScriptingTraitsv
PQe:_FileStream_get_CanWrite_m775322953
CJb:__Z23GetLateBehaviourManagerv
uyd:_ExecuteEvents_Execute_m2863348178
N8:__ZN10MemoryPool10DeallocateEPv
Rsc:__ZN8GUIState8SetEventERK10InputEvent
AHe:_NumberFormatInfo__ctor_m2752806684
iCd:_CanvasUpdateRegistry_get_instance_m862315367
sva:__ZN14GfxDeviceStats10ResetFrameEv
Eei:_PatternCompiler_EmitFastRepeat_m1175707353
Uue:_Array_InternalArray__get_Item_TisKeyValuePair_2_t3716250094_m3120861630_gshared
WWc:_cff_driver_class_pic_free
f9f:_UInt32_TryParse_m3987111861
SUj:dynCall_vif
TUj:dynCall_vid
J4e:_List_1_System_Collections_IList_get_Item_m3989815218_gshared
UUj:dynCall_vii
P2d:_DateTime__ctor_m3604679583
pHb:__Z18Transfer_BlittableI18StreamedBinaryReadILb0EELb0EdEvRK29SerializationCommandArgumentsR31RuntimeSerializationCommandInfo
Vdi:_Enumerator_System_Collections_IEnumerator_MoveNext_m3313126804
ITb:__ZNK17InstancedPropInfo14IsInstanceableERK19ShaderPropertySheet
bCa:__ZN5Unity9Component16CheckConsistencyEv
fCd:_LayoutRebuilder_ValidController_m2595049322
ava:__ZN7ApiGLES11CheckShaderERjb
$Oa:__ZN19ShaderPropertySheet37CreateTextureAuxPropertyUninitializedEN9ShaderLab16FastPropertyNameES1_PKc
kCb:__ZL26Transfer_SimpleNativeClassI19StreamedBinaryWriteILb0EE10RectOffsetLb1EEvRK29SerializationCommandArgumentsR31RuntimeSerializationCommandInfo
Tue:_Array_InternalArray__get_Item_TisKeyValuePair_2_t1174980068_m964958642_gshared
$dd:__ZN11UnityEngine7Connect17DeviceStatusEventD2Ev
Yjj:__ZN15dense_hashtableINSt3__24pairIK10KeyWrapperIPK10Il2CppTypeEjEES6_N6il2cpp8metadata14Il2CppTypeHashEN14dense_hash_mapIS6_jSB_NS6_14EqualsComparerINSA_26Il2CppTypeEqualityComparerEEENS0_9allocatorIS8_EEE9SelectKeyESF_SH_E3endEv
eYb:__Z28GetNonInterpolatedLightProbeRK17LightProbeContextjR20SphericalHarmonicsL2
dne:_Array_InternalArray__ICollection_Add_TisDateTime_t693205669_m3559987213_gshared
Aka:__ZN13GfxDeviceGLES17SetGpuProgramNameEP10GpuProgramPKc
x_:__ZNK11UnityEngine15CloudWebService25WebRequestDownloadHandler11GetProgressEv
u0i:_CanvasGroup_IsRaycastLocationValid_m2290612432
tbj:__ZN6il2cpp2vm13MetadataCache28GetMethodDefinitionFromIndexEi
TCj:__ZN6il2cpp2os20FileErrnoToErrorCodeEi
qYa:__ZN14SafeBinaryRead19TransferSTLStyleMapINSt3__23mapI39DeprecatedFastPropertyNameSerialization10ColorRGBAfNS1_4lessIS3_EENS1_9allocatorINS1_4pairIKS3_S4_EEEEEEEEvRT_17TransferMetaFlags
bmg:_MonoEventInfo_GetEventInfo_m2331957186
fmi:_Component_get_transform_m3374354972
SNc:__ZN24b2PositionSolverManifold10InitializeEP27b2ContactPositionConstraintRK11b2TransformS4_i
ch:_atexit
gZd:_BitArrayEnumerator_Reset_m3218489242
yUd:_Byte_System_IConvertible_ToUInt16_m2275325191
Qzi:_RectTransform_INTERNAL_get_anchorMin_m3722367822
$mj:__ZN6il2cpp2vmL31GetObjectForMissingDefaultValueEj
OOg:__ZL97SceneManager_t90660965_CustomAttributesCacheGenerator_SceneManager_LoadScene_m3031418609____mode1P21CustomAttributesCache
Xbd:__ZN11UnityEngine15PlatformWrapper30GetVRPlayAreaBoundaryDimensionEv
_8i:__ZNK15dense_hashtableINSt3__24pairIK10KeyWrapperIN6il2cpp5utils13dynamic_arrayIPK10Il2CppTypeLj4EEEEPFvvEEESA_NS3_8metadata19Il2CppSignatureHashEN14dense_hash_mapISA_SD_SG_NSA_14EqualsComparerINSF_22Il2CppSignatureCompareEEENS0_9allocatorISE_EEE9SelectKeyESK_SM_E10test_emptyEj
wlb:__ZN9ShaderLab14SerializedPassC2ERKS0_
qYh:_InternalEnumerator_1_System_Collections_IEnumerator_get_Current_m3088751576_AdjustorThunk
bja:__ZNK9GfxDevice28GetActiveRenderSurfaceHeightEv
l:STACKTOP
Y1c:_cff_get_name_index
LVe:_Math_Cos_m43596019
S1a:__ZN21EnlightenSceneMapping16BuildRemapTablesEv
Xec:__ZN17TransformInternal27UpdateDeepChildCountUpwardsER18TransformHierarchyii
s3h:_InternalEnumerator_1_System_Collections_IEnumerator_get_Current_m1533037706_AdjustorThunk
vSj:__ZNK10__cxxabiv117__class_type_info16search_above_dstEPNS_19__dynamic_cast_infoEPKvS4_ib
A:tempBigIntD
Esd:_Single_Equals_m3359827399_AdjustorThunk
Rxd:_EventTrigger_OnPointerClick_m413999043
z:tempBigIntI
Auf:_PrimalityTests_RabinMillerTest_m2029846965
y:tempBigIntR
x:tempBigIntS
PBi:_Sprite_INTERNAL_get_border_m3953160722
un:FUNCTION_TABLE_viffi
DUc:_open_face_PS_from_sfnt_stream
BVf:_ServerIdentity_CreateObjRef_m1056204803
taa:__ZN6Object18RegisterInstanceIDEPS_
Azb:__Z18Transfer_BlittableI24GenerateTypeTreeTransferLb1EsEvRK29SerializationCommandArgumentsR31RuntimeSerializationCommandInfo
rzj:__ZN15dense_hashtableINSt3__24pairIK10KeyWrapperIP12Il2CppObjectEN6il2cpp2gc9CachedCCWEEES5_NS7_5utils11PointerHashIS3_EEN14dense_hash_mapIS5_S9_SD_NS5_14EqualsComparerINS0_8equal_toIS4_EEEENS0_9allocatorISA_EEE9SelectKeyESI_SK_E11set_deletedER30dense_hashtable_const_iteratorISA_S5_SD_SM_SI_SK_E
Tha:__ZNK9GfxDevice18GetWorldViewMatrixEv
U4e:_List_1_Contains_m3819542652_gshared
Bzf:_TlsServerKeyExchange__ctor_m247733406
fof:_ReadOnlyCollection_1_System_Collections_IList_Add_m3065652010_gshared
IFj:__ZN6il2cpp6icalls8mscorlib6System7Convert17Base64ToByteArrayEPDsib
QJi:_IndexedSet_1_Clear_m2776064367_gshared
uvh:__Z82RuntimeInvoker_Boolean_t3825574718_RaycastResult_t21186376_RaycastResult_t21186376PFvvEPK10MethodInfoPvPS4_
F8i:__ZNSt3__218__insertion_sort_3IRN6il2cpp5utils11collections13ArrayValueMapIPK10Il2CppType17Il2CppInteropData26InteropDataToTypeConverterNS1_8metadata14Il2CppTypeLessENSA_26Il2CppTypeEqualityComparerEE12SortComparerEPS8_EEvT0_SH_T_
ySi:_reloadpointbehave_Start_m267284607
Xha:__ZNK9GfxDevice25GetDeviceProjectionMatrixEv
EIf:_HttpWebRequest__ctor_m1248252412
na:invoke_iidiii
Gzb:__Z18Transfer_BlittableI24GenerateTypeTreeTransferLb1EtEvRK29SerializationCommandArgumentsR31RuntimeSerializationCommandInfo
icg:_RankException__ctor_m2119191472
CW:__ZN12AudioManager33GetCurrentAmbisonicDefinitionNameE31UnityAudioEffectDefinitionFlags
Jhc:__ZN10systeminfo24GetRuntimePlatformStringEv
izc:__ZN9JSONWrite8TransferI13dynamic_arrayI4AABBLj4EEEEvRT_PKc17TransferMetaFlags
Sah:__Z64RuntimeInvoker_Void_t1841601450_OpCode_t2247480392_RuntimeObjectPFvvEPK10MethodInfoPvPS4_
ozi:_Rect_GetHashCode_m2708838453
CX:__ZN5physx14PxLightCpuTask15removeReferenceEv
uUi:_AudioSettings_InvokeOnAudioManagerUpdate_m667489537
SJf:_SPKey_Equals_m1112627532
aTe:_Stream_Close_m1499612649
Nci:_ArgInfo__ctor_m3787931268
Bvi:_X509Chain_Build_m175470596
Dli:_Camera_INTERNAL_CALL_RaycastTry2D_m268676834
bPa:__ZN9ShaderLab6TexEnvC2ERKNS_25SerializedTexturePropertyE
R6b:__Z28IntersectLineSegmentWithLineRK8Vector2fS1_S1_S1_RS_
RLa:__ZN9Transform32SetLocalScaleWithoutNotificationERKN4math7_float3Ey
yTc:__ZN20TextRenderingPrivate19NativeTextGeneratorD2Ev
Ybj:__ZN6il2cpp2vm19SocketPollingThread14DequeueRequestEv
JCj:__ZL10RevealLinkPv
Qqe:_Array_InternalArray__set_Item_TisSingle_t2076509932_m4273663642_gshared
Hi:___cxa_end_catch
Lig:_MethodBuilder_MakeGenericMethod_m303913412
_cg:_AssemblyName_InternalGetPublicKeyToken_m3706025887
sXi:__ZL25UnresolvedVirtualCall_146P12Il2CppObjectffPK10MethodInfo
$Uj:dynCall_viffffii
cyd:_ExecuteEvents_Execute_m4235029535
dmi:_Color32_ToString_m685380321_AdjustorThunk
_ad:__Z43Register_UnityEngine_Canvas_set_scaleFactorv
j4c:_raccess_guess_linux_cap
VW:__Z36AudioSource_Get_Custom_PropIsPlayingP12Il2CppObject
JDf:_ReceiveRecordAsyncResult_get_AsyncWaitHandle_m1602093076
joh:__Z113RuntimeInvoker_Boolean_t3825574718_Ray_t2469606224_RaycastHitU26_t1969197280_Single_t2076509932_Int32_t2071877448PFvvEPK10MethodInfoPvPS4_
BHb:__Z19TransferField_ArrayI18StreamedBinaryReadILb0EE27Converter_UnityEngineObjectEvRK23StaticTransferFieldInfoR31RuntimeSerializationCommandInfoRT0_
lfh:__Z221RuntimeInvoker_Void_t1841601450_Int32_t2071877448_Int16_t4041245914_Int16_t4041245914_SByte_t454417549_SByte_t454417549_SByte_t454417549_SByte_t454417549_SByte_t454417549_SByte_t454417549_SByte_t454417549_SByte_t454417549PFvvEPK10MethodInfoPvPS4_
Svc:__ZNK5Unity9rapidjson12GenericValueINS0_4UTF8IcEE13JSONAllocatorE6AcceptINS0_12PrettyWriterI16TempBufferWriterS3_S3_S4_EEEEbRT_
X4:__Z33InitializeBuiltinShaderParamNamesv
CCa:__ZNK16TypeTreeIterator4TypeEv
bFi:_Vector3_get_sqrMagnitude_m1445517847
Lci:_LeaseManager__ctor_m2166901364
OOb:__ZN10FileSystem25MountDataFolderFileSystemERKN4core12basic_stringIcNS0_20StringStorageDefaultIcEEEES6_
UK:__ZN6MotionC2E18MemLabelIdentifier18ObjectCreationMode
h1g:__ZL67Selectable_t1490392188_CustomAttributesCacheGenerator_m_SpriteStateP21CustomAttributesCache
pj:_glGetUniformLocation
jja:__ZN13GfxDeviceGLES32CreateColorRenderSurfacePlatformEP17RenderSurfaceBase19RenderTextureFormat
FN:__ZN12AudioManager24CreateFMODSoundFromMovieEP9AudioClip
bCi:_StackTraceUtility_ExtractStackTrace_m2375126700
saj:__ZN6il2cpp2vm13MetadataCache24GetGenericInstanceMethodEPK10MethodInfoPK20Il2CppGenericContext
z7a:__ZNK9Texture3D12GetDimensionEv
jxe:_SimpleCollator_SetCJKTable_m1356471502
IMe:_Int32_System_IConvertible_ToUInt64_m2888588559_AdjustorThunk
J9:__Z24ConvertSeparatorsToUnityPc
ecb:__ZNSt3__213__vector_baseI9InputAxisNS_9allocatorIS1_EEED2Ev
rrj:__ZN6il2cpp2vm6Thread20FreeThreadStaticDataEP12Il2CppThread
i4g:__Z28RuntimeInvoker_RuntimeObjectPFvvEPK10MethodInfoPvPS4_
dee:_Exception_get_ClassName_m2189012117
APe:_IOException__ctor_m613517077
Z8h:_MarshalDirectiveException__ctor_m3894820706
H0c:_cf2_glyphpath_finalize
L0d:_Stack__ctor_m521896492
BSb:__Z20LookRotationToMatrixRK8Vector3fS1_P10Matrix3x3f
qVj:dynCall_viififi
PYc:_UNITY_FT_Stream_Free
g7f:_Type_GetTypeFromHandle_m432505302
erj:__ZN15dense_hashtableINSt3__24pairIK10KeyWrapperINS1_IP11Il2CppClassjEEES4_EES6_N6il2cpp8metadata14ArrayClassHashEN14dense_hash_mapIS6_S4_SB_NS6_14EqualsComparerINSA_17ArrayClassCompareEEENS0_9allocatorIS8_EEE9SelectKeyESF_SH_E12maybe_shrinkEv
K8h:_GCHandle_FreeHandle_m2466807271
fId:_GraphicRegistry_get_instance_m2112667631
GY:__ZN11UnityEngine15CloudWebService14DataDispatcher25OnDataBlockConsumedStaticEPv
hyd:_ExecuteEvents_Execute_m2476343313
vyg:__ZL54_MethodInfo_t3642518830_CustomAttributesCacheGeneratorP21CustomAttributesCache
oDd:_CanvasUpdateRegistry_CleanInvalidItems_m1402635291
PFb:__Z29Transfer_Blittable_ArrayFieldI18StreamedBinaryReadILb1EE11QuaternionfEvRT_R9ArrayInfoRK23StaticTransferFieldInfo
iNe:_Int64_System_IConvertible_ToByte_m3027162116_AdjustorThunk
Cyd:_ExecuteEvents_get_endDragHandler_m56074740
rNd:_InputField_IsValidChar_m3929866302
mkb:__Z14resize_trimmedINSt3__26vectorIN9ShaderLab20SerializedSubProgram16SamplerParameterENS0_9allocatorIS4_EEEEEvRT_j
CWd:_ArrayList__cctor_m2090802806
eSj:__ZNSt3__212basic_stringIcNS_11char_traitsIcEENS_9allocatorIcEEE6insertEjPKcj
Mwc:__Z44InitializeTransferFunctionScriptingTraitsForI8JSONReadEvR31TransferFunctionScriptingTraits
KNb:__ZNSt3__27__sort4IRNS_4lessIN22BuiltinResourceManager8ResourceEEEPS3_EEjT0_S7_S7_S7_T_
qQc:__ZN15dense_hashtableINSt3__24pairIKiiEEi21InstanceIDHashFunctorN14dense_hash_mapIiiS4_NS0_8equal_toIiEE13stl_allocatorIS3_L18MemLabelIdentifier37ELi16EEE9SelectKeyES7_SA_E14squash_deletedEv
Qpa:__ZN4crnd12crn_unpacker11unpack_dxt5EPPhjjjjjj
Q9f:_UInt32_System_IConvertible_ToUInt64_m4083788326_AdjustorThunk
p3c:_UNITY_tt_face_get_location
U_f:_DESTransform_Permutation_m4174035780
IPe:_Path_IsDsc_m1314465747
KQe:_MonoIO_Seek_m3461199288
B1b:__ZN10GameObject34AddFirstTransformComponentInternalEP9Transform
Klc:__Z31Cursor_Get_Custom_PropLockStatev
k3:__ZNSt3__26__treeINS_12__value_typeINS_4pairIPcS3_EENS_3setIS3_15compare_tstringIPKcENS_9allocatorIS3_EEEEEENS_19__map_value_compareIS4_SD_20smaller_tstring_pairIS8_ELb1EEENSA_ISD_EEE7destroyEPNS_11__tree_nodeISD_PvEE
RT:__ZN12AudioManager29GetCurrentAmbisonicDefinitionE31UnityAudioEffectDefinitionFlags
r4i:__ZN15dense_hashtableINSt3__24pairIK10KeyWrapperIPK22Il2CppGenericParameterEP11Il2CppClassEES6_N6il2cpp5utils11PointerHashIS4_EEN14dense_hash_mapIS6_S9_SE_NS6_14EqualsComparerINS0_8equal_toIS5_EEEENS0_9allocatorISA_EEE9SelectKeyESJ_SL_E15insert_noresizeERKSA_
lmc:__Z52Register_UnityEngine_GameObject_GetComponentInParentv
Ycb:__ZN15SerializeTraitsINSt3__24pairIPKN5Unity4TypeE7Hash128EEE8TransferI14SafeBinaryReadEEvRS7_RT_
O_b:__Z37GenerateCombinedDynamicVisibleListJobP11CullResults
W4a:__ZNK13ScreenManager21GetCursorInsideWindowEv
BI:__ZN14SafeBinaryRead21TransferSTLStyleArrayI22OffsetPtrArrayTransferI9OffsetPtrIN7mecanim12statemachine26SelectorTransitionConstantEEEEEvRT_17TransferMetaFlags
eCj:__ZN6il2cpp2vmL22RaiseOverflowExceptionEv
wne:_Array_InternalArray__ICollection_Add_TisSByte_t454417549_m46595441_gshared
Ddi:_Match_get_Empty_m3581361913
MXb:__Z20IntersectAABBFrustumRK4AABBPK5Planej
Gud:_String_Concat_m626692867
opi:_GameObject_SendMessage_m3717256450
Jpi:_Input_GetMouseButtonDown_m2313448302
Wcc:__ZN13RenderManager15InitializeClassEv
owb:__ZN15SerializeTraitsI12PropertyNameE8TransferI14SafeBinaryReadEEvRS0_RT_
Mie:_PlayableHandle_IsPlayableOfType_TisAnimationOffsetPlayable_t1019600543_m3217464196_AdjustorThunk
JLi:_GUIUtility_GetDefaultSkin_m3585053327
Z1:__GLOBAL__sub_I_runtime_baseclasses_2_cpp
Tyc:__ZN9JSONWrite8TransferI11ColorRGBA32EEvRT_PKc17TransferMetaFlags
zBc:__Z22TransferField_NonArrayI8JSONRead27Converter_SimpleNativeClassI8GradientEEvRK23StaticTransferFieldInfoR31RuntimeSerializationCommandInfoRT0_
Vpf:_ReadOnlyCollection_1_System_Collections_IList_RemoveAt_m2372993063_gshared
Iua:__ZNSt3__26vectorI15ComputeShaderCBNS_9allocatorIS1_EEE21__push_back_slow_pathIKS1_EEvRT_
FKb:__ZN10MonoScript13AwakeFromLoadE17AwakeFromLoadMode
w8b:__ZN13ProduceHelperI11MonoManagerLb0EE7ProduceE18MemLabelIdentifier18ObjectCreationMode
Bxa:__ZNK18GfxFramebufferGLES15DiscardContentsER12ObjectHandleI17RenderSurface_TagP17RenderSurfaceBaseE
UDd:_ColorBlock_get_disabledColor_m244002848
OBe:_KeyPairPersistence_IsUserProtected_m37342608
_xc:__Z18Transfer_BlittableI9JSONWriteLb1EdEvRK29SerializationCommandArgumentsR31RuntimeSerializationCommandInfo
vZj:_glGetIntegerv__wrapper
ZKe:_NumberFormatter_ResetCharBuf_m3823516989
H:Math_pow
oDa:__ZN10GameObject28FinalizeAddComponentInternalEPN5Unity9ComponentE
IXd:_ArrayListWrapper_CopyTo_m735618473
W0a:__ZN9Texture2DD2Ev
ATa:__ZNK17InstancedPropInfo15RenderInstancesERK15RenderNodeQueuePK17BatchInstanceDataj17ShaderChannelMaskPFbPvS6_iR11MeshBuffersR16DrawBuffersRangeRiSC_E
XWd:_ArrayList_Remove_m3941780739
Beh:__Z69RuntimeInvoker_Void_t1841601450_SByte_t454417549_TimeSpan_t3430258949PFvvEPK10MethodInfoPvPS4_
NLi:_GUIUtility_Internal_GetDefaultSkin_m2938938210
NOc:__ZN16PhysicsManager2D43RegisterTransformChangeInterestForRigidbodyEP11Rigidbody2D
Keg:_ConstructorBuilder_not_created_m2150488017
zIi:_UnityAction_2_BeginInvoke_m2906232794_gshared
nM:__ZNSt3__26vectorIiNS_9allocatorIiEEE6insertENS_11__wrap_iterIPKiEERS5_
iji:_Uri_AppendQueryAndFragment_m2358658590
Qq:__ZN13dynamic_arrayIhLj1EE18resize_initializedEjRKh12ResizePolicy
Wca:__ZN27IntermediateRendererManagerD2Ev
Nhb:__ZN17PersistentManager27GetLoadErrorMessageFromPathERKN4core12basic_stringIcNS0_20StringStorageDefaultIcEEEE
h$f:_DecoderReplacementFallbackBuffer_Fallback_m1790184670
bm:_glGenRenderbuffers
jtj:__ZN6il2cpp6icalls8mscorlib6System2IO6MonoIO19GetCurrentDirectoryEPi
AYb:__Z21IntersectSegmentPlaneRK8Vector3fS1_RK5PlanePS_
Nud:_String_GetHashCode_m931956593
xdb:__ZN14PlayerSettings23VirtualRedirectTransferER17RemapPPtrTransfer
LZj:_emscripten_glGetIntegerv__wrapper
HT:__ZN12AudioManager31GetCurrentSpatializerDefinitionEv
F9a:__ZN12MeshRenderer16UpdateCachedMeshEv
Wvb:__Z19TransferField_ArrayI14SafeBinaryRead27Converter_SimpleNativeClassI8GradientEEvRK23StaticTransferFieldInfoR31RuntimeSerializationCommandInfoRT0_
I6b:__ZN15dense_hashtableINSt3__24pairIKN4core12basic_stringIcNS2_20StringStorageDefaultIcEEEE10vector_setI4PPtrI11SpriteAtlasENS0_4lessISB_EE13stl_allocatorISB_L18MemLabelIdentifier81ELi16EEEEES6_20StringHash32FunctionIS6_EN14dense_hash_mapIS6_SH_SK_NS0_8equal_toIS6_EESE_ISI_LSF_81ELi16EEE9SelectKeyESN_SO_E15insert_noresizeERKSI_
swj:__ZN6il2cpp2vm5Image9GetCorlibEv
wC:__ZNK27StateMachineBehaviourPlayer25FireStateMachineBehaviourEiiN7mecanim12statemachine19StateMachineMessageE
lPh:_ScrollRectEvent__ctor_m2283981448
geh:__Z52RuntimeInvoker_Single_t2076509932_Single_t2076509932PFvvEPK10MethodInfoPvPS4_
ioh:__Z109RuntimeInvoker_Single_t2076509932_RuntimeObject_RuntimeObject_Single_t2076509932_ILayoutElementU26_t440254879PFvvEPK10MethodInfoPvPS4_
h0e:_Enumerator_VerifyState_m3913376581_AdjustorThunk
sHf:_NameObjectCollectionBase_System_Collections_ICollection_CopyTo_m810189168
lyd:_ExecuteEvents_Execute_m171612015
g1b:__ZN6Camera15SetOrthographicEb
WDc:__ZN6b2Body13ResetMassDataEv
qYc:_UNITY_FT_Stream_GetUShort
cia:__ZN13GfxDeviceGLES14DisableScissorEv
u1i:_Collision2D_get_otherRigidbody_m1173049199
Cxg:__ZL71ReliabilityContractAttribute_t1625655220_CustomAttributesCacheGeneratorP21CustomAttributesCache
G5d:_Decimal_op_Explicit_m1986696267
wGh:_Dictionary_2_System_Collections_ICollection_CopyTo_m3578539931_gshared
wLe:_NumberFormatter_AppendDecimalString_m3532330813
Gc:_glVertexAttrib4f
bfg:_ILGenerator__ctor_m3365621387
Pde:_Environment_GetFolderPath_m1849163024
qAe:_ASN1_Add_m2540239672
bOc:__ZN12b2BroadPhase13QueryCallbackEi
Ohe:_Array_InternalArray__ICollection_Remove_TisInt16_t4041245914_m3380378727_gshared
BSf:_MethodDictionary_CopyTo_m1721788774
MSc:__ZNSt3__26vectorINS_4pairINS1_IttEEfEENS_9allocatorIS3_EEE8__appendEj
tai:_SinkProviderData__ctor_m1828480392
CAd:_RaycastResult_ToString_m2233441736_AdjustorThunk
xIj:_GC_set_hdr_marks
GTa:__Z17SetupObjectMatrixRK10Matrix4x4fi
Jrd:_SecurityFrame_ToString_m1282306399
fye:_SimpleCollator_MatchesBackwardCore_m1884994267
o6f:_TimeSpan_From_m1249538749
xad:__Z84Register_UnityEngine_RectTransformUtility_INTERNAL_CALL_RectangleContainsScreenPointv
Bxe:_SimpleCollator_GetSortKey_m1317491197
n3:__ZN13RuntimeStaticINSt3__23mapINS0_4pairIPcS3_EEPFbPvR14SafeBinaryReadE20smaller_tstring_pairIPKcENS0_9allocatorINS2_IKS4_S9_EEEEEELb0EE13StaticDestroyES5_
jmg:_MonoEvent_GetCustomAttributes_m3899596098
e5d:_Convert_ToSByte_m3295168715
Jx:__ZN7mecanim9animation16CreateClipMemoryEPKNS0_4ClipEiRNS_6memory9AllocatorE
AUc:_open_face
Dbc:__ZZL31RegisterOtherRendererPropertiesR22GenericPropertyBindingEN30Wrapper_RendererReceiveShadows13SetFloatValueEPvf
s9c:__Z17RegisterModule_UIv
sVe:_UnmanagedMemoryStream_Flush_m3305300000
iNb:__ZL11LoadManagerRKN4core12basic_stringIcNS_20StringStorageDefaultIcEEEEi
BIj:_GC_printf
Ria:__ZN9GfxDevice24CreateRenderDepthSurfaceE9TextureIDiiii16TextureDimension17DepthBufferFormat18SurfaceCreateFlags
EXf:_ObjectManager_DoFixups_m835924385
cVf:_RemotingServices_CreateWellKnownServerIdentity_m3390048085
xN:__ZN4FMOD5Sound11setUserDataEPv
Vu:__ZN7mecanim9animation9DenseClip8TransferI18StreamedBinaryReadILb0EEEEvRT_
vjb:__ZN14SafeBinaryRead21TransferSTLStyleArrayINSt3__26vectorIN9ShaderLab19SerializedSubShaderENS1_9allocatorIS4_EEEEEEvRT_17TransferMetaFlags
rA:__ZN27AnimationLayerMixerPlayable13SetInputCountEi
dvf:_ARC4Managed_KeySetup_m73384687
zJa:__ZNK25SingleBlockMemoryFileData4SizeEv
Y7d:_DateTime_Equals_m2562884703
VE:__ZN9BlobWrite8TransferIN7mecanim12statemachine18StateMachineMemoryEEEvRT_PKc17TransferMetaFlags
sR:__ZL50UnityAudioEffect_InternalSetFloatParameterCallbackP14FMOD_DSP_STATEif
Qyj:__ZNK15dense_hashtableINSt3__24pairIK10KeyWrapperIP12Il2CppObjectEN6il2cpp2gc9CachedCCWEEES5_NS7_5utils11PointerHashIS3_EEN14dense_hash_mapIS5_S9_SD_NS5_14EqualsComparerINS0_8equal_toIS4_EEEENS0_9allocatorISA_EEE9SelectKeyESI_SK_E3endEv
U0:__ZN17LowLevelAllocator4FreeEPvj
C$d:_KeyMarker__cctor_m2057880225
W3i:__ZN15dense_hashtableINSt3__24pairIK10KeyWrapperIPK22Il2CppGenericParameterEP11Il2CppClassEES6_N6il2cpp5utils11PointerHashIS4_EEN14dense_hash_mapIS6_S9_SE_NS6_14EqualsComparerINS0_8equal_toIS5_EEEENS0_9allocatorISA_EEE9SelectKeyESJ_SL_E9copy_fromERKSO_j
QIe:_TextInfo_get_ListSeparator_m3426465394
rRe:_FileStream_BeginWrite_m3895959548
eBf:_Context_set_RecordProtocol_m1968834768
lba:__ZL19StaticCleanupPlayerPv
eNf:_X509Certificate2Enumerator_MoveNext_m1861665712
hec:__ZN13PlayableGraph4StopEv
x7g:__Z87RuntimeInvoker_RuntimeObject_RuntimeObject_RuntimeObject_RuntimeObject_SByte_t454417549PFvvEPK10MethodInfoPvPS4_
tfa:__ZN15dense_hashtableINSt3__24pairIKN4core12basic_stringIcNS2_20StringStorageDefaultIcEEEEP11AssetBundleEES6_20StringHash32FunctionIS6_EN14dense_hash_mapIS6_S9_SC_NS0_8equal_toIS6_EENS0_9allocatorISA_EEE9SelectKeyESF_SH_ED2Ev
uQb:__Z24HandleRoundedCornerPropsP19ShaderPropertySheetRK5RectTIfERK8Vector4ff
Lvd:_DecoderExceptionFallbackBuffer_Fallback_m3457210607
SFi:_WaitForSecondsRealtime__ctor_m3561981695
iS:__ZN12AudioManager37RebindAudioSourcesAndSubMixersToMixerEP10AudioMixer
gCa:__ZN9Behaviour10DeactivateE19DeactivateOperation
cjf:_Collection_1_System_Collections_IList_get_Item_m2836259259_gshared
u$a:__ZN13StreamingInfo8TransferI14SafeBinaryReadEEvRT_
Ujb:__ZN15dense_hashtableINSt3__24pairIKiN4core17string_with_labelILi1EEEEEi18SInt32HashFunctionN14dense_hash_mapIiS5_S7_NS0_8equal_toIiEE13stl_allocatorIS6_L18MemLabelIdentifier1ELi16EEE9SelectKeyESA_SD_E15insert_noresizeERKS6_
TIc:__ZN17CapsuleCollider2D13PrepareShapesER13dynamic_arrayIP7b2ShapeLj4EERK10Matrix4x4f
TXa:__ZNK9ShaderLab7Program11IsSupportedEPK6Shader
iNf:_X509Store_Close_m2412711366
Abc:__Z43InitializeRendererAnimationBindingInterfacev
Gaa:__ZL26DestroyGameObjectRecursiveR10GameObjectR11BatchDelete
SLh:_CullStateChangedEvent__ctor_m4025397477
OIj:_GC_allochblk_nth
a4f:_Mutex_ReleaseMutex_m2143813124
H9f:_UInt32_System_IConvertible_ToSByte_m604037412_AdjustorThunk
q8c:__ZZN2UI6Canvas15InitializeClassEvEN33FunctorImpl_1523kTransformChanged4CallEPviR11MessageData
Oac:__Z7HaloTexP9Texture2DPhiiii
aWj:dynCall_i
boe:_Array_InternalArray__ICollection_CopyTo_TisKeyValuePair_2_t3749587448_m2750720485_gshared
Cui:_X509Certificate__cctor_m2984068893
bue:_Component_GetComponents_TisRuntimeObject_m1186222966_gshared
nVj:dynCall_f
fAb:__Z35Transfer_Blittable_FixedBufferFieldI24GenerateTypeTreeTransferjEvRK29SerializationCommandArgumentsR31RuntimeSerializationCommandInfo
$Za:__ZN8Playable13SetInputCountEi
GUj:dynCall_v
USe:_Path__cctor_m3685888661
S9d:_Decimal_System_IConvertible_ToDateTime_m4247760250_AdjustorThunk
MAe:_BitConverterLE_ULongFromBytes_m2583105400
iwa:__ZN7ApiGLES14TextureSamplerEjjRK24GfxTextureSamplingParams17TextureColorSpace
oFh:_Dictionary_2_ToTKey_m965425080_gshared
HPa:__ZN6Camera23VirtualRedirectTransferER14SafeBinaryRead
C4e:_List_1_System_Collections_IList_Insert_m2838947798_gshared
cNj:__ZNSt3__26vectorINS_12basic_stringIDsNS_11char_traitsIDsEENS_9allocatorIDsEEEENS4_IS6_EEE8__appendEj
n6f:_TimeSpan_FromDays_m2859053398
wdd:__ZN11UnityEngine7Connect13ConnectConfig11ConfigValueD2Ev
Cma:__ZNSt3__26__treeINS_12__value_typeIjP14DataBufferGLESEENS_19__map_value_compareIjS4_NS_4lessIjEELb1EEENS_9allocatorIS4_EEE7destroyEPNS_11__tree_nodeIS4_PvEE
mec:__ZN13PlayableGraph15SetPrepareStageE13DirectorStage
Ab:invoke_viiiiiiii
YVe:_MissingMemberException__ctor_m2869542203
Kwa:__ZN18GfxFramebufferGLES24UpdateDefaultFramebufferEP17RenderSurfaceBaseS1_N2gl6HandleILNS2_10ObjectTypeE9EEE
QH:__ZNK18AnimatorController17GetAnimationClipsEv
TTi:_AudioSource_AddAmbisonicExtension_m312887346
Eaf:_List_1_Find_m160737912_gshared
Iii:_Uri_EnsureAbsoluteUri_m1892758054
z1a:__ZN16LightmapSettings5ResetEv
OGa:__ZN12FileAccessor4ReadEyPvPy
quc:__Z42Register_UnityEngine_Event_get_commandNamev
AWd:_ArrayList_ThrowNewArgumentOutOfRangeException_m3795973535
Tvc:__ZN5Unity9rapidjson12PrettyWriterI16TempBufferWriterNS0_4UTF8IcEES4_13JSONAllocatorE12PrettyPrefixENS0_4TypeE
cfi:_Regex_Init_m1873144192
QAe:_BitConverterLE_ToDouble_m516016818
oaa:__ZNK15FileSystemEntry6ExistsEv
eab:__ZNK9Transform21GetLocalToWorldMatrixER10Matrix4x4f
PZi:_TextGenerator_ValidatedSettings_m647349856
qwf:_EncryptedPrivateKeyInfo__ctor_m3398795484
CDi:_Transform_SetParent_m3603514159
yO:__ZN13AudioListener23VirtualRedirectTransferER19StreamedBinaryWriteILb0EE
Gja:__ZN13GfxDeviceGLES11CopyTextureE9TextureIDS0_
GYj:_emscripten_glViewport__wrapper
Mv:__ZN6Motion17MainThreadCleanupEv
Tlh:__Z47RuntimeInvoker_RuntimeObject_Single_t2076509932PFvvEPK10MethodInfoPvPS4_
ibi:_Context__cctor_m3895126354
s2c:_tt_size_select
pt:__ZNSt3__214__split_bufferIN13AnimationClip10FloatCurveER13stl_allocatorIS2_L18MemLabelIdentifier26ELi16EEED2Ev
YY:__ZN11UnityEngine15CloudWebService17SessionEventQueue15RestoreFromFileER12FileAccessorPvy
odb:__ZN14PlayerSettingsD2Ev
tPc:__ZN23ColliderTilingExtensionC2Ev
RQe:_FileStream_get_Length_m2265080501
B7f:_Type_type_is_assignable_from_m1620694099
CHj:_GC_reclaim_all
kHc:__ZN10ClipperLib15FirstIsBottomPtEPKNS_5OutPtES2_
xda:__ZN13PlayableGraph14DestroyOutputsEv
hci:_ContextAttribute_GetPropertiesForNewContext_m4007241045
nf:___syscall122
oEi:_Vector2_set_Item_m985527261_AdjustorThunk
$Qc:__Z39Rigidbody2D_Set_Custom_PropGravityScaleP12Il2CppObjectf
Utf:_Kernel_Subtract_m2224959291
G7h:_ResourceSet__ctor_m2566914412
TDc:__ZN19CompositeCollider2D22AddColliderToCompositeEP10Collider2DRK13dynamic_arrayIP7b2ShapeLj4EE
Yuf:_ASN1Convert_ToDateTime_m2305963290
god:_SymmetricAlgorithm_Finalize_m1665128997
ctf:_BigInteger__ctor_m2991182310
S5i:__ZN6il2cpp2vm5Class6IsEnumEPK11Il2CppClass
xlc:__Z52Register_UnityEngine_Camera_INTERNAL_CALL_RaycastTryv
VQj:_mkdir
Z1d:_Convert_ToByte_m791636053
M4h:_InternalEnumerator_1_get_Current_m2986222582_AdjustorThunk
xAi:_Vector2_set_Item_m985527261
GVj:dynCall_iifi
Fjc:__ZN18ScriptingArguments13CopyFromOtherERKS_
J_c:_ps_hints_close
idc:__Z16CreateRenderLoopR6Camera
E1:_tlsf_create
O5h:_DefaultComparer_Compare_m4039941311_gshared
xBh:_Enumerator_MoveNext_m2534596951_AdjustorThunk
yeb:__ZN14SafeBinaryRead21TransferSTLStyleArrayINSt3__26vectorIN15ResourceManager10DependencyE13stl_allocatorIS4_L18MemLabelIdentifier52ELi16EEEEEEvRT_17TransferMetaFlags
DGc:__ZN10ClipperLib7ClipperC1Ei
fJb:__ZN13MonoBehaviour23VirtualRedirectTransferER18StreamedBinaryReadILb0EE
dlb:__ZN9ShaderLab20SerializedSubProgramC2ERKS0_
snd:_SHA256Managed_ProcessBlock_m1064908669
YSj:__ZNK10__cxxabiv121__vmi_class_type_info27has_unambiguous_public_baseEPNS_19__dynamic_cast_infoEPvi
e6d:_Convert_ToUInt64_m2215781574
Xui:_X509Certificate_VerifySignature_m4020723406
mfe:_CompareInfo_LastIndexOf_m2978196696
kBe:_DSAManaged_Generate_m3166917081
Yxh:_Enumerator_VerifyCurrent_m3330382363_AdjustorThunk
mQh:_ScrollRect_StopMovement_m1824352159
X3a:__ZN15QualitySettings23VirtualRedirectTransferER19StreamedBinaryWriteILb0EE
LVb:__Z20RenderFullScreenQuadR9GfxDeviceRK6Camera17ShaderChannelMaskRK5RectTIfEf21MonoOrStereoscopicEye
Xlf:_ReadOnlyCollection_1_System_Collections_IList_Contains_m2320811592_gshared
ima:__ZN16RenderTextureMap5QueryEPK17RenderSurfaceBase
eVe:_UnexceptionalStreamWriter_Write_m186237617
$Ph:_ScrollRect_UpdateScrollbars_m3921404746
l0j:_emscripten_glUniform4iv__wrapper
ETd:_Boolean_CompareTo_m1086129598_AdjustorThunk
Nbc:__ZN8Material8GetFloatEN9ShaderLab16FastPropertyNameE
UWc:_psnames_module_class_pic_free
Asc:__Z11GetGUIStatev
ng:_pthread_key_create
PWd:_ArrayList_Clear_m3834604134
ug:_emscripten_glGetObjectParameterivARB
TPa:__ZN15SerializeTraitsI10ColorRGBAfE8TransferI14SafeBinaryReadEEvRS0_RT_
nbj:__ZN6il2cpp2vm13MetadataCache27GetEventDefinitionFromIndexEi
rba:__ZN22BuiltinResourceManager13StaticDestroyEPv
Sre:_Array_Resize_TisCustomAttributeTypedArgument_t1498197914_m3055365808_gshared
HDc:__ZNK14b2CapsuleShape11ComputeMassEP10b2MassDataf
xaa:__ZN10GameObject17GetComponentIndexEPN5Unity9ComponentE
z5a:__ZN14SafeBinaryRead21TransferSTLStyleArrayI13dynamic_arrayI7SubMeshLj4EEEEvRT_17TransferMetaFlags
wsd:_Single_IsNegativeInfinity_m2615809279
eNe:_Int32_GetTypeCode_m3811463295_AdjustorThunk
_yf:_CipherSuiteFactory_GetSsl3SupportedCiphers_m2476597368
ZIf:_IPv6Address_Fill_m1824197512
UVc:__ZNK13TextRendering4Font11GetMaterialEv
eR:__ZN29AudioEffectInternalDefinition9CreateDSPEPN4FMOD6SystemEPvPfP23UnityAudioAmbisonicDataPP25UnityAudioSpatializerData
S3c:_UNITY_tt_face_vary_cvt
Rrc:__GLOBAL__sub_I_Grid_cpp
cdj:__ZNK6il2cpp5utils10functional6FilterINSt3__212basic_stringIcNS3_11char_traitsIcEENS3_9allocatorIcEEEENS0_13VmStringUtils21CaseSensitiveComparerEEclIPKcEEbRKT_
Msc:__Z28DidLoadAllAssembliesCallbackv
b3b:__ZN35RegisterRuntimeInitializeAndCleanup22ExecuteInitializationsEv
dLc:__Z14b2TimeOfImpactP11b2TOIOutputPK10b2TOIInput
yFa:__ZN23PreloadManagerOperation14SetFinalTimingEffff
i:DYNAMICTOP_PTR
rEi:_Vector2_op_Division_m1216397880
yGd:_Dropdown_SetupTemplate_m1416189897
nRb:__Z11CopyTextureP7TextureiiS0_ii
_cb:__ZN13BuildSettings8TransferI18StreamedBinaryReadILb0EEEEvRT_
YMh:_PositionAsUV1__ctor_m412270210
$cc:__ZN10GameObject15InitializeClassEv
oYf:_SerializationInfo_GetInt16_m3549836657
Bmc:__Z38Renderer_Get_Custom_PropSortingLayerIDP12Il2CppObject
H1g:__ZL90StencilMaterial_t1630303189_CustomAttributesCacheGenerator_StencilMaterial_Add_m1745413071P21CustomAttributesCache
nt:__ZN13AnimationClip10FloatCurveC2ERKS0_
zce:_Double_Equals_m920556135_AdjustorThunk
fGa:__ZN14AsyncOperationD0Ev
Z0d:_Stack_Push_m284336154
Xic:__Z25scripting_raise_exception21ScriptingExceptionPtr
OLd:_InputField_set_caretBlinkRate_m3521089516
J7d:_DateTime_Add_m4237489122
Heb:__ZN15ResourceManager10Dependency8TransferI14SafeBinaryReadEEvRT_
eHj:_GC_extend_size_map
P6h:_Comparer_1_System_Collections_IComparer_Compare_m637596782_gshared
IR:__ZN4FMOD6System9setDriverEi
nyj:__ZN6il2cpp8metadataL24RecursiveGenericDepthForEPK17Il2CppGenericInst
vNa:__ZNK9Transform11GetRotationEv
XLf:_X509Certificate2_Find_m833446211
wmc:__Z36Register_UnityEngine_GameObject_Findv
d$c:_pshinter_get_globals_funcs
gAb:__Z18Transfer_BlittableI24GenerateTypeTreeTransferLb0EyEvRK29SerializationCommandArgumentsR31RuntimeSerializationCommandInfo
WXa:__ZN8Material14CreateMaterialER6ShaderN6Object9HideFlagsEb
XBe:_KeyPairPersistence_FromXml_m2310151202
w9d:_DBNull_System_IConvertible_ToUInt64_m2919804476
dRj:_fread
UZc:_tt_cmap12_char_map_binary
Pdh:__Z51RuntimeInvoker_Double_t4078015681_Int16_t4041245914PFvvEPK10MethodInfoPvPS4_
yWc:_ft_outline_glyph_transform
Fxa:__Z25GetBuiltinResourceManagerv
g1h:_InternalEnumerator_1_System_Collections_IEnumerator_get_Current_m439366097_AdjustorThunk
Rr:__ZN6Motion21AddSelfToDependenciesER8UserList
yyj:__ZN6il2cpp2gc8GCHandle15GetTargetHandleEP12Il2CppObjectii
Lh:_llvm_trap
a5:__ZNSt3__27__sort5IRNS_6__lessIN12_GLOBAL__N_114ParamNameIndexES3_EEPS3_EEjT0_S7_S7_S7_S7_T_
Fne:_Array_InternalArray__ICollection_Add_TisColor_t2020392075_m3035310177_gshared
sPe:_Directory_CreateDirectory_m3561886598
Jmd:_RSAPKCS1KeyExchangeFormatter_CreateKeyExchange_m1122286094
BHj:_get_index
qs:__ZN11UnityEngine9Animation14GenericBinding8TransferI14SafeBinaryReadEEvRT_
yQa:__Z26scripting_method_get_class18ScriptingMethodPtr
kAf:_ClientSessionInfo_get_Valid_m3589823308
WCe:_PKCS1_Sign_v15_m2137018891
Pie:_SetPropertyUtility_SetClass_TisRuntimeObject_m3524554928_gshared
jUa:__ZN17CollisionMeshData20VertexDataHasChangedEv
icj:__ZN6il2cpp2vm21ThreadPoolCompartment12DetachThreadEP12Il2CppThread
fja:__ZN13GfxDeviceGLES30SetBackBufferColorDepthSurfaceEP17RenderSurfaceBaseS1_
U0f:_Latin1Encoding_GetBytes_m1067304501
evc:__Z52Register_UnityEngine_GUIUtility_get_systemCopyBufferv
Dec:__ZN16StreamedResource8TransferI18StreamedBinaryReadILb0EEEEvRT_
Rnc:__Z49Register_UnityEngine_Input_get_imeCompositionModev
Tjb:__ZN15dense_hashtableINSt3__24pairIKiN4core17string_with_labelILi1EEEEEi18SInt32HashFunctionN14dense_hash_mapIiS5_S7_NS0_8equal_toIiEE13stl_allocatorIS6_L18MemLabelIdentifier1ELi16EEE9SelectKeyESA_SD_E12resize_deltaEjj
b0b:__ZNK20OcclusionCullingData22GetStaticRendererCountEv
dYc:_UNITY_tt_face_free_ps_names
LCc:__GLOBAL__sub_I_runtime_particlesystem_modules_5_cpp
OVb:__ZNK6Camera17GetSkyboxMaterialEv
XIc:__ZN17CapsuleCollider2D8TransferI19StreamedBinaryWriteILb0EEEEvRT_
t1j:_emscripten_glDisableVertexAttribArray__wrapper
AZh:_InternalEnumerator_1_get_Current_m3259181373_AdjustorThunk
R$h:_InternalEnumerator_1_get_Current_m789289033_gshared
Kve:_Array_InternalArray__get_Item_TisUILineInfo_t3621277874_m1432166059_gshared
H9a:__ZN12MeshRenderer18CalculateLocalAABBER4AABBRKS_RK4Mesh
C1i:_ContactFilter2D_CheckConsistency_m4046727088_AdjustorThunk
Xti:_X509CertificateCollection_GetEnumerator_m3994741635
Seh:__Z242RuntimeInvoker_Boolean_t3825574718_RuntimeObject_RuntimeObject_RuntimeObject_SByte_t454417549_DateTimeU26_t3448131235_DateTimeOffsetU26_t3212986406_RuntimeObject_Int32_t2071877448_SByte_t454417549_BooleanU26_t3168250738_BooleanU26_t3168250738PFvvEPK10MethodInfoPvPS4_
JJe:_Guid_ToString_m3927110175
x0:__ZN21UnityDefaultAllocatorI17LowLevelAllocatorE8AllocateEji
V3h:_InternalEnumerator_1_get_Current_m889125315_gshared
bLd:_Image_get_preferredHeight_m1045199335
g7c:__ZL28InitializeUIScriptingClassesv
yni:_Display_RecreateDisplayList_m1746695619
WMb:__ZN10UnityScene10ClearRootsEv
Qqb:__ZN12HandlerChain10AtomicMoveER13FileEntryDataS1_
Qie:_SetPropertyUtility_SetStruct_TisBoolean_t3825574718_m752301298_gshared
Zda:__ZZN15DirectorManager15InitializeClassEvEN48PreLateUpdateDirectorDeferredEvaluateRegistrator7ForwardEv
iSc:__ZN20SpeedTreeWindManager6UpdateEf
lli:_Camera_WorldToScreenPoint_m598317217
Khi:_Literal_GetWidth_m1285678191
B3d:_Decimal_ThrowAtPos_m3318712794
FNi:_GUITargetAttribute_GetGUITargetAttrValue_m3706077059
M5g:__Z63RuntimeInvoker_Char_t3454481338_Int16_t4041245914_RuntimeObjectPFvvEPK10MethodInfoPvPS4_
wDe:_RSAManaged_GetPaddedValue_m4394397
FG:__ZN7mecanim9animation20CreateAvatarConstantEPNS_8skeleton8SkeletonEPNS1_13SkeletonPoseTIN4math4trsXEEES8_PNS_5human5HumanES3_iRKS6_RNS_6memory9AllocatorE
cVe:_UnexceptionalStreamWriter__ctor_m2209699189
Q6e:_List_1_Find_m970100220_gshared
zie:_Array_InternalArray__ICollection_Remove_TisVector2_t2243707579_m3881494282_gshared
c9a:__ZN14CompressedMesh8TransferI19StreamedBinaryWriteILb0EEEEvRT_
Tcg:_AssemblyFileVersionAttribute__ctor_m2026149866
Woe:_Array_InternalArray__ICollection_CopyTo_TisUILineInfo_t3621277874_m2142954044_gshared
Zig:_TypeBuilder_SetParent_m387557893
KEi:_Vector2_get_up_m1721661564
Lyf:_CipherSuiteCollection_cultureAwareCompare_m1825407448
l7d:_DateTimeFormatInfo_GetEraName_m1437894363
Ape:_Array_InternalArray__Insert_TisLabelFixup_t4090909514_m3927736182_gshared
uOf:_X509KeyUsageExtension_Encode_m3100824560
RSa:__ZN24GenerateTypeTreeTransfer8TransferI21PlatformShaderDefinesEEvRT_PKc17TransferMetaFlags
peb:__ZNK15ResourceManager22GetTypeVirtualInternalEv
uHh:_DefaultComparer_GetHashCode_m1728348656_gshared
eNd:_InputField_MouseDragOutsideRect_m3758282095
Xsi:_Object__cctor_m3758199678
RMh:_Outline_ModifyMesh_m3796381413
uSc:__ZN13TextRendering4Font23VirtualRedirectTransferER24GenerateTypeTreeTransfer
APf:_Interpreter_PopulateGroup_m4098755954
Cwf:_PrivateKeyInfo_DecodeRSA_m919734506
$nc:__ZNSt3__27__sort4IRNS_6__lessI11KeyframeTplIfES3_EEPS3_EEjT0_S7_S7_S7_T_
cJe:_GuidParser_Reset_m3389485794
dW:__ZN11AudioSource15InitializeClassEv
Ocf:_Enumerator_System_Collections_IEnumerator_get_Current_m1270503615_gshared
SYh:_InternalEnumerator_1_System_Collections_IEnumerator_get_Current_m3315293493_gshared
XNi:_TextEditor__ctor_m1435332308
lVb:__ZN11HaloManager17RenderGeometryJobEP25DynamicVBOGeometryJobDataj
_$h:_InternalEnumerator_1_System_Collections_IEnumerator_get_Current_m4023948615_gshared
NL:__ZNSt3__227__insertion_sort_incompleteIRPFbN7mecanim9animation13MuscleIndexIdES3_EPS3_EEbT0_S8_T_
pwd:_BaseInput_get_mousePresent_m3571192771
F1j:_emscripten_glBlendEquation__wrapper
zqj:__ZN15dense_hashtableINSt3__24pairIK10KeyWrapperIP11Il2CppClassES4_EES5_N6il2cpp8metadata16SZArrayClassHashEN14dense_hash_mapIS5_S4_SA_NS5_14EqualsComparerINS9_19SZArrayClassCompareEEENS0_9allocatorIS7_EEE9SelectKeyESE_SG_E13set_empty_keyERKS7_
RRj:__ZNSt3__212basic_stringIcNS_11char_traitsIcEENS_9allocatorIcEEE6__initEPKcj
Qj:_emscripten_set_fullscreenchange_callback
HCe:_KeyPairPersistence__IsUserProtected_m3417764903
XOf:_CategoryUtils_CategoryFromName_m226887453
Vae:_Decimal_op_Division_m1099836590
J$:__ZN11UnityEngine15CloudWebService14DataDispatcher22ResetNetworkRetryIndexEv
Vj:_emscripten_glDrawArrays
lPb:__ZZ23InitPlayerLoopCallbacksvEN43EarlyUpdateExecuteMainThreadJobsRegistrator7ForwardEv
k$:__ZN11UnityEngine15CloudWebService19SessionEventManagerC2Ev
lQe:_File_Open_m1543461971
h$d:_Hashtable_KeyEquals_m1433874944
LFi:_Vector4__cctor_m1770725722
Zei:_QuickSearch_GetShiftDistance_m2364008966
did:__ZN13RuntimeStaticI14dynamic_bitsetLb0EE16StaticInitializeEPv
dt:__ZN13AnimationClip10FloatCurve8TransferI14SafeBinaryReadEEvRT_
mga:__ZNSt3__222__merge_move_constructIRNS_4lessIN4core12basic_stringIcNS2_20StringStorageDefaultIcEEEEEENS_11__wrap_iterIPS6_EESB_EEvT0_SC_T1_SD_PNS_15iterator_traitsISC_E10value_typeET_
llc:__Z41Register_UnityEngine_Camera_get_eventMaskv
vW:__ZL19CleanupModule_Audiov
aQi:_GenericComparer_1_Compare_m2516380588_gshared
Hgj:__ZN6il2cpp2os4File10DeleteFileERKNSt3__212basic_stringIcNS2_11char_traitsIcEENS2_9allocatorIcEEEEPi
tPe:_File_Exists_m1685968367
S$i:_Canvas_get_scaleFactor_m1899077319
kxb:__Z29Transfer_Blittable_ArrayFieldI14SafeBinaryReadiEvRT_R9ArrayInfoRK23StaticTransferFieldInfo
_cj:__ZN6il2cpp6icalls8mscorlib6System8MonoType8GetFieldEP20Il2CppReflectionTypeP12Il2CppStringi
h9i:__ZN15dense_hashtableINSt3__24pairIK10KeyWrapperIN6il2cpp5utils13dynamic_arrayIPK10Il2CppTypeLj4EEEEPFvvEEESA_NS3_8metadata19Il2CppSignatureHashEN14dense_hash_mapISA_SD_SG_NSA_14EqualsComparerINSF_22Il2CppSignatureCompareEEENS0_9allocatorISE_EEE9SelectKeyESK_SM_E5clearEv
_Zj:_emscripten_glVertexAttrib3fv__wrapper
Gsf:_Comparison_1_BeginInvoke_m1549337842_gshared
Wvi:_X509Crl_VerifySignature_m25189948
$hc:__ZN8Material10GetTextureEN9ShaderLab16FastPropertyNameE
R8a:__ZN18StreamedBinaryReadILb0EE21TransferSTLStyleArrayI13dynamic_arrayI10Matrix4x4fLj16EEEEvRT_17TransferMetaFlags
G8b:__ZNK28MonoBehaviourPropertyBinding13GetFloatValueERKN11UnityEngine9Animation10BoundCurveE
GYf:_RuntimeFieldHandle_Equals_m1202966418_AdjustorThunk
rJj:_GC_generic_malloc
YAh:_Enumerator_System_Collections_IEnumerator_get_Current_m2160496972_AdjustorThunk
kja:__ZN13GfxDeviceGLES32CreateDepthRenderSurfacePlatformEP17RenderSurfaceBase17DepthBufferFormat
qli:_Camera_INTERNAL_CALL_ScreenToViewportPoint_m2554844623
R5a:__ZN24GenerateTypeTreeTransfer8TransferINSt3__26vectorI13dynamic_arrayI8Vector2fLj4EENS1_9allocatorIS5_EEEEEEvRT_PKc17TransferMetaFlags
ls:__ZNSt3__26vectorI14AnimationEvent13stl_allocatorIS1_L18MemLabelIdentifier26ELi16EEE18__construct_at_endINS_11__wrap_iterIPS1_EEEENS_9enable_ifIXsr21__is_forward_iteratorIT_EE5valueEvE4typeESB_SB_j
Mdi:_MatchCollection_TryToGet_m2938913145
X1j:_emscripten_glIsTexture__wrapper
Hpi:_Input_GetKeyDown_m2974714138
Ejd:_KeyedHashAlgorithm_get_Key_m3672929432
Jia:__ZN9GfxDevice25ReleaseAsyncCommandHeaderEPN21GfxDeviceAsyncCommand3ArgE
Ori:_Mesh_SetSizedArrayForChannel_m3453069292
Evf:_MD2Managed_HashCore_m248147901
JQc:__ZN17Physics2DSettings15InitializeClassEv
sya:__ZN21UniformBufferTFMethod20IsBoneCountSupportedEi
UOh:_Selectable_FindSelectableOnLeft_m3706572906
ZRe:_MemoryStream__ctor_m4073175573
OXa:__ZN6Shader27MarkShaderStateNotSupportedEPKS_
Xse:_Array_Sort_TisVector4_t2243707581_TisVector4_t2243707581_m917148421_gshared
s8f:_UInt16_System_IConvertible_ToBoolean_m887616848_AdjustorThunk
XZg:__ZL81AnimationTriggers_t3244928895_CustomAttributesCacheGenerator_m_HighlightedTriggerP21CustomAttributesCache
Txa:__ZN25TransformFeedbackSkinning8SkinMeshERK18VertexStreamSourceP9GfxBufferP17GPUSkinPoseBufferS4_ii17ShaderChannelMaskb
Ivj:__ZN15dense_hashtableINSt3__24pairIK10KeyWrapperIP14Il2CppIUnknownEjEES5_N6il2cpp5utils11PointerHashIS3_EEN14dense_hash_mapIS5_jSB_NS5_14EqualsComparerINS0_8equal_toIS4_EEEENS0_9allocatorIS7_EEE9SelectKeyESG_SI_E12resize_deltaEjj
U1f:_UnicodeEncoding_GetCharCount_m3719064538
ATd:_Boolean_CompareTo_m3691698947
vHh:_DefaultComparer_Equals_m3262686272_gshared
LCb:__Z22TransferField_NonArrayI19StreamedBinaryWriteILb0EE27Converter_SimpleNativeClassI8GUIStyleEEvRK23StaticTransferFieldInfoR31RuntimeSerializationCommandInfoRT0_
CTe:_StreamReader_ReadToEnd_m3871366821
iRh:_Selectable_set_interactable_m63718297
fCc:__ZN8JSONRead8TransferIN4math12int3_storageEEEvRT_PKc17TransferMetaFlagsb
gQb:__ZN27IntermediateRendererManager29ClearAllIntermediateRenderersEv
Voe:_Array_InternalArray__ICollection_CopyTo_TisUICharInfo_t3056636800_m2132994790_gshared
Up:__Z17CalculateGlobalSM23TransformAccessReadOnlyRKN4math7_float4E
jY:__ZN23CloudWebServicesManager23VirtualRedirectTransferER18StreamedBinaryReadILb0EE
Ul:_emscripten_glLoadIdentity
p3b:__ZNSt3__26vectorINS_4pairIN4core12basic_stringIcNS2_20StringStorageDefaultIcEEEEPK17MessageIdentifierEENS_9allocatorISA_EEE26__swap_out_circular_bufferERNS_14__split_bufferISA_RSC_EEPSA_
I1d:_Decimal_op_GreaterThan_m1625379433
y_b:__Z29CullShadowCastersWithoutUmbraR9IndexListRK17CullingParametersPK4AABBjj
SUb:__ZN6Camera28DefaultPerformRenderFunctionclEPS_13RenderingPathP11CullResults
Fob:__ZN6Shader16GetDefaultOrNullEv
vp:__ZN4AABB8TransferI14SafeBinaryReadEEvRT_
qfh:__Z79RuntimeInvoker_RuntimeObject_SByte_t454417549_SByte_t454417549_SByte_t454417549PFvvEPK10MethodInfoPvPS4_
RJc:__ZN16PhysicsManager2D26GetGameObjectForRaycastHitERK12RaycastHit2D
aKe:_Int16_System_IConvertible_ToDecimal_m2010889121_AdjustorThunk
qie:_Array_InternalArray__ICollection_Remove_TisPlayableBinding_t2498078091_m2632165671_gshared
g2a:__ZN18StreamedBinaryReadILb0EE21TransferSTLStyleArrayI13dynamic_arrayI12LightmapDataLj4EEEEvRT_17TransferMetaFlags
f5b:__Z11MD5ToStringPh
i$e:_Enumerator_MoveNext_m2625246500_AdjustorThunk
Bnc:__Z38Input_Get_Custom_PropCompositionStringv
l3f:_UTF8Encoding_GetPreamble_m4179999478
jK:__ZN7mecanim12statemachine18TransitionConstant8TransferI19StreamedBinaryWriteILb0EEEEvRT_
K5i:__ZN6il2cpp2vm5Class19GetArrayElementSizeEPK11Il2CppClass
Q$c:_cf2_builder_moveTo
f$d:_SyncHashtable__ctor_m3750218498
sZ:__ZN9JSONWrite8TransferIN4core12basic_stringIcNS1_20StringStorageDefaultIcEEEEEEvRT_PKc17TransferMetaFlags
hti:_GeneralNames_get_IPAddresses_m1712556836
A2f:_UTF7Encoding_GetByteCount_m253528135
Xzd:_PointerInputModule_CopyFromTo_m2185451090
sLc:__ZN24b2ChainAndPolygonContact6CreateEP9b2FixtureiS1_iP16b2BlockAllocator
_Rj:__ZNSt3__212basic_stringIcNS_11char_traitsIcEENS_9allocatorIcEEE6resizeEjc
_le:_Array_InternalArray__IndexOf_TisMonoResource_t3127387157_m1933788179_gshared
rdb:__ZN14PlayerSettings16CheckConsistencyEv
fV:__ZN11AudioModule30GetOrCreateDSPFromCustomFilterEP17AudioCustomFilter
bRa:__ZN19AtomicPageAllocatorD2Ev
An:FUNCTION_TABLE_viiiiiiiiiiiiii
iwj:__ZN6il2cpp6icalls8mscorlib6System13GlobalizationL20culture_lcid_locatorEPKvS5_
ngf:_Collection_1_Add_m3182287887_gshared
izd:_PointerEventData_set_useDragThreshold_m2778439880
i$a:__ZNK12CubemapArray16ExtractImageImplEP14ImageReferenceNS0_8BlitModeEbi
yoc:__Z63Register_UnityEngine_MonoBehaviour_StartCoroutine_Auto_Internalv
At:__ZNSt3__26vectorIN13AnimationClip12Vector3CurveE13stl_allocatorIS2_L18MemLabelIdentifier26ELi16EEEC2INS_11__wrap_iterIPS2_EEEET_SB_RKS5_PNS_9enable_ifIXaasr21__is_forward_iteratorISB_EE5valuesr16is_constructibleIS2_NS_15iterator_traitsISB_E9referenceEEE5valueEvE4typeE
Phc:__ZN10systeminfo24GetSystemLanguageCultureEi
y1f:_StringBuilder_Append_m3618697540
$Ic:__ZN16CircleCollider2D5ResetEv
yQh:_ScrollRect_get_normalizedPosition_m1640825682
Opd:_SecurityElement_IsValidAttributeName_m2201790420
Ddb:__ZN10VRSettings8TransferI14SafeBinaryReadEEvRT_
A8f:_UInt16_System_IConvertible_ToDecimal_m984067306_AdjustorThunk
N$b:__Z18AddGroupToWorkloadR26BlockRangeBalancedWorkloadjR13dynamic_arrayI10BlockRangeLj4EERS1_IjLj4EE
BWc:_UNITY_FT_Outline_Get_CBox
Bne:_Array_InternalArray__ICollection_Add_TisUInt16_t986882611_m2791161149_gshared
I2:__GLOBAL__sub_I_runtime_gfxdevice_0_cpp
Hxh:_Enumerator_Reset_m3115320746_gshared
gLe:_NumberFormatter_FormatDecimal_m1435371940
txe:_SimpleCollator_GetTailContraction_m1037943844
$kd:_RC2CryptoServiceProvider_CreateEncryptor_m252199767
bKi:_U3CStartU3Ec__Iterator0_MoveNext_m2339115502_gshared
Kgd:__ZN20UnityWebRequestProtoI24UnityWebRequestTransport16AtomicRefCounter14RedirectHelper14ResponseHelper15DownloadHandler13UploadHandler12HeaderHelper14AsyncOperationE8FinalizeEv
Nlh:__Z165RuntimeInvoker_Void_t1841601450_RuntimeObject_Int32_t2071877448_Int32_t2071877448_RuntimeObject_Int32_t2071877448_Single_t2076509932_Single_t2076509932_RuntimeObjectPFvvEPK10MethodInfoPvPS4_
WNa:__ZN22PerThreadPageAllocator14AcquireNewPageEj
rW:__ZN24AudioScriptBufferManager15DidReloadDomainEv
yzb:__Z18Transfer_BlittableI24GenerateTypeTreeTransferLb1E9BoundsIntEvRK29SerializationCommandArgumentsR31RuntimeSerializationCommandInfo
zWb:__ZN6Camera13ClearNoSkyboxEb
wNe:_Int64_System_IConvertible_ToInt64_m989981560_AdjustorThunk
Z5e:_List_1_CheckIndex_m2576265846_gshared
ymh:__Z110RuntimeInvoker_Boolean_t3825574718_Vector2_t2243707579_Vector2_t2243707579_Single_t2076509932_SByte_t454417549PFvvEPK10MethodInfoPvPS4_
vLi:_Event_get_mousePosition_m1191943012
qRd:_Array_combsort_m2486643569
$ri:_Mesh_SetUVs_m3637760384
Mca:__ZNSt3__27__sort5IR17CompareInstanceIDPP6ObjectEEjT0_S6_S6_S6_S6_T_
i3b:__ZN13sorted_vectorINSt3__24pairIN4core12basic_stringIcNS2_20StringStorageDefaultIcEEEEPK17MessageIdentifierEEN10vector_mapIS6_S9_NS0_4lessIS6_EENS0_9allocatorISA_EEE13value_compareESF_E4findIS6_EENS0_11__wrap_iterIPSA_EERKT_
HHh:_DefaultComparer_Equals_m145577182_gshared
Xla:__ZN18GfxFramebufferGLES10InvalidateEv
bGe:_SmallXmlParser_SkipWhitespaces_m2923234398
dae:_Decimal_System_IConvertible_ToSingle_m1736019752_AdjustorThunk
Npa:__ZN4crnd11crnd_deleteINS_13prefix_coding14decoder_tablesEEEvPT_
f4:__ZN10MemoryPoolD2Ev
Ut:__ZN17AnimationCurveTplI11QuaternionfE8TransferI14SafeBinaryReadEEvRT_
ytc:__ZNSt3__26__treeINS_12__value_typeIN4core12basic_stringIcNS2_20StringStorageDefaultIcEEEEN5IMGUI12NamedControlEEENS_19__map_value_compareIS6_S9_NS_4lessIS6_EELb1EEENS_9allocatorIS9_EEE7destroyEPNS_11__tree_nodeIS9_PvEE
sEf:_SslClientStream_get_SelectedClientCertificate_m1580018944
H2d:_DateTime_FromTicks_m75527956
nBe:_KeyGeneratedEventHandler_Invoke_m4220935979
u3f:_CompressedStack_Capture_m179370023
pva:__ZN14GfxDeviceStats19EndClientFrameStatsEv
tbe:_DebuggerTypeProxyAttribute__ctor_m3082078467
Aie:_Array_InternalArray__ICollection_Remove_TisVector3_t2243707580_m3881497481_gshared
HQj:___mmap
Nic:__ZN9Scripting26RaiseArgumentNullExceptionEPKc
u2j:b120
R1:__ZL18InternalLogConsolePKcz
BPj:_lseek
H5e:_List_1_System_Collections_IList_set_Item_m2267202349_gshared
B0e:_Enumerator_System_Collections_IEnumerator_get_Current_m3866069145_AdjustorThunk
Fgf:_Collection_1_ConvertItem_m2972284337_gshared
k8:__Z37scripting_method_get_nth_argumenttype18ScriptingMethodPtri
KT:__ZN11AudioSource16UpdatePauseStateEv
tca:__ZL52StaticUnregisterSceneLoadedCallback_LightmapSettingsPv
NA:__ZN7mecanim5human25HumanPoseAddAdditiveLayerERNS0_9HumanPoseERKS1_fRKNS_6bitsetILj70EEE
Ofa:__ZN13RuntimeStaticI18SpriteAtlasManagerLb0EE16StaticInitializeEPv
yIf:_RemoteCertificateValidationCallback_Invoke_m2237177542
YJd:_HorizontalOrVerticalLayoutGroup_set_childForceExpandWidth_m1140293254
oNj:__ZN6il2cpp5utils25NativeDelegateMethodCache17AddNativeDelegateEPFvvEPK10MethodInfo
zHf:_NameObjectCollectionBase_BaseAdd_m964300824
zge:_Array_InternalArray__ICollection_Contains_TisKeyValuePair_2_t1174980068_m650645929_gshared
KVb:__ZN27DeviceViewProjMatricesStateD2Ev
emd:_RNGCryptoServiceProvider_RngOpen_m2238023214
Qdg:_CustomAttributeData_GetCustomAttributes_m4124612360
jzb:__Z18Transfer_BlittableI24GenerateTypeTreeTransferLb0E8Vector3fEvRK29SerializationCommandArgumentsR31RuntimeSerializationCommandInfo
qSc:__ZNK13TextRendering4Font22GetTypeVirtualInternalEv
zrj:__ZN6il2cpp2vm6Thread16RequestInterruptEP12Il2CppThread
_eb:__ZN19StreamedBinaryWriteILb0EE21TransferSTLStyleArrayINSt3__26vectorIN15ResourceManager10DependencyE13stl_allocatorIS5_L18MemLabelIdentifier52ELi16EEEEEEvRT_17TransferMetaFlags
hGf:_TlsStream_get_Position_m3551173234
cbi:_LeaseManager_SetPollTime_m3137304074
s_d:_Hashtable_CalcPrime_m1835281409
f:HEAPU32
Hqa:__ZN6prcoreL10inner_flipILj2EEEvPhS1_j
$ig:_TypeBuilder_has_ctor_method_m3449702467
c7a:__ZNK14Texture2DArray16ExtractImageImplEP14ImageReferenceNS0_8BlitModeEbi
uyc:__ZN9JSONWrite8TransferIbEEvRT_PKc17TransferMetaFlags
MQd:_Array_CreateInstance_m679102425
VEa:__ZN12TLSAllocatorI14StackAllocatorED0Ev
G8h:_GCHandle_GetTarget_m2056570211
qcb:__ZN11TimeManager16CheckConsistencyEv
dTb:__ZN21GfxDeviceAsyncCommand10ArgScratch15ThreadedCleanupEv
DHc:__ZN10ClipperLib14IntersectPointERNS_5TEdgeES1_RNS_8IntPointE
Xgi:_CapturingGroup_get_IsNamed_m561983186
dxe:_MSCompatUnicodeTable_IsJapaneseSmallLetter_m2541532635
ktf:_BigInteger_GenerateRandom_m1878468830
Kyb:__ZN12NativeBufferI27Converter_UnityEngineObjectE15SetupForWritingER9ArrayInfo
zId:_Graphic_UpdateGeometry_m2431537946
_Ye:_ObsoleteAttribute__ctor_m834417715
se:_glTexImage3D
sW:__Z20RegisterModule_Audiov
Uyf:_TlsCipherSuite__ctor_m2983563913
lYa:__ZNSt3__26vectorINS_4pairI11ShaderTagIDS2_EENS_9allocatorIS3_EEE6insertENS_11__wrap_iterIPKS3_EERS8_
Kxi:_Quaternion_INTERNAL_CALL_Internal_ToEulerRad_m3684028868
Be:_JS_SystemInfo_GetCurrentCanvasWidth
jjc:__ZL34GetComponentsImplementationRecurseILb1ELi0ELi1EEbR10GameObjectbRK17CompareParametersRK39GetComponentsImplementation_ReturnValue
muj:__ZN6il2cpp2vm14PlatformInvoke30MarshalCSharpStringToCppStringEP12Il2CppString
Rzj:__ZN6il2cpp2vm5Field10IsInstanceEP9FieldInfo
Zdb:__ZN10VRSettings8TransferI18StreamedBinaryReadILb0EEEEvRT_
Qz:__ZN22AnimationMixerPlayable12MixerProcessEP35AnimationPlayableEvaluationConstantP32AnimationPlayableEvaluationInputP33AnimationPlayableEvaluationOutputM17AnimationPlayableFvS1_S3_S5_EPFvS1_S3_S5_ESA_PFvS5_S1_S3_S5_PN7mecanim16ValueArrayWeightEfEPFvS1_S3_S5_SD_fE
s_h:_InternalEnumerator_1_System_Collections_IEnumerator_get_Current_m1322273508_AdjustorThunk
_qb:__ZN22LocalFileSystemHandler4NameEv
XNe:_Int64_TryParse_m3093198325
jhh:__Z145RuntimeInvoker_Void_t1841601450_RuntimeObject_RuntimeObject_RuntimeObject_Int32_t2071877448_Int32_t2071877448_Int32_t2071877448_Int32_t2071877448PFvvEPK10MethodInfoPvPS4_
Ecj:__ZN6il2cpp2vm10ThreadPool5QueueEP14Il2CppDelegatePPvS3_P12Il2CppObject
RCb:__Z19TransferField_ArrayI19StreamedBinaryWriteILb0EE27Converter_SimpleNativeClassI8GradientEEvRK23StaticTransferFieldInfoR31RuntimeSerializationCommandInfoRT0_
BQe:_FileLoadException_ToString_m319701103
QSe:_NullStream_Seek_m1809916110
mFc:__ZNK12b2WheelJoint16GetReactionForceEf
_ae:_Delegate_SetMulticastInvoke_m361277268
rwd:_BaseInput_GetMouseButtonUp_m32571233
K$f:_EncoderReplacementFallbackBuffer_get_Remaining_m2777488845
$5a:__ZN7SubMesh8TransferI18StreamedBinaryReadILb0EEEEvRT_
d3f:_UTF8Encoding_GetCharCount_m3557355060
YZh:_InternalEnumerator_1_System_Collections_IEnumerator_get_Current_m127456009_gshared
Urc:__ZNK19RectangleCellLayout9CellRoundERKN4Grid9GridStateERKN4math7_float3E
ff:_emscripten_glIsEnabled
TEb:__ZN18StreamedBinaryReadILb1EE21TransferSTLStyleArrayI13dynamic_arrayIdLj8EEEEvRT_17TransferMetaFlags
nmc:__Z45Register_UnityEngine_GameObject_get_transformv
r7:__Z29scripting_class_instance_size17ScriptingClassPtr
PBc:__Z29Transfer_Blittable_ArrayFieldI8JSONRead5RectTIiEEvRT_R9ArrayInfoRK23StaticTransferFieldInfo
hEc:__ZN7b2World12DestroyJointEP7b2Joint
y_i:_Func_2_Invoke_m2929712329_gshared
UEf:_SslHandshakeHash_initializePad_m4132246594
yc:invoke_iiiiiiiii
tNf:_X509CertificateCollection_get_Item_m848456018
M$:__ZN11UnityEngine15CloudWebService19SessionEventManager26ProcessEventQueueJobStaticEPv
zgi:_AnchorInfo_get_IsUnknownWidth_m3747592836
gbb:__ZL19SpriteMeshExtractorPv17ShaderChannelMaskiR11MeshBuffersR16DrawBuffersRangeRiS5_
Qoh:__Z99RuntimeInvoker_Void_t1841601450_Int32_t2071877448_Int32_t2071877448_Int32_t2071877448_RuntimeObjectPFvvEPK10MethodInfoPvPS4_
e0:__ZN11UnityEngine15CloudWebService19SessionEventManager37OnTimerExpiredPerformArchiveJobStaticEPv
mxc:__Z18Transfer_BlittableI9JSONWriteLb1E9BoundsIntEvRK29SerializationCommandArgumentsR31RuntimeSerializationCommandInfo
kni:_DebugLogHandler_Internal_LogException_m4229368478
yVa:__ZN10builtintex15GetWhiteTextureEv
qOj:__ZN6il2cpp6icalls8mscorlib6System10Reflection4Emit11DerivedType21create_unmanaged_typeEP20Il2CppReflectionType
rWf:_FormatterConverter_ToInt32_m1004171952
Jea:__Z29GetOcclusionPortalManagerListv
RPd:_Array_System_Collections_IList_set_Item_m4290470392
_Uf:_RemotingConfiguration_RegisterActivatedServiceType_m4003543022
Npc:__Z39Register_UnityEngine_Sprite_get_texturev
Xai:_ConfigHandler_GetNotNull_m2454680251
u2i:__ZL10rescale128PyS_Piiiii
aO:__ZN9AudioClip7WWWSeekEPvjS0_
URb:__ZN8GUILayer14RenderGUILayerE5RectTIfEjR17ShaderPassContext
x3:__ZL32StaticInitializeIUnityInterfacesPv
ISb:__Z13CameraProjectRK8Vector3fRK10Matrix4x4fS4_RK5RectTIiERS_b
Tfb:__ZN30RuntimeInitializeOnLoadManager15ClassMethodInfo8TransferI19StreamedBinaryWriteILb0EEEEvRT_
Fba:__Z22CreateMutexLockedStackv
b7d:_DateTime_System_IConvertible_ToType_m3821835592
PQf:_IntervalCollection_get_Item_m1667788970
LNb:__ZNSt3__27__sort5IRNS_4lessIN22BuiltinResourceManager8ResourceEEEPS3_EEjT0_S7_S7_S7_S7_T_
Q0f:_Latin1Encoding_GetByteCount_m2812921286
znb:__ZN9ShaderLab11ShaderStateD2Ev
N9d:_Decimal_System_IConvertible_ToByte_m3432160840
e3c:_Ins_DELTAP
J0f:_UTF7Encoding__ctor_m1941256679
tKb:__Z23TransferScriptingObjectI24GenerateTypeTreeTransferEvRT_18ScriptingObjectPtr17ScriptingClassPtrPK15MonoScriptCache
uWf:_BinaryCommon__cctor_m3619690968
zVc:_UNITY_FT_Set_Pixel_Sizes
Dvi:_X509Chain_FindCertificateRoot_m589250107
Tbg:_Version_GetHashCode_m880841176
hJ:__ZN7mecanim10ValueArray8TransferI24GenerateTypeTreeTransferEEvRT_
iE:__ZN8Animator24SortJobsBasedOnHierarchyERK13dynamic_arrayINS_11AnimatorJobELj8EERS0_IS2_Lj4EE
xCb:__ZL17Transfer_GUIStyleI19StreamedBinaryWriteILb0EELb0EEvRK29SerializationCommandArgumentsR31RuntimeSerializationCommandInfo
Nqb:__ZNK12HandlerChain6TargetERK13FileEntryDataR15FileSystemEntry
Q$f:_Encoding__ctor_m3985582722
oXf:_ObjectManager_RaiseOnDeserializingEvent_m1841526046
Qud:_String_CreateString_m560359261
JXc:_UNITY_FT_Init_Class_tt_service_get_cmap_info
Gid:_DSA_ToXmlString_m1014346120
qnd:_SHA256Managed__ctor_m1410575277
ZDc:__ZN16b2BlockAllocator4FreeEPvi
wwi:_Plane_Raycast_m3246912889_AdjustorThunk
hfe:_CompareInfo_internal_index_managed_m859405335
WSd:_Boolean_System_IConvertible_ToDateTime_m2613818037_AdjustorThunk
Gbj:__ZNSt3__211__tree_nextIPNS_16__tree_node_baseIPvEEEET_S5_
mpf:_ReadOnlyCollection_1_System_Collections_IList_Clear_m2240307498_gshared
Kxj:__ZN15dense_hashtableI10KeyWrapperIP18Il2CppGenericClassES3_N6il2cpp8metadata22Il2CppGenericClassHashEN14dense_hash_setIS3_S6_NS3_14EqualsComparerINS5_25Il2CppGenericClassCompareEEENSt3__29allocatorIS3_EEE8IdentityESA_SD_E14squash_deletedEv
tAj:__ZN6il2cpp2vm11MethodStack17GetStackFramesRawEv
gta:__ZN6prcoreL17RemapGenericFloatI17TexFormatRGBAHalf17TexFormatRGBFloatEEvPKNS_9InnerInfoE
GWf:_BinaryFormatter_NoCheckDeserialize_m1968202401
RId:_Graphic_CrossFadeAlpha_m4067047552
Xmh:__Z92RuntimeInvoker_Void_t1841601450_RuntimeObject_RuntimeObject_Color32_t874517518_RuntimeObjectPFvvEPK10MethodInfoPvPS4_
zpc:__Z35Sprite_Get_Custom_PropPixelsPerUnitP12Il2CppObject
j8g:__Z116RuntimeInvoker_RuntimeObject_RuntimeObject_Int32_t2071877448_RuntimeObject_RuntimeObject_RuntimeObject_RuntimeObjectPFvvEPK10MethodInfoPvPS4_
A8i:__ZNSt3__26__sortIRN6il2cpp5utils11collections13ArrayValueMapIPK10Il2CppType17Il2CppInteropData26InteropDataToTypeConverterNS1_8metadata14Il2CppTypeLessENSA_26Il2CppTypeEqualityComparerEE12SortComparerEPS8_EEvT0_SH_T_
Whb:__ZN11PreloadDataD2Ev
Dhd:__ZN15DownloadHandler14ProcessHeadersERK9HeaderMap
HSc:__ZNSt3__26vectorINS_4pairIifEE13stl_allocatorIS2_L18MemLabelIdentifier35ELi16EEE6assignINS_11__wrap_iterIPS2_EEEENS_9enable_ifIXaasr21__is_forward_iteratorIT_EE5valuesr16is_constructibleIS2_NS_15iterator_traitsISC_E9referenceEEE5valueEvE4typeESC_SC_
ac:invoke_iifi
isi:_MonoBehaviour_StopCoroutineViaEnumerator_Auto_m2222980381
Jtg:__ZL79Hashtable_t909839986_CustomAttributesCacheGenerator_Hashtable__ctor_m3742489710P21CustomAttributesCache
YFc:__ZNK16b2PrismaticJoint16GetReactionForceEf
EUh:_VertexHelper_AddUIVertexStream_m3599763288
fJh:_EqualityComparer_1_System_Collections_IEqualityComparer_Equals_m1565968086_gshared
tqe:_Array_InternalArray__set_Item_TisSlot_t2022531261_m3811041838_gshared
aSa:__ZN15SharedLightData15UpdateTransformERK9Transform
vld:_RijndaelTransform__cctor_m1393306207
mId:_Graphic_get_defaultMaterial_m1022773737
j$c:_UNITY_FT_Init_Class_pscmaps_interface
rSh:_Slider_OnDidApplyAnimationProperties_m3202463395
WZi:_TextGenerator_PopulateAlways_m817480435
flh:__Z146RuntimeInvoker_Void_t1841601450_Vector2_t2243707579_Vector2_t2243707579_Single_t2076509932_ContactFilter2D_t1672660996_RaycastHit2DU26_t4207306570PFvvEPK10MethodInfoPvPS4_
k$f:_EncoderExceptionFallback__ctor_m3203614411
KJd:_GridLayoutGroup_SetLayoutVertical_m3233681648
hnc:__Z44Register_UnityEngine_RectOffset_get_verticalv
b8f:_Type_MakeGenericType_m973683242
TMj:__ZN6il2cpp2vm9LastError31InitializeLastErrorThreadStaticEv
oac:__ZN13ProduceHelperI13RenderTextureLb0EE7ProduceE18MemLabelIdentifier18ObjectCreationMode
eOe:_Int64_ToString_m2785525583
BR:__ZN4FMOD6System17setSoftwareFormatEi17FMOD_SOUND_FORMATii18FMOD_DSP_RESAMPLER
ehg:_FieldBuilder_GetCustomAttributes_m291168515
gHa:__ZN15dense_hashtableINSt3__24pairIKN4core12basic_stringIcNS2_20StringStorageDefaultIcEEEEP20ArchiveStorageReaderEES6_20StringHash32FunctionIS6_EN14dense_hash_mapIS6_S9_SC_NS0_8equal_toIS6_EE13stl_allocatorISA_L18MemLabelIdentifier55ELi16EEE9SelectKeyESF_SI_E12expand_arrayEjN21dense_hash_map_traits17integral_constantIbLb0EEE
Hmg:_MonoGenericCMethod__ctor_m2520666358
boi:_InvokableCall_remove_Delegate_m3232269751
hh:_JS_SystemInfo_GetCurrentCanvasHeight
CXh:_InternalEnumerator_1_System_Collections_IEnumerator_get_Current_m1313308902_gshared
sTf:_ReturnMessage_get_OutArgs_m299904174
bYa:__ZNK8Material22GetTypeVirtualInternalEv
Huc:__Z34GUIStyle_Get_Custom_PropFixedWidthP12Il2CppObject
uDe:_RSAManaged_get_PublicOnly_m2603845138
bae:_Decimal_System_IConvertible_ToSByte_m3745141000_AdjustorThunk
ICj:__ZN6il2cpp2gc16GarbageCollector11GetWeakLinkEPPv
nXe:_MonoType_GetMethods_m353342170
E4g:__Z108RuntimeInvoker_Boolean_t3825574718_SByte_t454417549_RuntimeObject_Int32_t2071877448_ExceptionU26_t1467204777PFvvEPK10MethodInfoPvPS4_
eBj:__GLOBAL__sub_I_Console_cpp
Ysa:__ZN6prcoreL17RemapGenericFloatI14TexFormatRHalf17TexFormatRGBAHalfEEvPKNS_9InnerInfoE
Cej:__ZN6il2cpp2vm7Runtime11InvokeArrayEPK10MethodInfoPvP11Il2CppArrayPP15Il2CppException
rHe:_GregorianCalendar_get_Eras_m4010603022
jde:_Enum_System_IConvertible_ToUInt16_m1001858842
bFh:_Dictionary_2_make_pair_m394533803_gshared
i3c:_Dual_Project
YM:__ZN9AudioClip23VirtualRedirectTransferER14SafeBinaryRead
iki:_AsyncOperation_t3814632279_marshal_pinvoke_back
ewa:__ZN4gles20EnsureTextureCreatedEP7ApiGLESP17RenderSurfaceGLES
EPd:_LayoutRebuilder_U3CRebuildU3Em__2_m3239837417
tTb:__ZN15ReplacementPass13PrepareSubsetEjRK10RenderNodeifRK17ShaderReplaceData
bIc:__ZN15dense_hashtableINSt3__24pairIKiiEEi21InstanceIDHashFunctorN14dense_hash_mapIiiS4_NS0_8equal_toIiEE13stl_allocatorIS3_L18MemLabelIdentifier37ELi16EEE9SelectKeyES7_SA_E9copy_fromERKSD_j
rS:__Z32AudioMeasurement_GetTimeConstantff
xDj:__ZN6il2cpp8metadata11FieldLayout12LayoutFieldsEjjjRKNSt3__26vectorIPK10Il2CppTypeNS2_9allocatorIS6_EEEERNS1_15FieldLayoutDataE
PPg:__ZL54ContextMenu_t2283362202_CustomAttributesCacheGeneratorP21CustomAttributesCache
a$b:__ZL27PrepareSceneNodesJobCombineP25ScheduleSceneNodesJobData
zRe:_Stream_EndWrite_m263497992
dWd:_Char_Parse_m2121403806
dha:__ZN13GfxDeviceGLESD2Ev
dda:__ZN18AsyncUploadManager13StaticDestroyEPv
pgg:_EnumBuilder_GetConstructorImpl_m331611313
gjb:__ZN6Shader7SetNameEPKc
qFd:_DefaultControls_SetParentAndAlign_m3048898502
x2b:__ZN19CustomRenderTexture22HandleBoundaryWrappingERKNS_14UpdateZoneInfoEj
S1i:_Physics2D_Internal_RaycastNonAlloc_m2519397231
eHc:__ZN10ClipperLib7Clipper16DoSimplePolygonsEv
Cbj:__ZN6il2cpp2vm13MetadataCache32GenerateCustomAttributeTypeCacheEi
INf:_X509Chain__cctor_m826131835
tsi:_PlayerConnection_CreateInstance_m2419948763
QDi:_Transform_GetEnumerator_m1156558734
DD:__ZNK11UnityEngine9Animation30GenericBindingValueArrayUniqueclERKNS0_14GenericBindingES4_
PRd:_ArrayTypeMismatchException__ctor_m1923871345
y_f:_CspParameters__ctor_m3051314030
WDa:__ZNK15dense_hashtableINSt3__24pairIKNS1_I9UnityGUIDxEE15SpriteAtlasDataEES3_23SpriteRenderDataKeyHashN14dense_hash_mapIS3_S5_S7_NS0_8equal_toIS3_EE13stl_allocatorIS6_L18MemLabelIdentifier81ELi16EEE9SelectKeyESA_SD_E23find_position_with_hashERS4_j
zMi:_GUILayoutEntry_set_style_m864176480
vDi:_Transform_INTERNAL_set_localRotation_m1514748659
n3c:_Direct_Move_Y
l3c:_Direct_Move_X
RMf:_X509ChainElement_Set_m2634474339
SSd:_Boolean_System_IConvertible_ToByte_m1443044213_AdjustorThunk
Di:_glClearDepthf
cac:__ZN19SkinnedMeshRenderer7GetMeshEv
Spb:__ZN19RuntimeSceneManager14GetActiveSceneEv
IJ:__ZN18StreamedBinaryReadILb0EE21TransferSTLStyleArrayI22OffsetPtrArrayTransferI9OffsetPtrIN7mecanim12statemachine13StateConstantEEEEEvRT_17TransferMetaFlags
$dj:__ZN6il2cpp6icalls8mscorlib6SystemL8IsStaticEPK9EventInfo
Smc:__Z29RectOffset_Set_Custom_PropTopP12Il2CppObjecti
Vqc:__Z57Register_UnityEngine_Transform_INTERNAL_get_localPositionv
pZb:__ZNSt3__27__sort4IR15ReflProbeSorterPP15ReflectionProbeEEjT0_S6_S6_S6_T_
dze:_BigInteger_op_Equality_m366854173
DRa:__ZN16GraphicsSettings10SmartResetEv
dfc:__ZN19StreamedBinaryWriteILb0EE4InitE24TransferInstructionFlags20BuildTargetSelection
YLh:_MaskableGraphic_Cull_m3130802047
DDf:_RecordProtocol_MapV2CipherCode_m4064211604
ije:_Enumerable_Where_TisRuntimeObject_m1140705402_gshared
mvd:_ASCIIEncoding_GetByteCount_m2696039881
qDf:_ReceiveRecordAsyncResult_SetComplete_m2441107665
LUa:__ZN20SphericalHarmonicsL28TransferI19StreamedBinaryWriteILb0EEEEvRT_
CDd:_CanvasUpdateRegistry_InternalUnRegisterCanvasElementForLayoutRebuild_m3740187734
wOc:__ZN16PhysicsManager2D45UnregisterTransformChangeInterestForRigidbodyEP11Rigidbody2D
Lfg:_DerivedType_get_AssemblyQualifiedName_m2010127631
o9a:__ZN4Mesh14UploadMeshDataEb
Cpe:_Array_InternalArray__Insert_TisMonoResource_t3127387157_m2580914422_gshared
a0h:_InternalEnumerator_1_System_Collections_IEnumerator_get_Current_m4023948615_AdjustorThunk
JZb:__ZN14qsort_internal5QSortIP16RenderObjectDatai25RenderPrePassObjectSorterEEvT_S4_T0_T1_
WGe:_ArgIterator_Equals_m2415994310
cih:__Z85RuntimeInvoker_Char_t3454481338_RuntimeObject_Int32U26_t455636984_CharU26_t1894467670PFvvEPK10MethodInfoPvPS4_
sac:__ZN14RenderSettings12CleanupClassEv
Jpc:__Z43DataUtility_CUSTOM_INTERNAL_CALL_GetPaddingP12Il2CppObjectR8Vector4f
PU:__ZN21AudioScriptingClasses26InvokeOnAudioManagerUpdateEP21ScriptingExceptionPtr
jqa:__ZN18AsyncUploadManager15DoDeCruncherJobEP26FileAssetUploadInstruction
bka:__ZN9GfxDevice15ImmediateNormalEfff
O$f:_EncoderReplacementFallbackBuffer_GetNextChar_m1811006007
AAb:__ZN13GUIStyleState8TransferI24GenerateTypeTreeTransferEEvRT_
t9:__ZN20dynamic_block_vectorI14FileIdentifierE22push_back_no_constructEv
R_j:_emscripten_glGetActiveAttrib__wrapper
u7a:__ZN9Texture3D23VirtualRedirectTransferER14SafeBinaryRead
A1f:_StringBuilder_Append_m1462406979
Qkb:__ZNSt3__26vectorIN9ShaderLab20SerializedSubProgram16TextureParameterENS_9allocatorIS3_EEE8__appendEj
f1a:__ZN9Texture2D13UploadTextureEi
t0f:_Type_GetType_m773255995
Jri:_Mesh_ClearImpl_m2894829935
gva:__ZN7ApiGLES9MapBufferEjN2gl12BufferTargetEllj
rTi:_PCMSetPositionCallback_Invoke_m1437833149
bNh:_RawImage__ctor_m527845386
CR:__ZN4FMOD6System19setSoftwareChannelsEi
LBa:__ZN9GfxDevice19SetSinglePassStereoE16SinglePassStereo
Lqe:_Array_InternalArray__set_Item_TisResourceCacheItem_t333236149_m2074358118_gshared
Nyh:_Enumerator_MoveNext_m3349738440_gshared
tLf:_X500DistinguishedName_DecodeRawData_m3640767187
X3f:_Monitor_Monitor_wait_m3813798368
Hge:_Array_InternalArray__ICollection_Contains_TisDouble_t4078015681_m2262383923_gshared
xTd:_Boolean_System_IConvertible_ToUInt64_m3594533761
Aph:__Z85RuntimeInvoker_Boolean_t3825574718_SpriteStateU26_t1330646292_SpriteState_t1353336012PFvvEPK10MethodInfoPvPS4_
Vnc:__Z60Register_UnityEngine_Input_INTERNAL_set_compositionCursorPosv
lWg:__ZL51Collider_t3497673348_CustomAttributesCacheGeneratorP21CustomAttributesCache
Jye:_BigInteger_get_Rng_m1268152318
QUj:dynCall_viiiii
n9g:__Z90RuntimeInvoker_Boolean_t3825574718_RuntimeObject_RuntimeObject_RuntimeObject_RuntimeObjectPFvvEPK10MethodInfoPvPS4_
VUj:dynCall_viiiif
hmg:_MonoEvent_IsDefined_m3151861274
UJc:__ZN16PhysicsManager2D19ApplyParticleForcesER13dynamic_arrayI21BatchedColliderResultLj4EE
Kjg:_PropertyBuilder_GetCustomAttributes_m1029078269
u_c:_Cubic_To
xzf:_TlsStream_WriteInt24_m1660453494
ilc:__Z44Register_UnityEngine_Camera_get_farClipPlanev
Mq:__Z25InverseTransformDirection23TransformAccessReadOnlyRKN4math7_float3Eb
KV:__ZNK12AudioManager15GetDSPBlockSizeEv
ndb:__ZNK17IAnimationBinding30CurveAttributeToSerializedPathERKN11UnityEngine9Animation10BoundCurveE
ekh:__Z87RuntimeInvoker_Color_t2020392075_Color_t2020392075_Color_t2020392075_Single_t2076509932PFvvEPK10MethodInfoPvPS4_
jzj:__ZN6il2cpp2gc16GarbageCollector14GetOrCreateCCWEP12Il2CppObjectRK10Il2CppGuid
nxj:__ZN6il2cpp2vm5Image21FromTypeNameParseInfoEPK11Il2CppImageRKNS0_17TypeNameParseInfoEb
Nna:__ZN17BufferManagerGLES13AcquireBufferEjN14DataBufferGLES11BufferUsageEb
e1d:_Console_OpenStandardError_m3676373108
rVe:_UnmanagedMemoryStream_SetLength_m1805321486
BAf:_Context_get_ProtocolNegotiated_m624488778
JRd:_SimpleEnumerator_MoveNext_m1696906961
pfd:__ZN16UnityAdsSettingsD0Ev
oBf:_Context_StartSwitchingSecurityParameters_m373522596
Qng:_MonoProperty_GetRequiredCustomModifiers_m576853384
Roa:__ZNK7ApiGLES10DebugLabelEN2gl10ObjectTypeEjPKc
Qle:_Array_InternalArray__IndexOf_TisInt16_t4041245914_m1619355230_gshared
Jke:__ZN21InterfaceFuncInvoker2Ii18Color32_t874517518S0_E6InvokeEjP11Il2CppClassP12Il2CppObjectS0_S0_
XSj:__ZNK10__cxxabiv121__vmi_class_type_info16search_below_dstEPNS_19__dynamic_cast_infoEPKvib
lNe:_Int64_System_IConvertible_ToDateTime_m1002280174
goa:__ZN19ConstantBuffersGLES13SetCBConstantEiiPKvi
_1d:_Convert_ToByte_m9159597
xvi:_X509Store_BuildCertificatesCollection_m4224672591
Kpc:__Z38DataUtility_CUSTOM_Internal_GetMinSizeP12Il2CppObjectP13Vector2fIcall
cec:__ZN8PlayableC2E17ScriptingClassPtr18DirectorPlayerType
x7h:_ResourceEnumerator_get_Key_m1012797265
lLe:_NumberFormatter_FormatPercent_m776769918
ufj:_il2cpp_class_has_attribute
l5f:_Scheduler_ShrinkIfNeeded_m2186823111
Tp:__Z23CalculateGlobalRotation23TransformAccessReadOnly
O7:__Z27FindOrCreateMonoScriptCache17ScriptingClassPtr22InitScriptingCacheTypeP6Objecti
Sr:__ZNK13AnimationClip17GetAnimationClipsEv
gQc:__Z23CleanupPhysicsManager2Dv
qGb:__Z18Transfer_BlittableI18StreamedBinaryReadILb0EELb1E8Vector3fEvRK29SerializationCommandArgumentsR31RuntimeSerializationCommandInfo
l8c:__ZN2UI14CanvasRenderer13SyncVertexPtrER8JobFenceNS0_8SyncFlagE
e8:__Z35scripting_method_get_argument_count18ScriptingMethodPtr
SFa:__ZN18AssetBundleManager18SortPreloadObjectsER13dynamic_arrayIiLj4EEb
w8f:_UInt16_System_IConvertible_ToChar_m4055364664_AdjustorThunk
aFi:_Vector3_SqrMagnitude_m3835019255
xmc:__Z20Gradient_CUSTOM_InitP12Il2CppObject
hvc:__Z48Register_UnityEngine_GUIUtility_Internal_ExitGUIv
ipj:__ZN14dense_hash_mapI10KeyWrapperINSt3__24pairIPK9FieldInfoP11Il2CppClassEEEj17ReflectionMapHashIS8_ENS9_14EqualsComparerINS1_8equal_toIS8_EEEENS1_9allocatorINS2_IKS9_jEEEEE15set_deleted_keyERSH_
Nui:_X509Certificate_get_RawData_m1262574599
gUd:_Byte_System_IConvertible_ToDouble_m4224320007
e$b:__ZL21CullDynamicObjectsJobP14CullingJobDataj
o6c:__ZN2UI15ClearCanvasDataER8JobFenceRNS_10CanvasDataE
jJf:_IPAddress_ToString_m1462985652
$kg:_MethodBase_GetMethodFromHandleNoGenericCheck_m4274264088
$Bh:_ValueCollection_System_Collections_Generic_ICollectionU3CTValueU3E_Clear_m3471385195_gshared
ryh:_Enumerator_get_CurrentKey_m1408186928_AdjustorThunk
g3b:__ZN14ManagerContext17InitializeClassesEv
sMh:_MaskUtilities_GetRectMasksForClip_m1540508301
tFa:__ZN19StreamedBinaryWriteILb0EE21TransferSTLStyleArrayINSt3__26vectorI14ConstantStringNS2_9allocatorIS4_EEEEEEvRT_17TransferMetaFlags
cy:__ZN7mecanim5human20MaskHasRightFootGoalERKNS_6bitsetILj70EEE
HEb:__ZN18StreamedBinaryReadILb1EE21TransferSTLStyleArrayI31ArrayOfManagedObjectsTransfererEEvRT_17TransferMetaFlags
L1e:_List_1_System_Collections_IList_IndexOf_m406088260_gshared
acg:_WeakReference_get_Target_m1672141897
oze:_Kernel_DwordDivMod_m4066997639
X_c:_t1_hints_open
ccd:__ZN11UnityEngine15PlatformWrapper24GetVRTrackedAreaGeometryER13dynamic_arrayI8Vector3fLj4EE
Xfh:__Z68RuntimeInvoker_Boolean_t3825574718_DateTime_t693205669_RuntimeObjectPFvvEPK10MethodInfoPvPS4_
$od:_X509Certificate_GetCertHash_m2299453268
Akd:_MD5CryptoServiceProvider__ctor_m457716966
yge:_Array_InternalArray__ICollection_Contains_TisKeyValuePair_2_t888819835_m3819112676_gshared
qlc:__Z60Register_UnityEngine_Camera_INTERNAL_CALL_WorldToScreenPointv
q4d:_Decimal_s64_m2965457432
wgc:__Z18TransformPoints3x4RK10Matrix4x4fPK8Vector3fjPS2_ji
Shd:__ZN22UnityWebRequestManager21CreateUnityWebRequestEv
wQ:__ZN4FMOD7Channel11getUserDataEPPv
Wzi:_RectTransform_INTERNAL_set_anchorMax_m4173108796
_Xc:_UNITY_tt_face_load_gasp
Rnh:__Z150RuntimeInvoker_RuntimeObject_RuntimeObject_Int32_t2071877448_Int32_t2071877448_Int32_t2071877448_Int32_t2071877448_Int32_t2071877448_Int32_t2071877448PFvvEPK10MethodInfoPvPS4_
Nof:_ReadOnlyCollection_1_System_Collections_IList_Insert_m3650067527_gshared
gVc:_ft_ansi_stream_close
gm:_JS_Sound_SetPitch
A$g:__ZL69InputField_t1631627530_CustomAttributesCacheGenerator_m_TextComponentP21CustomAttributesCache
igj:_il2cpp_runtime_invoke_convert_args
uBc:__Z19TransferField_ArrayI8JSONRead27Converter_SimpleNativeClassI10RectOffsetEEvRK23StaticTransferFieldInfoR31RuntimeSerializationCommandInfoRT0_
Xwh:_Enumerator_get_CurrentKey_m447338908_AdjustorThunk
yzf:_Context_get_SecurityProtocol_m1600902905
ltj:__ZN6il2cpp6icalls8mscorlib6System2IO6MonoIO11GetFileStatEP12Il2CppStringPNS3_8FileStatEPi
Mka:__ZN9GfxDevice33InsertCustomMarkerCallbackAndDataEPFviPvEiS0_j
Rfd:__ZN11UnityEngine15PlatformWrapper16GenerateRandomIdEv
vTb:__ZNK9ShaderLab9IntShader6GetTagE11ShaderTagIDb
BYb:__Z25CalculateShadowCasterCullbPK5PlaneRK10Matrix4x4fRK8Vector3fff9LightTypeS7_R16ShadowCasterCullPKb
oPc:__Z13RegisterClassI13BoxCollider2DEvv
Qej:_il2cpp_get_corlib
Njd:_HMAC_HashCore_m1869699062
zcg:_Assembly_GetTypes_m1317253146
oKe:_Int16_System_IConvertible_ToType_m2901377575_AdjustorThunk
yNe:_Int64_System_IConvertible_ToSByte_m253213816_AdjustorThunk
b9c:__ZN2UI14CanvasRenderer11SetMaterialEP8Materiali
aAd:_MouseState_SetButtonState_m2329922363
nQe:_FileStream__ctor_m3815606687
sHj:_GC_freehblk
TKe:_NumberFormatter_NumberToString_m668979517
esf:_ReadOnlyCollection_1_System_Collections_IList_Remove_m2507730234_gshared
JOb:__Z36GiveDebuggerChanceToAttachIfRequiredv
EBh:_Enumerator_System_Collections_IEnumerator_Reset_m2482663638_gshared
rjc:__ZN9Scripting35DestroyObjectFromScriptingImmediateEP6Objectb
V$b:__ZNK6Camera48AreVRStereoViewMatricesWithinSingleCullToleranceEv
QSg:__ZL53Rigidbody2D_t502193897_CustomAttributesCacheGeneratorP21CustomAttributesCache
tUf:_RemotingServices_GetRemoteObject_m3663391550
w$j:_glGetRenderbufferParameteriv__wrapper
Icf:_Queue_1_Peek_m1224538505_gshared
ebh:__Z105RuntimeInvoker_RuntimeObject_Int32_t2071877448_RuntimeObject_RuntimeObject_RuntimeObject_SByte_t454417549PFvvEPK10MethodInfoPvPS4_
Ule:_Array_InternalArray__IndexOf_TisRuntimeObject_m2440219229_gshared
WWi:__ZL25UnresolvedVirtualCall_122P12Il2CppObject23PropertyName_t217228410fPK10MethodInfo
uc:invoke_iiiiiiiiiiiiiii
vDj:__ZN6il2cpp2os6Thread33UnregisterCurrentThreadForCleanupEv
Z1j:_emscripten_glIsRenderbuffer__wrapper
g9c:__ZN2UI14CanvasRenderer11GetHasMovedEv
s6i:__ZN15dense_hashtableINSt3__24pairIK10KeyWrapperIPK11Il2CppClassEPKcEES6_N6il2cpp5utils11PointerHashIS3_EEN14dense_hash_mapIS6_S9_SE_NS6_14EqualsComparerINS0_8equal_toIS5_EEEENS0_9allocatorISA_EEE9SelectKeyESJ_SL_E9copy_fromERKSO_j
E6c:__ZN2UI11CanvasGroup8TransferI19StreamedBinaryWriteILb0EEEEvRT_
sFb:__Z29Transfer_Blittable_ArrayFieldI18StreamedBinaryReadILb1EE5RectTIiEEvRT_R9ArrayInfoRK23StaticTransferFieldInfo
kTa:__ZNK20IntermediateRenderer8GetLayerEv
tej:__ZN6il2cpp5utils9PathUtils7CombineIcEENSt3__212basic_stringIT_NS3_11char_traitsIS5_EENS3_9allocatorIS5_EEEERKSA_RKNS0_10StringViewIS5_EE
a4a:__ZN15QualitySettings8TransferI14SafeBinaryReadEEvRT_
k6i:__ZN14dense_hash_mapI10KeyWrapperIPK11Il2CppClassEPKcN6il2cpp5utils11PointerHashIS1_EENS4_14EqualsComparerINSt3__28equal_toIS3_EEEENSC_9allocatorINSC_4pairIKS4_S6_EEEEE13set_empty_keyERSI_
pBi:_SendMouseEvents_SendEvents_m1854997939
Ewb:__ZN14SafeBinaryRead21TransferSTLStyleArrayI13dynamic_arrayIxLj8EEEEvRT_17TransferMetaFlags
cUe:_StringReader_CheckObjectDisposedException_m3099453260
SGf:_ListDictionary_System_Collections_IEnumerable_GetEnumerator_m2244736244
yxj:__ZNSt3__26vectorIN6il2cpp2vm5Image20EmbeddedResourceDataENS_9allocatorIS4_EEE21__push_back_slow_pathIS4_EEvOT_
F2:__GLOBAL__sub_I_runtime_utilities_0_cpp
yMj:__ZN6il2cpp2os9FastMutexD2Ev
znh:__Z97RuntimeInvoker_Void_t1841601450_SByte_t454417549_SByte_t454417549_Int32_t2071877448_RuntimeObjectPFvvEPK10MethodInfoPvPS4_
ole:_Array_IndexOf_TisCustomAttributeTypedArgument_t1498197914_m3666284377_gshared
Qze:_Kernel_AddSameSign_m2332657679
Rmi:_Cursor_get_lockState_m300851107
Z6:__ZN14SerializedFile10ReadObjectEx18ObjectCreationModebPPK8TypeTreePbR6Object
Wdf:_Collection_1_System_Collections_IList_IndexOf_m3460849589_gshared
tgc:__ZN4Mesh12SetIndexDataEiiPKv16GfxPrimitiveTypei
PNb:__ZN14dynamic_bitset6resizeEjb
Lwd:_BaseInputModule_FindCommonRoot_m2696088443
QZ:__ZN11UnityEngine15CloudWebService10RestClientINS0_23WebRequestRestHeaderMapEE7SetDataEPKhj
dF:__ZN7mecanim8skeleton16SkeletonPoseCopyIN4math4trsXES3_EEvPKNS0_13SkeletonPoseTIT_EEPNS4_IT0_EE
l6i:__ZN14dense_hash_mapI10KeyWrapperIPK11Il2CppClassEPKcN6il2cpp5utils11PointerHashIS1_EENS4_14EqualsComparerINSt3__28equal_toIS3_EEEENSC_9allocatorINSC_4pairIKS4_S6_EEEEE15set_deleted_keyERSI_
yha:__ZN9GfxDevice34SetStencilRefWhenStencilWasSkippedEi
cTg:__ZL51TextMesh_t1641806576_CustomAttributesCacheGeneratorP21CustomAttributesCache
ldd:__ZN11UnityEngine7Connect13ConnectConfig20RestoreTimeoutConfigERK13dynamic_arrayIiLj4EEjRS3_
tc:invoke_fi
uLj:__ZN6il2cpp6icalls8mscorlib6System10Reflection4Emit11TypeBuilder20create_runtime_classEP27Il2CppReflectionTypeBuilderS7_
Q1:__ZL21InternalAssertConsolePKcz
ida:__ZN18AsyncUploadManagerC2E18MemLabelIdentifier
rc:invoke_ff
Cd:_emscripten_glVertexAttrib3f
Dlj:__ZN30dense_hashtable_const_iteratorINSt3__24pairIK10KeyWrapperINS1_IPK11Il2CppImageP11Il2CppClassEEEjEES9_17ReflectionMapHashIS8_EN14dense_hash_mapIS9_jSD_NS9_14EqualsComparerINS0_8equal_toIS8_EEEENS0_9allocatorISB_EEE9SelectKeyESI_SK_EppEv
czi:_Rect_set_yMax_m1836907767_AdjustorThunk
MVd:_Char_CompareTo_m3044885427
v6e:_List_1_System_Collections_IList_IndexOf_m2887559165_gshared
lCh:_ValueCollection__ctor_m1825701219_gshared
pTc:__ZN20TextRenderingPrivate8TextMesh11ApplyToMeshEv
UFf:_SslStreamBase_get_CanRead_m3061866682
BNh:_GetRaycastNonAllocCallback_Invoke_m106496059
oXj:_emscripten_glDrawRangeElements__wrapper
I0i:_CanvasRenderer_set_popMaterialCount_m3475132987
zQa:__Z28scripting_class_is_valuetype17ScriptingClassPtr
x5b:__ZNSt3__25dequeI10InputEventNS_9allocatorIS1_EEE19__add_back_capacityEv
n$e:_Enumerator_System_Collections_IEnumerator_Reset_m336811426_AdjustorThunk
Hxa:__ZN13ComputeShader13SetValueParamERKN9ShaderLab16FastPropertyNameEiPKv
Hqj:__ZN6il2cpp8metadata18GenericArrayMethodC2ERKS1_
t9a:__ZN14BlendShapeDataD2Ev
xbj:__ZN6il2cpp2vm13MetadataCache25GetIndexForTypeDefinitionEPK11Il2CppClass
jua:__ZL18ProgramUniform3uivPK7ApiGLESjiihPKv
fSd:_Attribute_IsDefined_m1350918959
K9c:__Z47CanvasRenderer_Set_Custom_PropHasPopInstructionP12Il2CppObjecth
zng:_MonoProperty_get_DeclaringType_m4236036432
Tta:__ZN5Image8SetImageEii13TextureFormatb
w8:__ZN17MessageIdentifier21GetRegisteredMessagesEv
XUh:_U3CGetEnumeratorU3Ec__Iterator0_System_Collections_IEnumerator_get_Current_m480171694_gshared
ohe:_Array_InternalArray__ICollection_Contains_TisContentType_t1028629049_m2321684690_gshared
o0:__Z13RegisterClassI23CloudWebServicesManagerEvv
pwj:__GLOBAL__sub_I_Image_cpp
KVe:_Math_Sin_m2320256962
prf:_ReadOnlyCollection_1_System_Collections_Generic_IListU3CTU3E_Insert_m2409570138_gshared
I5e:_List_1_Add_m2123823603_gshared
AZa:__ZNSt3__27__sort5IRPFbRKNS_4pairIN9ShaderLab16FastPropertyNameEfEES6_EPS4_EEjT0_SB_SB_SB_SB_T_
kCd:_CanvasUpdateRegistry__ctor_m4037208045
uLi:_Event_Finalize_m270300156
HDj:__ZN14dense_hash_mapI10KeyWrapperIPK19Il2CppGenericMethodEP10MethodInfoN6il2cpp8metadata23Il2CppGenericMethodHashENS4_14EqualsComparerINS8_26Il2CppGenericMethodCompareEEENSt3__29allocatorINSD_4pairIKS4_S6_EEEEE15set_deleted_keyERSG_
Qwb:__Z29Transfer_Blittable_ArrayFieldI14SafeBinaryRead4AABBEvRT_R9ArrayInfoRK23StaticTransferFieldInfo
Pof:_ReadOnlyCollection_1_System_Collections_IList_RemoveAt_m2396335261_gshared
Qzh:_Transform_1_Invoke_m2675095773_gshared
dGd:_Dropdown_set_captionImage_m1952025570
GXg:__ZL56g_UnityEngine_UI_Assembly_CustomAttributesCacheGeneratorP21CustomAttributesCache
pDe:_RSAManaged_remove_KeyGenerated_m452989252
gnc:__Z46Register_UnityEngine_RectOffset_get_horizontalv
M_a:__ZN18DelayedCallManager8ClearAllEv
B3b:__ZN17PersistentManagerC2E18MemLabelIdentifierii
koc:__Z22Mesh_CUSTOM_HasChannelP12Il2CppObject30InternalScriptingShaderChannel
Isj:__ZN6il2cpp2os8AutoLockD2Ev
VZb:__ZNK25RenderPrePassObjectSorterclERK16RenderObjectDataS2_
SEb:__Z22TransferField_NonArrayI18StreamedBinaryReadILb1EE27Converter_SimpleNativeClassI8GUIStyleEEvRK23StaticTransferFieldInfoR31RuntimeSerializationCommandInfoRT0_
pe:_Mix_LoadWAV_RW
ZMi:_GUIStyle_set_stretchWidth_m281327581
_y:__ZN7mecanim6memory16MecanimAllocator8AllocateEjj
qwa:__Z13IsFloatFormat14GraphicsFormat
nr:__ZNSt3__27__sort4IRNS_6__lessIN11UnityEngine9Animation13CachedBindingES4_EEPS4_EEjT0_S8_S8_S8_T_
tyj:__ZN6il2cpp2gcL12alloc_handleEPNS0_10HandleDataEP12Il2CppObjectb
i$j:_emscripten_glGetAttribLocation__wrapper
mDd:_CanvasScaler_HandleConstantPhysicalSize_m687057631
dgj:_il2cpp_object_get_virtual_method
i_b:__Z13InitIndexListR9IndexListj
jFe:_PKCS12_Encrypt_m1401341763
w9:__ZL16ReadTypeTreeImplILb1EEbR8TypeTreeRK16TypeTreeIteratorRPKhS6_i
fMj:__ZN6il2cpp6icalls8mscorlib6System11Diagnostics10StackTrace9get_traceEP15Il2CppExceptionib
He:_glBlendEquationSeparate
ynd:_SHA384_Create_m1970724783
qm:_emscripten_glDeleteVertexArrays
ela:__ZN13GfxDeviceGLES17SetComputeUniformE12ObjectHandleI18ComputeProgram_TagPvER18ComputeShaderParamjPKv
A0j:b95
Ju:__ZN13AnimationClip10FloatCurve8TransferI18StreamedBinaryReadILb0EEEEvRT_
l1j:_emscripten_glValidateProgram__wrapper
Cgc:__ZN13MeshScripting27PrintErrorCantAccessChannelEPK4Mesh30InternalScriptingShaderChannel
nCe:_SmallXmlParser_ReadComment_m1117342068
Oe:_emscripten_glUniform3fv
SXa:__ZN9ShaderLab7Program14RemoveVariantsERK13dynamic_arrayI16ShaderKeywordSetLj4EE
Utj:__ZN6il2cpp2vm9Exception20GetArgumentExceptionEPKcS3_
hhe:_Array_InternalArray__ICollection_Contains_TisContactPoint2D_t3659330976_m474619266_gshared
HCc:__Z29Transfer_Blittable_ArrayFieldI8JSONReadiEvRT_R9ArrayInfoRK23StaticTransferFieldInfo
v$j:_glDrawArrays__wrapper
vV:__ZN9AudioClip27IsFormatSupportedByPlatformERKN4core12basic_stringIcNS0_20StringStorageDefaultIcEEEE
A$a:__ZN29SerializeTraitsForStringTypesIN4core12basic_stringIcNS0_20StringStorageDefaultIcEEEEE8TransferI24GenerateTypeTreeTransferEEvRS4_RT_
Xlb:__ZN9ShaderLab26SerializedShaderDependency8TransferI24GenerateTypeTreeTransferEEvRT_
q6g:__Z92RuntimeInvoker_RuntimeObject_RuntimeObject_Int32_t2071877448_Int32_t2071877448_RuntimeObjectPFvvEPK10MethodInfoPvPS4_
sYc:_UNITY_FT_Match_Size
bEd:_ColorBlock_Equals_m738243050
wz:__ZN7mecanim20CreateValueArrayMaskEPKNS_18ValueArrayConstantERNS_6memory9AllocatorE
wRj:_free
vHf:_NameObjectCollectionBase_GetEnumerator_m646294968
Nki:_Bounds_set_size_m4260584766_AdjustorThunk
dcd:__ZN11UnityEngine7Connect14AppUpdateEventC2Ev
iQa:__ZN12ImageFilters17RemoveImageFilterERK11ImageFilter
sUi:_AudioSettings_InvokeOnAudioConfigurationChanged_m4035594278
Nka:__ZN9GfxDevice31InsertCustomBlitCallbackAndDataEPFviPvER33UnityRenderingExtCustomBlitParams
MOb:__Z32AddPathRemapsForBuiltinResourcesRKN4core12basic_stringIcNS_20StringStorageDefaultIcEEEE
xBi:_HitInfo_SendMessage_m3395411273_AdjustorThunk
iBe:_DSAManaged_remove_KeyGenerated_m61544860
iyb:__ZL26Transfer_SimpleNativeClassI17RemapPPtrTransfer17AnimationCurveTplIfELb0EEvRK29SerializationCommandArgumentsR31RuntimeSerializationCommandInfo
kti:_KeyUsageExtension_Decode_m4115739726
sm:_glDeleteTransformFeedbacks
tf:_JS_WebRequest_Send
yGj:__ZN6il2cpp2os4Time31GetTicks100NanosecondsMonotonicEv
ZBj:__ZNSt3__26__treeINS_12basic_stringIcNS_11char_traitsIcEENS_9allocatorIcEEEENS_4lessIS6_EENS4_IS6_EEE16__construct_nodeIJRKS6_EEENS_10unique_ptrINS_11__tree_nodeIS6_PvEENS_22__tree_node_destructorINS4_ISH_EEEEEEDpOT_
S0d:_Stack_Clear_m771767447
DNe:_Int64_System_IConvertible_ToUInt16_m2638682734
Kyg:__ZL102ChannelServices_t2007814595_CustomAttributesCacheGenerator_ChannelServices_RegisterChannel_m3832858065P21CustomAttributesCache
Ydd:__ZN18UnityConnectClient32OnVrControllerStateChangedStaticEPS_13dynamic_arrayIN4core12basic_stringIcNS2_20StringStorageDefaultIcEEEELj4EE
ySj:__ZNK10__cxxabiv117__class_type_info24process_found_base_classEPNS_19__dynamic_cast_infoEPvi
h$i:_Nullable_1_Equals_m1889119397_AdjustorThunk
w0i:_CanvasRenderer_INTERNAL_CALL_SetColor_m1064368306
Ebj:__ZN6il2cpp2vm13MetadataCache21GetFieldInfoFromIndexEj
ONh:_Raycast2DCallback_BeginInvoke_m4219004388
qEj:__GLOBAL__sub_I_String_cpp
zX:__ZN5physx14PxLightCpuTaskD2Ev
rq:__ZNSt3__26vectorIN4core12basic_stringIcNS1_20StringStorageDefaultIcEEEENS_9allocatorIS5_EEE6assignINS_11__wrap_iterIPS5_EEEENS_9enable_ifIXaasr21__is_forward_iteratorIT_EE5valuesr16is_constructibleIS5_NS_15iterator_traitsISE_E9referenceEEE5valueEvE4typeESE_SE_
Lej:_il2cpp_init
U5c:__ZNSt3__26__treeIPN2UI14CanvasRendererENS_4lessIS3_EENS_9allocatorIS3_EEE7destroyEPNS_11__tree_nodeIS3_PvEE
sJc:__Z20b2TestSegmentSegmentRK6b2Vec2S1_S1_S1_RS_Rf
Y8g:__Z176RuntimeInvoker_Boolean_t3825574718_RuntimeObject_Int32U26_t455636984_Int32_t2071877448_Int32_t2071877448_Int32_t2071877448_RuntimeObject_SByte_t454417549_ContextU26_t3131521781PFvvEPK10MethodInfoPvPS4_
zja:__ZN13GfxDeviceGLES22UploadTextureSubData2DE9TextureIDPKhiiiiii14GraphicsFormat
hMi:_GUILayoutEntry__ctor_m3585399294
Kmc:__Z35Register_UnityEngine_Screen_get_dpiv
Mnj:__ZNK15dense_hashtableINSt3__24pairIK10KeyWrapperIPK14Il2CppAssemblyEPK22Il2CppMonoAssemblyNameEES6_N6il2cpp5utils11PointerHashIS4_EEN14dense_hash_mapIS6_SA_SF_NS6_14EqualsComparerINS0_8equal_toIS5_EEEENS0_9allocatorISB_EEE9SelectKeyESK_SM_E5beginEv
ZAc:__ZN8JSONRead8TransferIxEEvRT_PKc17TransferMetaFlagsb
kSc:__ZN13SpeedTreeWind7AdvanceEbd
XMe:_Int32_TryParse_m2941352213
vna:__ZN18GlslGpuProgramGLES19ApplyGpuProgramGLESERK20GpuProgramParametersPKh
iic:__ZN9Transform16SetLocalPositionERK8Vector3f
gKd:_LayoutGroup_GetTotalMinSize_m2600700952
U5b:__ZN10BootConfig4Data12InitFromFileEPPKcjS2_
nGb:__Z15Transfer_StringI18StreamedBinaryReadILb0EELb0EEvRK29SerializationCommandArgumentsR31RuntimeSerializationCommandInfo
iR:__ZN12SoundManagerC2Ev
YXc:_UNITY_tt_face_free_name
Tec:__ZN17TransformInternal24AddTransformSubhierarchyER18TransformHierarchyjS1_RjS2_yb
Kse:_Array_Sort_TisUICharInfo_t3056636800_m37864585_gshared
Ega:__ZN15dense_hashtableINSt3__24pairIKN4core12basic_stringIcNS2_20StringStorageDefaultIcEEEE10vector_setI4PPtrI11SpriteAtlasENS0_4lessISB_EE13stl_allocatorISB_L18MemLabelIdentifier81ELi16EEEEES6_20StringHash32FunctionIS6_EN14dense_hash_mapIS6_SH_SK_NS0_8equal_toIS6_EESE_ISI_LSF_81ELi16EEE9SelectKeyESN_SO_E4swapERSR_
c0j:_emscripten_glGetUniformfv__wrapper
dva:__ZN14DataBufferGLES3MapEjjj
I1h:_InternalEnumerator_1_System_Collections_IEnumerator_get_Current_m771161214_gshared
Jo:FUNCTION_TABLE_fidi
pab:__ZN14SpriteRenderer23VirtualRedirectTransferER19StreamedBinaryWriteILb0EE
q0j:_emscripten_glGetShaderiv__wrapper
$7b:__Z13RegisterClassI9TransformEvv
mZa:__ZN18UnityPropertySheet11UnityTexEnv8TransferI19StreamedBinaryWriteILb0EEEEvRT_
xNa:__ZNK6Camera33CalculateFarPlaneWorldSpaceLengthEv
D7h:_ResourceInfo_t3933049236_marshal_pinvoke_back
Vli:_Color_Lerp_m527444458
Blj:__ZNK15dense_hashtableINSt3__24pairIK10KeyWrapperINS1_IPK11Il2CppImageP11Il2CppClassEEEjEES9_17ReflectionMapHashIS8_EN14dense_hash_mapIS9_jSD_NS9_14EqualsComparerINS0_8equal_toIS8_EEEENS0_9allocatorISB_EEE9SelectKeyESI_SK_E5beginEv
Vej:_il2cpp_array_new
Vme:_Array_InternalArray__ICollection_Add_TisDictionaryEntry_t3048875398_m279246399_gshared
U9h:_ChannelServices_GetCurrentChannelInfo_m4080942430
zP:__ZN4FMOD3DSP8getInputEiPPS0_PPNS_13DSPConnectionE
DZe:_KeyValuePair_2_ToString_m2882821022_AdjustorThunk
cU:__ZN11SoundHandle8Instance13CreateChannelERS_b
B9a:__ZN10MeshFilter23VirtualRedirectTransferER17RemapPPtrTransfer
zWc:_ft_outline_glyph_bbox
oDi:_Transform_INTERNAL_set_rotation_m366775404
tO:__ZN13AudioListenerD2Ev
o4c:_UNITY_FT_Done_Library
FUh:_VertexHelper__cctor_m1150948588
B8c:__ZN2UI13CanvasManager17EmitDataForCameraEP6Camera
oMc:__Z16b2CollideCirclesP10b2ManifoldPK13b2CircleShapeRK11b2TransformS3_S6_
Yzh:_Transform_1_Invoke_m1111426439_gshared
Hne:_Array_InternalArray__ICollection_Add_TisContactPoint2D_t3659330976_m1781705858_gshared
opc:__Z44Register_UnityEngine_Material_GetTextureImplv
M$j:_glUniform3uiv__wrapper
OLb:__ZL8MainLoopv
mJ:__ZN15SerializeTraitsI9OffsetPtrIN7mecanim12statemachine26SelectorTransitionConstantEEE8TransferI24GenerateTypeTreeTransferEEvRS4_RT_
pdg:_Binder_ConvertArgs_m2999223281
Wgg:_TypeBuilder_IsDefined_m3186251655
gad:__Z47Register_UnityEngine_CanvasRenderer_SetMaterialv
Eai:_ConfigHandler_ValidatePath_m3188987489
Twa:__ZN15dense_hashtableINSt3__24pairIKPK17RenderSurfaceBaseP13RenderTextureEES4_19PointerHashFunctionIS4_EN14dense_hash_mapIS4_S7_SA_NS0_8equal_toIS4_EE13stl_allocatorIS8_L18MemLabelIdentifier67ELi16EEE9SelectKeyESD_SG_E12resize_deltaEjj
SDc:__ZN19CompositeCollider2D22QueryCompositeColliderEPK10Collider2DPK11Rigidbody2D
uYe:_NumberFormatter_get_IntegerDigits_m3972411141
Y9a:__ZThn32_N12MeshRendererD1Ev
AWa:__ZN13RenderTexture23VirtualRedirectTransferER19StreamedBinaryWriteILb0EE
qzh:_ShimEnumerator_MoveNext_m2728191736_gshared
wag:_UInt64_System_IConvertible_ToInt32_m930227577_AdjustorThunk
kFj:__ZN6il2cpp2vm13ComObjectBase17GetMarshalSizeMaxERK10Il2CppGuidPvjS5_jPj
xbc:__ZN9TransformC2E18MemLabelIdentifier18ObjectCreationMode
uRj:_truncate
Jmb:__ZN9ShaderLab27SerializedShaderVectorValue8TransferI18StreamedBinaryReadILb0EEEEvRT_
E2a:__ZN8Renderer21RendererBecameVisibleEv
iqf:_ReadOnlyCollection_1_System_Collections_Generic_ICollectionU3CTU3E_Clear_m2503787861_gshared
PQj:___stpncpy
agf:_Collection_1_System_Collections_IList_Add_m669232520_gshared
V8e:_List_1_RemoveAt_m1843849279_gshared
y4:__ZN10MemoryPool16StaticInitializeEPv
bfa:__ZN11TypeManager21CleanupGlobalInstanceEv
iMi:_LayoutCache__ctor_m3175562018
m8f:_TypedReference_GetHashCode_m3498861551_AdjustorThunk
N:Math_atan
nij:__ZNSt3__212basic_stringIcNS_11char_traitsIcEENS_9allocatorIcEEE6__initIPKcEENS_9enable_ifIXsr21__is_forward_iteratorIT_EE5valueEvE4typeESA_SA_
cO:__ZNK10SampleClip11GetResourceEv
PIa:__ZN4core12basic_stringIcNS_20StringStorageDefaultIcEEE6resizeEj
tuc:__Z43Register_UnityEngine_Event_set_displayIndexv
e4h:_InternalEnumerator_1_System_Collections_IEnumerator_get_Current_m2821735692_AdjustorThunk
pRc:__GLOBAL__sub_I_CmEventProfiler_cpp
zuf:_PrimalityTests_GetSPPRounds_m873706010
B1f:_StringBuilder_AppendLine_m1686706871
Trf:_ReadOnlyCollection_1_System_Collections_Generic_IListU3CTU3E_Insert_m584948331_gshared
VKa:__ZN17GlobalGameManager23VirtualRedirectTransferER24GenerateTypeTreeTransfer
pSe:_MemoryStream_ToArray_m547789004
Eed:__ZN19UnityConnectServiceD0Ev
Nie:_PlayableHandle_IsPlayableOfType_TisAnimatorControllerPlayable_t1744083903_m1628500864_gshared
DRe:_MonoIO_SetLength_m1019790894
qPb:__ZZ23InitPlayerLoopCallbacksvEN46EarlyUpdateUpdateAllUnityWebStreamsRegistrator7ForwardEv
gbg:_UIntPtr_ToString_m387842486
zRa:__ZNSt3__26vectorIfNS_9allocatorIfEEE8__appendEjRKf
Ocd:__ZN11UnityEngine15PlatformWrapper21GetCopyTextureSupportEv
kId:_Graphic_get_depth_m3526566553
eV:__ZN11AudioModule27IsFormatSupportedByPlatformEPKc
wZd:_CollectionBase_get_InnerList_m44314156
kde:_Enum_System_IConvertible_ToUInt32_m3575456858
AMa:__ZNSt3__26vectorI17SortingLayerEntryNS_9allocatorIS1_EEE6assignINS_11__wrap_iterIPS1_EEEENS_9enable_ifIXaasr21__is_forward_iteratorIT_EE5valuesr16is_constructibleIS1_NS_15iterator_traitsISA_E9referenceEEE5valueEvE4typeESA_SA_
ZNc:__Z14b2PairLessThanRK6b2PairS1_
_8:__ZN14SerializedFile14SerializedTypeD2Ev
zCc:__Z19TransferField_ArrayI8JSONRead16Converter_StringEvRK23StaticTransferFieldInfoR31RuntimeSerializationCommandInfoRT0_
kEc:__ZN15b2WheelJointDef10InitializeEP6b2BodyS1_RK6b2Vec2S4_
b_b:__Z19SetupShadowCullDataRK27ScriptableCullingParametersRK17ShaderReplaceDataPK22SceneCullingParametersf16ShadowProjectionR14ShadowCullData
REa:__ZNK25ThreadsafeLinearAllocator22GetAllocatedMemorySizeEv
F$c:_cff_size_request
q_a:__ZN15DirectorManager14ConnectionPool12SwitchBucketEP14ConnectionList
u7f:_Type_EqualsInternal_m266086934
g6c:__ZN2UI11CompareFuncEPNS_6CanvasES1_
oQ:__ZN4FMOD7Channel11set3DSpreadEf
NMj:__ZN6il2cpp2os6Memory14AlignedReAllocEPvjj
W:Math_fround
x$a:__ZN24GenerateTypeTreeTransfer16TransferTypelessEPjPKc17TransferMetaFlags
VSc:__ZN20TextRenderingPrivate8FontImpl8TransferI24GenerateTypeTreeTransferEEvRT_
Sjd:_HMACMD5__ctor_m3425004426
UDe:_SymmetricTransform_InternalTransformBlock_m55428483
kua:__ZL18ProgramUniform4uivPK7ApiGLESjiihPKv
TWe:_LongComparer_Compare_m398047722
wni:_Display_RelativeMouseAt_m2947428679
EJh:_EqualityComparer_1_System_Collections_IEqualityComparer_Equals_m2170611288_gshared
_Rd:_Attribute_CheckParameters_m1754681684
N1f:_UnicodeEncoding_GetByteCount_m2761661599
Bej:__ZN6il2cpp2vm7Runtime15InvokeWithThrowEPK10MethodInfoPvPS5_
Bkj:__ZN6il2cpp2gc19AppendOnlyGCHashMapINSt3__24pairIPK10MethodInfoP11Il2CppClassEEP22Il2CppReflectionMethod17ReflectionMapHashIS9_ENS2_8equal_toIS9_EEE3AddERKS9_SB_
wVa:__ZN10builtintex21GetAttenuationTextureEv
jn:FUNCTION_TABLE_viiiiiiiiiiiiiii
Jki:_Bounds_set_center_m1010418458_AdjustorThunk
ARh:_Selectable_TriggerAnimation_m3096883407
igc:__ZNK4Mesh19CanAccessFromScriptEv
i4:__Z15GetGraphicsCapsv
Yla:__ZN7ApiGLES15BindVertexArrayEN2gl6HandleILNS0_10ObjectTypeE3EEE
RHi:_UnityAction_1_BeginInvoke_m2825236457_gshared
Yfc:__ZN24CompressedAnimationCurve17CompressQuatCurveERN13AnimationClip15QuaternionCurveE
fz:__ZN17AnimationPlayable17GetAnimationClipsER13dynamic_arrayIP13AnimationClipLj4EE
QDb:__Z18Transfer_BlittableI18StreamedBinaryReadILb1EELb1ExEvRK29SerializationCommandArgumentsR31RuntimeSerializationCommandInfo
Pmj:__ZN30dense_hashtable_const_iteratorINSt3__24pairIK10KeyWrapperINS1_IPK9EventInfoP11Il2CppClassEEEjEES9_17ReflectionMapHashIS8_EN14dense_hash_mapIS9_jSD_NS9_14EqualsComparerINS0_8equal_toIS8_EEEENS0_9allocatorISB_EEE9SelectKeyESI_SK_EppEv
D6f:_TimeSpan_op_GreaterThan_m2202243191
$6b:__ZN18BackgroundJobQueue29ScheduleMainThreadJobInternalEPFvPvES0_
tMf:_X509Chain_IsSelfIssued_m2009755967
x6c:__ZN2UI11CanvasGroup23VirtualRedirectTransferER24GenerateTypeTreeTransfer
xtb:__Z18Transfer_BlittableI14SafeBinaryReadLb1EhEvRK29SerializationCommandArgumentsR31RuntimeSerializationCommandInfo
C7d:_DateTime_GetTimeMonotonic_m4135038456
hga:__ZNSt3__224__buffered_inplace_mergeIRNS_4lessIN4core12basic_stringIcNS2_20StringStorageDefaultIcEEEEEENS_11__wrap_iterIPS6_EEEEvT0_SC_SC_T_NS_15iterator_traitsISC_E15difference_typeESG_PNSF_10value_typeE
u1f:_StringBuilder_Append_m3636508479
Ivf:_MD4_Create_m3565183915
fc:invoke_viifff
r6:__Z22DestroyObjectHighLevelP6Objectb
eGc:__ZNK12b2MouseJoint10GetAnchorBEv
xUb:__Z26BeginRenderQueueExtractionR15RenderNodeQueuePK16RendererCullDataRK13CullingOutputPK12LODDataArray15ExtractionFlagsP18JobBatchDispatcher
iTc:__ZNK13TextRendering4Font10GetTextureEv
Vkd:_SymmetricAlgorithm_set_KeySize_m270664177
oj:_emscripten_glVertexAttrib3fv
D3g:__ZL49Shadow_t4269599528_CustomAttributesCacheGeneratorP21CustomAttributesCache
Nsj:__ZN6il2cpp6icalls8mscorlib6System9Threading6Thread16SetName_internalEP12Il2CppThreadP12Il2CppString
sj:_glBeginTransformFeedback
oSa:__ZN18JobBatchDispatcherC2E11JobPriorityi
KDc:__ZN23ColliderTilingExtension10IsTilingOnEv
rsc:__ZN8GUIStyle14GetBuiltinFontEv
rka:__ZN9GfxDevice13EndFrameStatsEv
Vac:__Z7Empty2DP9Texture2DPhiiii
BOe:_IntPtr_ToString_m1500137303_AdjustorThunk
tAd:_RaycasterManager__cctor_m3713028899
Qrj:__ZN6il2cpp6icalls8mscorlib6System7Runtime15InteropServices7Marshal19copy_from_unmanagedEiiP11Il2CppArrayi
c5e:_List_1_CheckCollection_m1228076404_gshared
qOi:_SymmetricTransform_ThrowBadPaddingException_m2553969731
sO:__ZL34StaticDestroyAudioCustomFilterRootPv
aIc:__ZN15dense_hashtableINSt3__24pairIKiiEEi21InstanceIDHashFunctorN14dense_hash_mapIiiS4_NS0_8equal_toIiEE13stl_allocatorIS3_L18MemLabelIdentifier37ELi16EEE9SelectKeyES7_SA_E12maybe_shrinkEv
Pxa:__ZN19ComputeShaderKernelD2Ev
vUf:_RemotingServices_GetProxyForRemoteObject_m3800812855
_5b:__ZN10systeminfo21GetTemporaryCachePathEv
O0f:_Encoding_GetBytes_m3820493744
Lif:_Collection_1_IsValidItem_m2164075061_gshared
hBf:_Context_DecodeProtocolCode_m4051353560
YZi:_TextGenerator_GetPreferredHeight_m2983948849
Oob:__ZN12ScriptMapper8TransferI14SafeBinaryReadEEvRT_
$Af:_Context_set_ClientWriteKey_m1137238126
Pzb:__Z18Transfer_BlittableI24GenerateTypeTreeTransferLb1E10Matrix4x4fEvRK29SerializationCommandArgumentsR31RuntimeSerializationCommandInfo
chi:_Expression_GetFixedWidth_m2900825908
JQi:_GenericEqualityComparer_1_Equals_m1663005117_gshared
jfg:_ILGenerator_Mono_GetCurrentOffset_m3553856682
Wyc:__ZN9JSONWrite8TransferI10Matrix4x4fEEvRT_PKc17TransferMetaFlags
Ppg:__ZL58Decimal_t724701077_CustomAttributesCacheGenerator_MinValueP21CustomAttributesCache
X0c:_cf2_hintmap_map
s0e:_Enumerator_VerifyState_m3639069574_AdjustorThunk
wyg:__ZL50_Module_t2144668161_CustomAttributesCacheGeneratorP21CustomAttributesCache
Awb:__ZN15SerializeTraitsI5RectTIfEE8TransferI14SafeBinaryReadEEvRS1_RT_
kFa:__ZNK14SerializedFile15GetTypeIfExistsEx
gqc:__Z41Register_UnityEngine_Texture_get_wrapModev
VUc:_UNITY_FT_Raccess_Get_DataOffsets
lOf:_X509Extension_CopyFrom_m2644634650
oec:__ZN14PlayableOutputC2EjP13PlayableGraph
S2a:__ZThn32_NK8Renderer11GetMaterialEi
Umb:__ZN9ShaderLab20SerializedSubProgram8TransferI19StreamedBinaryWriteILb0EEEEvRT_
CCg:__ZL118SecurityManager_t3191249573_CustomAttributesCacheGenerator_SecurityManager_t3191249573____SecurityEnabled_PropertyInfoP21CustomAttributesCache
F3e:_List_1_System_Collections_IList_Insert_m813883425_gshared
FGj:__ZN6il2cpp6icalls8mscorlib6System7Runtime15InteropServices8GCHandle15GetTargetHandleEP12Il2CppObjectii
i9h:_SafeHandle_Dispose_m3871883741
lk:_unsetenv
pha:__ZN9GfxDevice29GetMinimumNodesPerGraphicsJobEv
M8a:__ZN17BlendShapeChannel8TransferI24GenerateTypeTreeTransferEEvRT_
nfi:_Parser_NewParseException_m3909819299
vbd:__ZN22BaseUnityConnectClient12CloseServiceEv
rea:__ZN15DirectorManager17OnSampleFixedTimeEv
t$b:__ZNK13RendererScene21GetDynamicObjectCountEv
sBh:_Enumerator_System_Collections_IEnumerator_get_Current_m1805365227_AdjustorThunk
ZGj:_GC_is_black_listed
AMd:_InputField_set_caretSelectPositionInternal_m2063243072
vAb:__ZN24GenerateTypeTreeTransfer32TransferSTLStyleArrayWithElementI23ManagedObjectTransfererEEvRT_17TransferMetaFlags
i3h:_InternalEnumerator_1_System_Collections_IEnumerator_get_Current_m3043347404_AdjustorThunk
vCj:__ZN6il2cpp6icalls8mscorlib6System11Environment12get_PlatformEv
vRe:_WriteDelegate_BeginInvoke_m2985235908
X8d:_DateTimeOffset_get_Offset_m2335492074_AdjustorThunk
due:_Component_GetComponentsInChildren_TisRuntimeObject_m1992201622_gshared
HWc:_UNITY_FT_Destroy_Class_tt_driver_class
Mqc:__Z49Transform_CUSTOM_INTERNAL_CALL_TransformDirectionP12Il2CppObjectRK8Vector3fRS1_
lMe:_Int32_System_IConvertible_ToChar_m719315943_AdjustorThunk
Uv:__GLOBAL__sub_I_runtime_animation_0_cpp
ydi:_Match__ctor_m478172746
cqe:_Array_InternalArray__Insert_TisWorkRequest_t1154022482_m452198486_gshared
Nkc:__Z42Register_UnityEngine_Behaviour_get_enabledv
NVe:_Math_Pow_m3099781906
Zs:__ZN13AnimationClip9PPtrCurveC2ERKS0_
phj:__ZN6il2cpp2vm14TypeNameParser23ParseNestedTypeOptionalERi
yXe:_MonoType_ReorderParamArrayArguments_m979187413
stf:_BigInteger_ToString_m1842353154
xMj:__ZN6il2cpp2os13FastMutexImplC2Ev
xbd:__ZN22BaseUnityConnectClient14QueueCoreEventERN11UnityEngine15CloudWebService17CloudServiceEventEb
XXh:_InternalEnumerator_1_get_Current_m2882946014_gshared
yfb:__ZN30RuntimeInitializeOnLoadManager9ClassInfo8TransferI14SafeBinaryReadEEvRT_
N8h:_GCHandle_Equals_m170815541_AdjustorThunk
LXb:__ZL13RenderCastersiRK8Vector3fS1_RK13ShadowJobDataR17ShaderPassContextRKNSt3__26vectorI16ShadowCasterData13stl_allocatorIS9_L18MemLabelIdentifier2ELi16EEEERKNS8_I20ShadowCasterPartDataSA_ISG_LSB_2ELi16EEEERK15RenderNodeQueuebPKj
ml:_emscripten_glGetShaderInfoLog
Ild:_RIPEMD160Managed_Compress_m3844168032
p9d:_DBNull_System_IConvertible_ToInt32_m3596596664
_Le:_Int16_ToString_m1247017262_AdjustorThunk
AYc:_UNITY_ft_glyphslot_set_bitmap
qDc:__ZN14b2PolygonShape3SetEPK6b2Vec2i
s7:__ZN24GenerateTypeTreeTransfer18SetScriptingObjectE18ScriptingObjectPtri
CMe:_Int32_System_IConvertible_ToType_m573330549_AdjustorThunk
Ydg:_CustomAttributeTypedArgument_Equals_m1555989603
fDj:__ZN6il2cpp2os6ThreadC2EPNS0_10ThreadImplE
e6b:__ZN6prcoreL11inner_clearILj3EEEvPhjjj
jPa:__Z29FindReflectionProbeFromAnchorP9TransformRK4AABBRS1_RsS5_
Xfe:_CultureInfo_insert_into_shared_tables_m348522444
KQf:_Interval_Merge_m1170166798
XVf:_WellKnownServiceTypeEntry__ctor_m1109686429
P2c:_Read_CVT_Stretched
Jtj:__ZNSt3__212basic_stringIDsNS_11char_traitsIDsEENS_9allocatorIDsEEE7reserveEj
zdj:__ZN6il2cpp6icalls8mscorlib6System18CollectTypeMethodsINS_5utils10functional10TrueFilterEEEvP11Il2CppClassPKS7_jRKT_RNSt3__26vectorIPK10MethodInfoNSE_9allocatorISI_EEEERA65535_b
ocf:_Enumerator_get_Current_m2566716693_AdjustorThunk
XLb:__Z14SetPlayerPause11PlayerPauseb
lHd:_FontData_get_defaultFontData_m3296571046
_Fb:__ZN18StreamedBinaryReadILb1EE8TransferI13dynamic_arrayIfLj4EEEEvRT_PKc17TransferMetaFlags
Isi:_Object_Internal_CloneSingle_m1822942073
UMd:_InputField_InPlaceEditing_m1040314765
w5:__Z30scripting_stack_trace_info_for21ScriptingExceptionPtrR14StackTraceInfo
kWj:_glCompressedTexSubImage3D__wrapper
CTi:_AudioExtensionManager_AddSpatializerExtension_m1061433739
TVa:__ZN18ShadowMapJobHeaderD0Ev
$lj:__ZN15dense_hashtableINSt3__24pairIK10KeyWrapperINS1_IPK12PropertyInfoP11Il2CppClassEEEjEES9_17ReflectionMapHashIS8_EN14dense_hash_mapIS9_jSD_NS9_14EqualsComparerINS0_8equal_toIS8_EEEENS0_9allocatorISB_EEE9SelectKeyESI_SK_EC2ERKSN_j
JP:__ZN15AudioReverbZone7CleanupEv
_ga:__ZN10BufferGLESD0Ev
DLb:__Z20scripting_gc_disablev
O2h:_InternalEnumerator_1_System_Collections_IEnumerator_get_Current_m790514740_gshared
FTi:_AudioSettings_GetSpatializerPluginName_m698617843
Vqd:__Z9NullCheckPv
Sed:__ZN22UnityAnalyticsSettings8TransferI14SafeBinaryReadEEvRT_
vDc:__ZNK14b2PolygonShape9TestPointERK11b2TransformRK6b2Vec2
jqj:__ZN15dense_hashtableINSt3__24pairIK10KeyWrapperIP11Il2CppClassES4_EES5_N6il2cpp8metadata16SZArrayClassHashEN14dense_hash_mapIS5_S4_SA_NS5_14EqualsComparerINS9_19SZArrayClassCompareEEENS0_9allocatorIS7_EEE9SelectKeyESE_SG_EC2ERKSJ_j
aLc:__ZN22FindParticleCollisions22ProcessFoundCollisionsERKfRK13dynamic_arrayI15BatchedRaycastsLj4EERS2_I20BatchedRaycastResultLj4EERS2_I21BatchedColliderResultLj4EE
d1c:_cf2_hintmask_isNew
$Fb:__Z29Transfer_Blittable_ArrayFieldI18StreamedBinaryReadILb1EEfEvRT_R9ArrayInfoRK23StaticTransferFieldInfo
vpe:_Array_InternalArray__Insert_TisIntPtr_t_m3232864760_gshared
Fta:__ZN6prcoreL26RemapGenericIntegerToFloatI17TexFormatARGB888818TexFormatARGBFloatEEvPKNS_9InnerInfoE
SUi:__ZL24UnresolvedVirtualCall_10P12Il2CppObjectPK10MethodInfo
X_j:_emscripten_glCompressedTexSubImage2D__wrapper
H5d:_Convert_ToUInt16_m3265369225
Aid:_DSA_FromXmlString_m2141326025
wGj:__ZN6il2cpp6icalls8mscorlib6System7Runtime16CompilerServices14RuntimeHelpers15InitializeArrayEP11Il2CppArrayi
Xfd:__ZZN18UnityConnectClient23RegisterGlobalCallbacksEvEN46EarlyUpdateUnityConnectClientUpdateRegistrator7ForwardEv
XDh:_Dictionary_2_System_Collections_IDictionary_Remove_m2901901588_gshared
Spi:_Input_get_touchCount_m814531925
GNc:__ZN16b2ContactManager7CollideEv
Fcj:__ZN6il2cpp2vmL29SocketPollingThreadEntryPointEPv
axj:__ZN13Il2CppHashMapINSt3__24pairIPKcS3_EEi24NamespaceAndNamePairHash26NamespaceAndNamePairEqualsNS0_9allocatorINS1_IK10KeyWrapperIS4_EiEEEEEC2EjRKS5_RKS6_
D7d:_DateTime_GetNow_m1004310079
Q9g:__Z97RuntimeInvoker_Void_t1841601450_RuntimeObject_Int32_t2071877448_SByte_t454417549_SByte_t454417549PFvvEPK10MethodInfoPvPS4_
V8a:__ZN10Matrix4x4f8TransferI18StreamedBinaryReadILb0EEEEvRT_
RGi:_CachedInvokableCall_1_Invoke_m3335223860_gshared
XFf:_SslStreamBase_get_Length_m763159069
Jsf:_Comparison_1_Invoke_m4190993814_gshared
uT:__ZN4FMOD7Channel19getReverbPropertiesEP29FMOD_REVERB_CHANNELPROPERTIES
C4h:_InternalEnumerator_1_get_Current_m906360510_AdjustorThunk
zbe:_StackFrame_GetSecureFileName_m389986943
qWf:_FormatterConverter_ToInt16_m2774942580
kDd:_CanvasScaler_HandleConstantPixelSize_m229625308
L2:__GLOBAL__sub_I_platformdependent_webgl_source_0_cpp
G_b:__ZL23NormalizeRobustInternalRK8Vector3fRfS2_f
pDd:_CanvasUpdateRegistry_PerformUpdate_m2200492017
wwa:__ZNSt3__26vectorINS_4pairIyP17VertexDeclarationEENS_9allocatorIS4_EEE6insertENS_11__wrap_iterIPKS4_EERS9_
$Rc:__GLOBAL__sub_I_modules_terrain_public_2_cpp
h2f:_UTF32Encoding_GetCharCount_m3319809517
pdj:__ZN6il2cpp6icalls8mscorlib6System8MonoType13GetInterfacesEP20Il2CppReflectionType
y_:__ZN11UnityEngine15CloudWebService25WebRequestDownloadHandler7OnAbortEv
yV:__ZN9AudioClip16EnableLegacyModeEv
ZOb:__ZN23ManagedAttributeManager15InitializeClassEv
tDj:__ZN6il2cpp2os6Thread22SetNativeThreadCleanupEPFvPvE
pkc:__Z35Application_Get_Custom_PropPlatformv
_ej:_il2cpp_class_from_system_type
MCi:_TouchScreenKeyboard_Open_m4126304679
dn:FUNCTION_TABLE_vdd
uzb:__Z18Transfer_BlittableI24GenerateTypeTreeTransferLb1E10ColorRGBAfEvRK29SerializationCommandArgumentsR31RuntimeSerializationCommandInfo
Fsa:__ZN6prcoreL17RemapGenericFloatI18TexFormatRGBAFloat16TexFormatRGFloatEEvPKNS_9InnerInfoE
gxe:_MSCompatUnicodeTable_FillCJKCore_m1100372933
Qcj:__ZN6il2cpp6icalls8mscorlib6System8MonoType8get_NameEP20Il2CppReflectionType
Uvb:__ZNSt3__26vectorI10RectOffset13stl_allocatorIS1_L18MemLabelIdentifier1ELi16EEE8__appendEj
M2d:_DateTime_op_Inequality_m1607380213
sx:__ZN21AnimationClipPlayable22PrepareAnimationEventsEfR13dynamic_arrayI22AnimationClipEventInfoLj4EE
Ite:_Dictionary_2_Do_ICollectionCopyTo_TisRuntimeObject_m4050345195_gshared
Vge:_Array_InternalArray__ICollection_Contains_TisResourceCacheItem_t333236149_m1769941464_gshared
eHa:__ZN15dense_hashtableINSt3__24pairIKN4core12basic_stringIcNS2_20StringStorageDefaultIcEEEEP20ArchiveStorageReaderEES6_20StringHash32FunctionIS6_EN14dense_hash_mapIS6_S9_SC_NS0_8equal_toIS6_EE13stl_allocatorISA_L18MemLabelIdentifier55ELi16EEE9SelectKeyESF_SI_E9copy_fromERKSL_j
Dyj:__ZN14dense_hash_mapI10KeyWrapperIP12Il2CppObjectEN6il2cpp2gc9CachedCCWENS4_5utils11PointerHashIS1_EENS3_14EqualsComparerINSt3__28equal_toIS2_EEEENSB_9allocatorINSB_4pairIKS3_S6_EEEEE13set_empty_keyERSH_
Wo:FUNCTION_TABLE_ff
D6a:__ZNSt3__218__stable_sort_moveIRNS_4lessI4PPtrI11SpriteAtlasEEENS_11__wrap_iterIPS4_EEEEvT0_SA_T_NS_15iterator_traitsISA_E15difference_typeEPNSD_10value_typeE
Yo:FUNCTION_TABLE_fi
ewd:_BaseEventData_set_selectedObject_m2198139983
PD:__ZNSt3__227__insertion_sort_incompleteIRN11UnityEngine9Animation11BindingSortEPNS_4pairINS2_14GenericBindingEPNS2_10BoundIndexEEEEEbT0_SB_T_
INj:__ZN6il2cpp2vm16GenericContainer19GetGenericParameterEPK22Il2CppGenericContainert
CVd:_Char_System_IConvertible_ToSingle_m2547558725_AdjustorThunk
Pjg:_PropertyBuilder_GetSetMethod_m3440414495
uoi:_UnityEventBase_FindMethod_m3314394402
vd:_emscripten_glGetAttribLocation
xPb:__ZZ23InitPlayerLoopCallbacksvEN39PostLateUpdateResetInputAxisRegistrator7ForwardEv
lS:__ZN4FMOD12ChannelGroup14getParentGroupEPPS0_
gJ:__ZN7mecanim12statemachine20StateMachineConstant8TransferI24GenerateTypeTreeTransferEEvRT_
lEf:_SslClientStream_add_ServerCertValidation_m684653638
zd:_emscripten_set_blur_callback
gzi:_Rect_Contains_m846865666_AdjustorThunk
RLj:__GLOBAL__sub_I_MemoryMappedFile_cpp
wXj:___cxa_pure_virtual__wrapper
uqa:__ZNK14ImageReference9ClipImageEiiii
vYb:__ZN10Matrix4x4f30SetPositionAndOrthoNormalBasisERK8Vector3fS2_S2_S2_
eEa:__ZN5RectTIfE8TransferI24GenerateTypeTreeTransferEEvRT_
lkh:__Z87RuntimeInvoker_Void_t1841601450_RuntimeObject_Vector3_t2243707580_HitInfoU26_t216915145PFvvEPK10MethodInfoPvPS4_
rai:_CrossAppDomainSink__cctor_m1547233779
Dwe:_TableRange__ctor_m1944319286_AdjustorThunk
wSb:__ZN12FlareManager6UpdateEv
UXj:_glColorMask__wrapper
lyg:__ZL59_ConstructorInfo_t3269099341_CustomAttributesCacheGeneratorP21CustomAttributesCache
hFh:_Dictionary_2_ContainsKey_m1385349577_gshared
VEe:_X509CertificateEnumerator_MoveNext_m1031936092
tuj:__ZN6il2cpp6icalls8mscorlib6System4Type29GetGenericTypeDefinition_implEP20Il2CppReflectionType
Azf:_TlsStream__ctor_m2982031560
QKf:_X509EnhancedKeyUsageExtension__ctor_m4050164330
E1h:_InternalEnumerator_1_get_Current_m2198364332_AdjustorThunk
fdb:__ZN27GenericSlowGarbageCollector16ProcessReferenceEi
LUf:_RealProxy_InternalGetProxyType_m858618403
lee:_FieldAccessException__ctor_m1240495912
kji:_Uri_HexUnescapeMultiByte_m25670899
cDd:_CanvasScaler_set_dynamicPixelsPerUnit_m742632820
iQj:_fopen
BVc:__ZN20TextRenderingPrivate8FontImplD2Ev
h0:__ZN19CloudServiceHandler8SaveFileERKN4core12basic_stringIcNS0_20StringStorageDefaultIcEEEEPKvj
Mwd:_BaseInputModule_HandlePointerExitAndEnter_m1570886840
jOf:_X509EnhancedKeyUsageExtension_CopyFrom_m1426370958
OYj:_glFramebufferTexture2D__wrapper
NNj:__ZN6il2cpp6icalls8mscorlib6System7Runtime8Remoting7Proxies9RealProxy27InternalGetTransparentProxyEP12Il2CppObjectP12Il2CppString
D8e:_List_1_AddEnumerable_m1000825969_gshared
HBj:__ZN6il2cpp2vm6Method10IsInflatedEPK10MethodInfo
CGj:__ZNK6il2cpp8metadata14Il2CppTypeLessclEPK10Il2CppTypeS4_
wHj:_GC_remove_header
qfb:__ZNSt3__26vectorIi13stl_allocatorIiL18MemLabelIdentifier13ELi16EEE8__appendEj
ezi:_Rect_Contains_m3575749021_AdjustorThunk
BIe:_RegionInfo_GetHashCode_m1038358761
fxj:__ZN15dense_hashtableINSt3__24pairIK10KeyWrapperINS1_IPKcS4_EEEiEES6_24NamespaceAndNamePairHashN14dense_hash_mapIS6_iS9_NS6_14EqualsComparerI26NamespaceAndNamePairEqualsEENS0_9allocatorIS8_EEE9SelectKeyESD_SF_E14squash_deletedEv
ari:_Mathf_Lerp_m1928161522
Lai:_ConfigHandler_ReadCustomProviderData_m784203316
zMa:__ZNSt3__26vectorI17SortingLayerEntryNS_9allocatorIS1_EEE7reserveEj
wAf:_Context_set_MasterSecret_m1422386411
GCb:__Z19TransferField_ArrayI19StreamedBinaryWriteILb0EE27Converter_UnityEngineObjectEvRK23StaticTransferFieldInfoR31RuntimeSerializationCommandInfoRT0_
uHc:__ZN10ClipperLib7Clipper15AddLocalMinPolyEPNS_5TEdgeES2_RKNS_8IntPointE
Uwf:_RSAManaged_ToXmlString_m2606223477
vfi:_CharacterClass__ctor_m1318163925
toh:__Z150RuntimeInvoker_Void_t1841601450_Vector3_t2243707580_Color32_t874517518_Vector2_t2243707579_Vector2_t2243707579_Vector3_t2243707580_Vector4_t2243707581PFvvEPK10MethodInfoPvPS4_
hna:__Z16GetMSAALevelDesc9MSAALevel
aRb:__ZN8Renderer27EnsureTransformInfoUpToDateEv
Bfa:__ZN15dense_hashtableINSt3__24pairIKN4core12basic_stringIcNS2_20StringStorageDefaultIcEEEEP11AssetBundleEES6_20StringHash32FunctionIS6_EN14dense_hash_mapIS6_S9_SC_NS0_8equal_toIS6_EENS0_9allocatorISA_EEE9SelectKeyESF_SH_E9copy_fromERKSK_j
x1j:_emscripten_glFrontFace__wrapper
Na:invoke_fiffi
bMj:__ZN6il2cpp5utils6Memory6CallocEjj
q9:__ZN14SerializedFile14SerializedType8ReadTypeILb1EEEbibRPKhS3_Pi
JYj:_emscripten_glRenderbufferStorage__wrapper
e_a:__ZN8Playable7SetTimeEd
f5:__ZN13RuntimeStaticI12GraphicsCapsLb0EE16StaticInitializeEPv
D7a:__ZN9Texture3D17UploadToGfxDeviceEv
hAc:__Z18Transfer_BlittableI8JSONReadLb1E8Vector4fEvRK29SerializationCommandArgumentsR31RuntimeSerializationCommandInfo
$Yc:_tt_cmap2_validate
cDf:_HttpsClientStream_U3CHttpsClientStreamU3Em__1_m4293802471
K1c:_cff_cmap_unicode_done
VLe:_NumberFormatter_Init_m1515770916
Jhi:_Literal_Compile_m3864266818
uph:__Z72RuntimeInvoker_Boolean_t3825574718_CharU26_t1894467670_Int16_t4041245914PFvvEPK10MethodInfoPvPS4_
Bv:__ZN7mecanim5human9HumanGoal8TransferI19StreamedBinaryWriteILb0EEEEvRT_
tLb:__ZN9Scripting20SendScriptingMessageER10GameObjectPKc18ScriptingObjectPtr
TLb:__Z26IsSplashScreenFadeCompletev
kUa:__Z17SendMessageDirectR6ObjectRK17MessageIdentifierR11MessageData
WMd:_InputField_LateUpdate_m1045279070
olc:__Z42Register_UnityEngine_Camera_get_clearFlagsv
nRc:__Z56Register_UnityEngine_Collision2D_CreateCollisionContactsv
rdj:__ZNSt3__26__treeIP11Il2CppClassNS_4lessIS2_EENS_9allocatorIS2_EEED2Ev
lEh:_Dictionary_2_InitArrays_m852496598_gshared
lZh:_InternalEnumerator_1_get_Current_m1389169756_gshared
o1f:_StringBuilder_set_Chars_m1019094834
Q1i:_Physics2D_Raycast_m2247349452
K2b:__ZN13RenderManager27UpdatePreviousFrameMatricesEv
RDb:__Z35Transfer_Blittable_FixedBufferFieldI18StreamedBinaryReadILb1EExEvRK29SerializationCommandArgumentsR31RuntimeSerializationCommandInfo
QJ:__ZN18StreamedBinaryReadILb0EE21TransferSTLStyleArrayI22OffsetPtrArrayTransferI9OffsetPtrIN7mecanim9animation17BlendTreeConstantEEEEEvRT_17TransferMetaFlags
EUd:_Byte_System_IConvertible_ToUInt64_m2667486567
jba:__Z22SetManagerPtrInContextiP6Object
aeb:__ZN14PlayerSettings8TransferI19StreamedBinaryWriteILb0EEEEvRT_
Tzc:__Z18Transfer_BlittableI8JSONReadLb0E10ColorRGBAfEvRK29SerializationCommandArgumentsR31RuntimeSerializationCommandInfo
pjf:_Collection_1_Remove_m2017992820_gshared
spe:_Array_InternalArray__Insert_TisInt16_t4041245914_m371511339_gshared
Beg:_ConstructorBuilder_get_next_table_index_m932085784
XCh:_ValueCollection_System_Collections_ICollection_get_SyncRoot_m919209341_gshared
A9i:__ZN15dense_hashtableINSt3__24pairIK10KeyWrapperIN6il2cpp5utils13dynamic_arrayIPK10Il2CppTypeLj4EEEEPFvvEEESA_NS3_8metadata19Il2CppSignatureHashEN14dense_hash_mapISA_SD_SG_NSA_14EqualsComparerINSF_22Il2CppSignatureCompareEEENS0_9allocatorISE_EEE9SelectKeyESK_SM_E14squash_deletedEv
xSh:_Slider_UpdateDrag_m1963963631
BZf:_SByte_Equals_m755715567
oda:__ZN15DirectorManagerD2Ev
Hxe:_SortKeyBuffer_AppendNormal_m2554296431
$9b:__ZNK30SpriteRendererAnimationBinding15GenerateBindingERKN4core12basic_stringIcNS0_20StringStorageDefaultIcEEEEbRN11UnityEngine9Animation14GenericBindingE
bkh:__Z87RuntimeInvoker_Void_t1841601450_Int32_t2071877448_Single_t2076509932_Single_t2076509932PFvvEPK10MethodInfoPvPS4_
cwj:__ZN6il2cpp6icalls8mscorlib6System13Globalization11CultureInfo45construct_internal_locale_from_current_localeEP17Il2CppCultureInfo
R$g:__ZL70InputField_t1631627530_CustomAttributesCacheGenerator_m_CaretBlinkRateP21CustomAttributesCache
nle:_Array_IndexOf_TisCustomAttributeNamedArgument_t94157543_m2205974312_gshared
hya:__ZN15TextureTFMethod16BindForRenderingEj
phe:_Array_InternalArray__ICollection_Contains_TisUICharInfo_t3056636800_m2001435744_gshared
xHh:_DefaultComparer_GetHashCode_m3250641461_gshared
fPf:_Key_ToString_m1129871742
wRd:_Array_Sort_m1417611156
BQj:_access
C7g:__Z59RuntimeInvoker_RuntimeObject_RuntimeObject_Int64_t909078037PFvvEPK10MethodInfoPvPS4_
xwj:__ZN15dense_hashtableINSt3__24pairIK10KeyWrapperINS1_IPKcS4_EEEiEES6_24NamespaceAndNamePairHashN14dense_hash_mapIS6_iS9_NS6_14EqualsComparerI26NamespaceAndNamePairEqualsEENS0_9allocatorIS8_EEE9SelectKeyESD_SF_E4findERS7_
Tii:_Uri_Merge_m2181117222
eTc:__ZN20TextRenderingPrivate8FontImpl13CharacterInfo8TransferI19StreamedBinaryWriteILb0EEEEvRT_
Ibj:__ZN6il2cpp2os19SocketHandleWrapper7ReleaseEv
AFd:_DefaultControls_CreateRawImage_m2572997170
X5f:_TimeSpan_get_TotalDays_m3496775483_AdjustorThunk
Tcb:__ZNSt3__27__sort4IRNS_6__lessINS_4pairIPKN5Unity4TypeE7Hash128EES8_EEPS8_EEjT0_SC_SC_SC_T_
vEa:__ZNK11NamedObject22GetTypeVirtualInternalEv
G4f:_Thread_Start_m1419497481
sI:__ZN14SafeBinaryRead21TransferSTLStyleArrayI22OffsetPtrArrayTransferIKN4math7_float3EEEEvRT_17TransferMetaFlags
TEi:_Vector3_set_Item_m2026854946
Qkh:__Z94RuntimeInvoker_Void_t1841601450_RuntimeObject_PlayableGraph_t1041204988_RuntimeObject_IntPtr_tPFvvEPK10MethodInfoPvPS4_
Pue:_Array_InternalArray__get_Item_TisDictionaryEntry_t3048875398_m2371191320_gshared
U_g:__ZL62FontData_t2614388407_CustomAttributesCacheGenerator_m_RichTextP21CustomAttributesCache
H9g:__Z65RuntimeInvoker_Double_t4078015681_RuntimeObject_Int32_t2071877448PFvvEPK10MethodInfoPvPS4_
$Wh:_InternalEnumerator_1_get_Current_m2351441486_gshared
_Ah:_Enumerator_System_Collections_IEnumerator_Reset_m1146954164_AdjustorThunk
Wtc:__ZN11IMGUIModule21QueryGUIDisplayTargetE17ScriptingClassPtr
Gic:__ZN11UTF16StringC2ERKS_18MemLabelIdentifier
D8i:__ZNSt3__27__sort4IRN6il2cpp5utils11collections13ArrayValueMapIPK10Il2CppType17Il2CppInteropData26InteropDataToTypeConverterNS1_8metadata14Il2CppTypeLessENSA_26Il2CppTypeEqualityComparerEE12SortComparerEPS8_EEjT0_SH_SH_SH_T_
NTj:dynCall_vidi
Oof:_ReadOnlyCollection_1_System_Collections_IList_Remove_m2350545199_gshared
xTj:___udivdi3
zic:__ZN11PlayerPrefs9SetStringERKN4core12basic_stringIcNS0_20StringStorageDefaultIcEEEES6_
bNi:_GUILayoutGroup_ToString_m3992339043
mKj:__ZN6il2cpp6icalls8mscorlib6System8Delegate18SetMulticastInvokeEP14Il2CppDelegate
KLc:__ZL18b2FindIncidentEdgeP12b2ClipVertexPK14b2PolygonShapeRK11b2TransformiS3_S6_
VOd:_LayoutGroup_get_minHeight_m2270010946
i_:__ZN11UnityEngine15CloudWebService20WebRequestRestClient5BeginEv
hvf:_ARC4Managed_GenerateIV_m2815460576
_Ei:_Vector3_get_normalized_m1057036856_AdjustorThunk
vrd:_String_Substring_m2032624251
rcc:__ZN8Material12CleanupClassEv
y7d:_DateTime_get_DayOfWeek_m2345429939_AdjustorThunk
A7f:_Type_GetTypeCode_m1044483454
O7h:_ResourceSet_GetObjectInternal_m3556256510
Ryb:__Z22TransferField_NonArrayI17RemapPPtrTransfer27Converter_SimpleNativeClassI10RectOffsetEEvRK23StaticTransferFieldInfoR31RuntimeSerializationCommandInfoRT0_
O2d:_DateTimeOffset__ctor_m2870721395
yT:__ZN20SoundChannelInstance11set3DSpreadEf
ED:__ZNSt3__26__sortIRN11UnityEngine9Animation11BindingSortEPNS_4pairINS2_14GenericBindingEPNS2_10BoundIndexEEEEEvT0_SB_T_
rud:_String_ReplaceFallback_m64616664
_mg:_MonoMethod_GetCustomAttributes_m2493833930
Sdb:__ZN24GenerateTypeTreeTransfer32TransferSTLStyleArrayWithElementI16SplashScreenLogoEEvRT_17TransferMetaFlags
ujj:__ZN15dense_hashtableINSt3__24pairIK10KeyWrapperINS1_IPK9FieldInfoP11Il2CppClassEEEjEES9_17ReflectionMapHashIS8_EN14dense_hash_mapIS9_jSD_NS9_14EqualsComparerINS0_8equal_toIS8_EEEENS0_9allocatorISB_EEE9SelectKeyESI_SK_E6insertERKSB_
I6i:__ZN14dense_hash_mapI10KeyWrapperIPKcEP11Il2CppClassN6il2cpp5utils11StringUtils12StringHasherIS2_EENS3_14EqualsComparerINS7_13VmStringUtils21CaseSensitiveComparerEEENSt3__29allocatorINSF_4pairIKS3_S5_EEEEEC2EjRKSA_RKSE_
rAi:_Vector2_get_one_m542290559
rMe:_Int32_System_IConvertible_ToDouble_m3322226667_AdjustorThunk
Qoe:_Array_InternalArray__ICollection_CopyTo_TisPlayableBinding_t2498078091_m2296273826_gshared
qca:__Z37InitializeIntermediateRendererManagerPv
OGj:_GC_log_printf
f_i:_Comparison_1_BeginInvoke_m4224593217_gshared
WZf:_CodeAccessPermission_ToString_m3345031296
gAj:__ZN6il2cpp2vm6Object5UnboxEP12Il2CppObject
sIf:_FtpWebRequest__ctor_m3003551676
$Ce:_EncryptedPrivateKeyInfo__ctor_m832236482
c5:__ZN23DefaultMeshVertexFormatC2E17ShaderChannelMask
kEb:__ZL26Transfer_SimpleNativeClassI18StreamedBinaryReadILb1EE8GradientLb1EEvRK29SerializationCommandArgumentsR31RuntimeSerializationCommandInfo
Dsd:_Single_Equals_m3359827399
Yr:__ZN13AnimationClip16DecompressCurvesERNSt3__26vectorI24CompressedAnimationCurve13stl_allocatorIS2_L18MemLabelIdentifier26ELi16EEEE
q4f:_Thread_FreeLocalSlotValues_m2948667652
Oma:__ZN7ApiGLES10InvalidateERK14GfxContextGLES
IAe:_ASN1Convert_ToOid_m2695991795
V3c:_UNITY_FT_Init_Class_tt_service_truetype_glyf
tqi:_ManagedStreamHelpers_ValidateLoadFromStream_m733853519
uMj:__ZN6il2cpp2os5Mutex7TryLockEjb
k4:__Z20IsVectorBuiltinParamPKcPi
Fzj:__ZN6il2cpp2vm5Field8GetFlagsEP9FieldInfo
VSg:__ZL95Rigidbody2D_t502193897_CustomAttributesCacheGenerator_Rigidbody2D_AddForce_m4059537452____mode1P21CustomAttributesCache
S0h:_InternalEnumerator_1_get_Current_m727737343_AdjustorThunk
rsj:__ZN6il2cpp6icalls8mscorlib6System10ReflectionL16LoadResourceFileEP24Il2CppReflectionAssembly
R8:__Z13IsFileCreatedRKN4core12basic_stringIcNS_20StringStorageDefaultIcEEEE
yLj:__ZN6il2cpp6icalls8mscorlib6System21CurrentSystemTimeZone15GetTimeZoneDataEiPP11Il2CppArrayS6_
hUi:_AudioExtensionManager_GetListenerSpatializerExtensionType_m3668710088
L1a:__ZN16LightmapSettings18TransferDeprecatedI14SafeBinaryReadEEvRT_
Abb:__ZN8Renderer11SetMaterialE4PPtrI8MaterialEi
qzj:__ZN15dense_hashtableINSt3__24pairIK10KeyWrapperIP12Il2CppObjectEN6il2cpp2gc9CachedCCWEEES5_NS7_5utils11PointerHashIS3_EEN14dense_hash_mapIS5_S9_SD_NS5_14EqualsComparerINS0_8equal_toIS4_EEEENS0_9allocatorISA_EEE9SelectKeyESI_SK_E5eraseE30dense_hashtable_const_iteratorISA_S5_SD_SM_SI_SK_E
Xsd:_String__cctor_m710226597
f2:__GLOBAL__sub_I_runtime_camera_renderloops_1_cpp
Ukf:_Collection_1_IsValidItem_m404831699_gshared
w6f:_TimeSpan_Negate_m4198463235_AdjustorThunk
xRa:__ZN12FlareManager9AddCameraER6Camera
pU:__ZN11AudioSource8TransferI14SafeBinaryReadEEvRT_
sgc:__ZN4Mesh17SetIndicesComplexEPKvjj16GfxPrimitiveTypei
iog:_ParameterInfo_GetCustomAttributes_m2985072480
mjf:_Collection_1_Insert_m4010554762_gshared
Qy:__ZN7mecanim9animation23TransformDeltasFromClipEiiiRKNS0_18ClipMuscleConstantERKNS0_12ClipBindingsERKNS_14ValueArrayMaskERN4math4trsXESC_SC_
tse:_Array_Sort_TisRuntimeObject_m1954851512_gshared
_Gb:__Z18Transfer_BlittableI18StreamedBinaryReadILb0EELb0E12PropertyNameEvRK29SerializationCommandArgumentsR31RuntimeSerializationCommandInfo
As:__ZN14SafeBinaryRead21TransferSTLStyleArrayI22OffsetPtrArrayTransferIfEEEvRT_17TransferMetaFlags
XGc:__ZTv0_n12_N10ClipperLib7ClipperD0Ev
gci:_ContextAttribute_GetHashCode_m3646968314
Axe:_SimpleCollator_GetSortKey_m540875593
lnb:__ZN9ShaderLab9IntShader26CreateFromSerializedShaderERKNS_16SerializedShaderERNSt3__26vectorI4PPtrI6ShaderENS4_9allocatorIS8_EEEEbPS7_
sli:_Camera_INTERNAL_CALL_ScreenPointToRay_m305063597
uRb:__ZN19ShaderPropertySheet16SetComputeBufferEN9ShaderLab16FastPropertyNameE15ComputeBufferIDNS_8SetFlagsE
RDj:__ZNK15dense_hashtableINSt3__24pairIK10KeyWrapperIPK19Il2CppGenericMethodEP10MethodInfoEES6_N6il2cpp8metadata23Il2CppGenericMethodHashEN14dense_hash_mapIS6_S9_SD_NS6_14EqualsComparerINSC_26Il2CppGenericMethodCompareEEENS0_9allocatorISA_EEE9SelectKeyESH_SJ_E5beginEv
Uy:__ZN7mecanim21CreateFloatValueArrayEPKNS_18ValueArrayConstantERNS_6memory9AllocatorE
t4f:_Thread_GetCachedCurrentCulture_m450033007
L$b:__ZL12CullGroupJobP20CullingGroupsJobDataj
UHj:_GC_remove_dangling_disappearing_links
Y_:__ZN11UnityEngine15CloudWebService14RestDownloader9IsAbortedEv
_B:__ZN7mecanim12statemachine28DestroyStateMachineWorkspaceEPNS0_21StateMachineWorkspaceERNS_6memory9AllocatorE
Pk:_emscripten_glNormalPointer
Muc:__Z30GUIStyle_CUSTOM_SetDefaultFontP12Il2CppObject
qQf:_Interval_t2354235237_marshal_pinvoke_back
mo:FUNCTION_TABLE_f
_Ri:_zombie_SelfDestory_m685548534
$o:FUNCTION_TABLE_i
Mae:_Decimal_ToString_m541380585_AdjustorThunk
gfa:__ZN11TypeManager12RegisterTypeERK20TypeRegistrationDesc
En:FUNCTION_TABLE_v
A8a:__ZNSt3__26vectorI17BlendShapeChannelNS_9allocatorIS1_EEE8__appendEj
mKd:_Image_get_preserveAspect_m2161836851
aK:__ZN19StreamedBinaryWriteILb0EE19TransferSTLStyleMapINSt3__23mapIjN4core12basic_stringIcNS4_20StringStorageDefaultIcEEEENS2_4lessIjEENS2_9allocatorINS2_4pairIKjS8_EEEEEEEEvRT_17TransferMetaFlags
Jp:__ZN18StreamedBinaryReadILb0EE21TransferSTLStyleArrayI13dynamic_arrayI8Vector3fLj4EEEEvRT_17TransferMetaFlags
DPb:__ZZ23InitPlayerLoopCallbacksvEN43PostLateUpdateUpdateAllRenderersRegistrator7ForwardEv
jhb:__ZN21LightProbeProxyVolume13GetRenderDataER27LightProbeProxyVolumeSample
A6d:_CurrentSystemTimeZone_GetDaylightChanges_m2777828412
Iej:__ZN6il2cpp2vm7Runtime30CallUnhandledExceptionDelegateEP12Il2CppDomainP14Il2CppDelegateP15Il2CppException
fGi:_Predicate_1_Invoke_m577088274_gshared
DDi:_Transform_SetParent_m1020583764
SUf:_RemotingProxy_get_TypeName_m1400928020
zcb:__ZN11TimeManager8TransferI24GenerateTypeTreeTransferEEvRT_
Fxe:_SortKeyBuffer_GetResult_m962852575
mxe:_SimpleCollator_Category_m1504096908
er:__ZNK11UnityEngine9Animation28GenericAnimationBindingCache10BindCustomERKNS0_14GenericBindingER9TransformRNS0_10BoundCurveE
Nhj:__ZN6il2cpp2vm17TypeNameParseInfoC2ERKS1_
zed:__ZN18UnityConnectClient17InitConnectClientEv
_Vh:_ArrayReadOnlyList_1_ReadOnlyError_m2158247090_gshared
XOj:_memcmp
Q7d:_DateTime_CompareTo_m3372173896
add:__ZN11UnityEngine7Connect18ConnectSessionInfo8TransferER9JSONWrite
ksi:_MonoBehaviour_StopCoroutine_Auto_m2947240387
Kli:_Color__ctor_m3831565866
hX:__Z74Register_UnityEngine_AudioListener_INTERNAL_CALL_ReadExtensionPropertyNamev
Ebb:__ZN9Scripting32GetCachedPtrFromScriptingWrapperE18ScriptingObjectPtr
$7c:__ZN2UI29ScheduleUIJobsForInstructionsERNS_7BatchesEjPKNS_13UIInstructionEfjjPNS_13CanvasJobDataE
dS:__ZN5audio5mixer22CreateAudioMixerMemoryERKNS0_18AudioMixerConstantEPN4FMOD6SystemERN7mecanim6memory9AllocatorEib
UJb:__ZL65EmitSerializationCommandsForLinearCollectionOfManagedObjectsFieldRK31TransferFunctionScriptingTraitsRK23TransferArrayField_InfoR20SerializationCommandR32SerializationCommandQueueBuilderRP20AllowNameConversions
WDf:_RSASslSignatureDeformatter_VerifySignature_m3138484348
koe:_Array_InternalArray__ICollection_CopyTo_TisDecimal_t724701077_m1087621311_gshared
Myh:_Enumerator_System_Collections_IDictionaryEnumerator_get_Value_m2325383168_AdjustorThunk
Y4d:_Convert_ToInt64_m4280008532
noc:__Z28Mesh_CUSTOM_SetTrianglesImplP12Il2CppObjectiP11Il2CppArrayih
x0g:__ZL61RawImage_t2749640213_CustomAttributesCacheGenerator_m_TextureP21CustomAttributesCache
DNb:__ZL20ShaderWarmupFuncImplP6ShaderiPN9ShaderLab4PassERK16ShaderKeywordSetP10DynamicVBOPvR17ShaderPassContext
Gjd:_HMAC_set_Key_m1530357889
u8i:__ZN15dense_hashtableI10KeyWrapperIPK17Il2CppGenericInstES4_N6il2cpp8metadata21Il2CppGenericInstHashEN14dense_hash_setIS4_S7_NS4_14EqualsComparerINS6_24Il2CppGenericInstCompareEEENSt3__29allocatorIS4_EEE8IdentityESB_SE_E6insertERKS4_
Mij:__ZN15dense_hashtableINSt3__24pairIK10KeyWrapperINS1_IPK14Il2CppAssemblyP11Il2CppClassEEEjEES9_17ReflectionMapHashIS8_EN14dense_hash_mapIS9_jSD_NS9_14EqualsComparerINS0_8equal_toIS8_EEEENS0_9allocatorISB_EEE9SelectKeyESI_SK_E3endEv
JVj:dynCall_iiii
nOh:_Scrollbar_set_numberOfSteps_m579707524
hed:__ZN11UnityEngine7Connect17DeviceStatusEventC2Ev
fPj:_fmt_u
Mna:__ZN14DataBufferGLES12RecordUpdateEv
a7h:_ResourceManager__cctor_m2190112652
tUc:__ZN20TextRenderingPrivate15DynamicFontData28GetFaceForFontRefFromOSFontsERKNS_7FontRefE
JTe:_StreamWriter__ctor_m4232641237
iAj:__ZN6il2cpp2vm12GenericClass12SetupMethodsEP11Il2CppClass
Lrb:__ZNK20LocalFileSystemPosix18GetApplicationPathEv
w3d:_Decimal__ctor_m3876694886
RJb:__ZN9Scripting30IsSystemCollectionsGenericListE17ScriptingClassPtr
hSd:_AttributeUsageAttribute__ctor_m2873156923
s8c:__ZN2UI23InitializeCanvasManagerEv
_Ka:__ZN10GameObject16CheckConsistencyEv
qac:__ZN14RenderSettings15InitializeClassEv
wKf:_AsnEncodedData_set_Oid_m3568255745
rmc:__Z46Register_UnityEngine_GameObject_get_activeSelfv
KEf:_SslClientStream_OnRemoteCertificateValidation2_m3416857045
WYf:_RuntimeTypeHandle_Equals_m452760426_AdjustorThunk
Aac:__ZL19OnLightProbesUpdatev
S4h:_InternalEnumerator_1_System_Collections_IEnumerator_get_Current_m762846484_AdjustorThunk
tzb:__Z18Transfer_BlittableI24GenerateTypeTreeTransferLb0E10ColorRGBAfEvRK29SerializationCommandArgumentsR31RuntimeSerializationCommandInfo
p6b:__ZN14SpriteRenderer13GetRenderDataEv
cUj:dynCall_iifii
_6c:__ZN2UI16GetCanvasManagerEv
Mif:_Collection_1_ConvertItem_m3057301945_gshared
Pmc:__Z31RectOffset_Get_Custom_PropRightP12Il2CppObject
v5c:__Z54Register_UnityEngine_TextGenerator_GetVerticesInternalv
_kd:__Z3BoxP11Il2CppClassPv
Efe:_CultureInfo_Clone_m2970753766
LPf:_IntStack_Push_m1259764820
mya:__ZN21UniformBufferTFMethodD2Ev
rQe:_FileStream_InitBuffer_m2153931481
c8f:_Type_MakeGenericType_m2765875033
bjc:__ZL34GetComponentsImplementationRecurseILb1ELi1ELi2EEbR10GameObjectbRK17CompareParametersRK39GetComponentsImplementation_ReturnValue
yra:__ZN6prcoreL12RemapGenericI15TexFormatRGB56515TexFormatRGB888EEvPKNS_9InnerInfoE
gNd:_InputField_OnEndDrag_m1818224847
VKe:_NumberFormatter_GetInstance_m2421260460
Qve:_AttributeHelperEngine_GetCustomAttributeOfType_TisRuntimeObject_m2532320824_gshared
z9c:__Z41CanvasGroup_Get_Custom_PropBlocksRaycastsP12Il2CppObject
Bjb:__ZNSt3__26vectorIN9ShaderLab26SerializedShaderDependencyENS_9allocatorIS2_EEE8__appendEj
K_h:_InternalEnumerator_1_System_Collections_IEnumerator_get_Current_m4242639349_gshared
Jaa:__ZN32TransformHierarchyChangeDispatch26DispatchSelfAndAllChildrenE15TransformAccessNS_12InterestTypeE
lX:__Z46Register_UnityEngine_AudioSource_get_isPlayingv
x0f:_UTF32Encoding__ctor_m3199945978
Hba:__ZN13RuntimeStaticI22VirtualJoystickManagerLb0EE13StaticDestroyEPv
HO:__ZN13AudioListener12ApplyFiltersEv
KIe:_SortKey_GetHashCode_m2534654444
Kge:_Array_InternalArray__ICollection_Contains_TisInt64_t909078037_m1425723755_gshared
wBf:_HandshakeMessage_Update_m1733566706
qMj:__ZN6il2cpp8metadata27Il2CppGenericContextCompare7CompareEPK20Il2CppGenericContextS4_
PUj:dynCall_viiii
PXd:_ArrayListWrapper_ToArray_m235921330
Zkg:_MemberInfoSerializationHolder_Serialize_m4243060728
OLi:_GUIUtility_Internal_GetGUIDepth_m2168931083
jMh:_MaskableGraphic_OnDisable_m2605143092
Rhj:__ZNSt3__214__split_bufferIN6il2cpp2vm17TypeNameParseInfoERNS_9allocatorIS3_EEED2Ev
V7f:_Type_GetConstructor_m663514781
qNe:_Int64_System_IConvertible_ToDouble_m638786774_AdjustorThunk
uea:__ZN15DirectorManager14ConnectionPool16GrowEmptyBucketsEv
SKe:_Int16_ToString_m1247017262
A6:__ZN17PersistentManager32CopyToAwakeFromLoadQueueInternalER18AwakeFromLoadQueue
EIc:__ZN10Collider2D23VirtualRedirectTransferER24GenerateTypeTreeTransfer
fVb:__ZNK6Camera16SetActiveVRUsageEv
M9f:_UInt32_System_IConvertible_ToUInt16_m2798641702
aZj:_emscripten_glDrawElementsInstanced__wrapper
xAc:__ZL26Transfer_SimpleNativeClassI8JSONRead8GradientLb1EEvRK29SerializationCommandArgumentsR31RuntimeSerializationCommandInfo
zPj:_open
pad:__Z64Register_UnityEngine_CanvasRenderer_CreateUIVertexStreamInternalv
KOc:__ZN6b2Body7SetTypeE10b2BodyType
Urj:__ZN6il2cpp6icalls8mscorlib6System5Array5CloneEP11Il2CppArray
R2b:__Z30GetPlayerShouldRunInBackgroundv
H4h:_InternalEnumerator_1_get_Current_m2986222582_gshared
S1f:_UnicodeEncoding_GetBytes_m4175529985
L8c:__Z13RegisterClassIN2UI6CanvasEEvv
yOh:_Selectable_OnDisable_m2660228016
sra:__ZN6prcoreL12RemapGenericI11TexFormatI815TexFormatRGB565EEvPKNS_9InnerInfoE
Veh:__Z75RuntimeInvoker_DateTime_t693205669_DateTime_t693205669_TimeSpan_t3430258949PFvvEPK10MethodInfoPvPS4_
Uma:__ZNK13TranslateGLES17FramebufferTargetEN2gl17FramebufferTargetE
xCj:__ZL11on_gc_event11GCEventType
Mqj:__ZNSt3__214__split_bufferIN6il2cpp8metadata18GenericArrayMethodERNS_9allocatorIS3_EEED2Ev
Trd:_Single_System_IConvertible_ToBoolean_m2661548087_AdjustorThunk
NMc:__ZNSt3__27__sort5IR31RayHitsByInverseDepthComparitorP12RaycastHit2DEEjT0_S5_S5_S5_S5_T_
cjd:_DSASignatureDeformatter_VerifySignature_m4078616251
PXj:b62
OXj:b61
NXj:b60
fZj:b67
jme:_Array_InternalArray__IndexOf_TisUInt16_t986882611_m390127593_gshared
oLd:_InputField_set_shouldHideMobileInput_m2478534110
NYj:b64
Eud:_String_Concat_m3881798623
gZj:b68
ghg:_FieldBuilder_IsDefined_m2730324893
wGg:__ZL56FlagsAttribute_t859561169_CustomAttributesCacheGeneratorP21CustomAttributesCache
SQa:__ZNSt3__26__treeINS_12__value_typeIi17ShadowCachingDataEENS_19__map_value_compareIiS3_NS_4lessIiEELb1EEE13stl_allocatorIS3_L18MemLabelIdentifier66ELi16EEE7destroyEPNS_11__tree_nodeIS3_PvEE
gih:__Z102RuntimeInvoker_RuntimeObject_RuntimeObject_RuntimeObject_Int32_t2071877448_RuntimeObject_RuntimeObjectPFvvEPK10MethodInfoPvPS4_
dsf:_ReadOnlyCollection_1_System_Collections_IList_Insert_m571902768_gshared
kdh:__Z93RuntimeInvoker_Single_t2076509932_SingleU26_t4173844468_Single_t2076509932_Single_t2076509932PFvvEPK10MethodInfoPvPS4_
RUj:dynCall_iifffi
Wgc:__Z9SetIIMGUIP6IIMGUI
V$d:_SyncHashtable_ContainsKey_m3408601214
RIc:__ZN17CapsuleCollider2D23VirtualRedirectTransferER14SafeBinaryRead
rZc:_tt_cmap10_get_info
sMb:__Z28SetupPixelCorrectCoordinatesi
Oec:__ZNSt3__218__insertion_sort_3IRN10vector_mapIiiNS_4lessIiEE13stl_allocatorINS_4pairIiiEEL18MemLabelIdentifier1ELi16EEE13value_compareEPS6_EEvT0_SD_T_
mna:__Z5SplitRKN4core12basic_stringIcNS_20StringStorageDefaultIcEEEEcRNSt3__26vectorIS3_NS6_9allocatorIS3_EEEEi
eii:_RegularExpression_Compile_m3944989565
G4i:__ZN6il2cpp2vmL10InitLockedEP11Il2CppClassRKNS_2os12FastAutoLockE
p7:__ZN17ScriptingGCHandle28ResolveBackendNativeGCHandleEj
she:_Array_InternalArray__ICollection_Contains_TisWorkRequest_t1154022482_m865286315_gshared
lec:__ZN13PlayableGraph16DestroyRecursiveEP8Playable
TJ:__ZN15SerializeTraitsI9OffsetPtrIN7mecanim9animation19Blend1dDataConstantEEE8TransferI18StreamedBinaryReadILb0EEEEvRS4_RT_
Src:__ZNK19RectangleCellLayout11CellToLocalERKN4Grid9GridStateERKN4math7_float3E
Sbe:_Double_System_IConvertible_ToType_m4036266196_AdjustorThunk
SO:__ZN12AudioManagerD0Ev
dPj:___fwritex
Xb:invoke_viiififii
lRe:_Stream_EndRead_m2148943753
hdb:__ZNK22GenericPropertyBinding13SetFloatValueERKN11UnityEngine9Animation10BoundCurveEf
hac:__ZN6ShaderC2E18MemLabelIdentifier18ObjectCreationMode
hSj:__ZNSt3__211char_traitsIcE4findEPKcjRS2_
f4c:_raccess_guess_darwin_ufs_export
Vxf:_CipherSuite_get_ExpandedKeyMaterialSize_m296573450
WOb:__ZN11TypeManager18InitializeAllTypesEv
PM:__ZN9AudioClipD0Ev
KHi:_InvokableCall_3_Invoke_m2530072389_gshared
Hhe:_Array_InternalArray__ICollection_Remove_TisKeyValuePair_2_t38854645_m3060436673_gshared
W4e:_List_1_Find_m3480386930_gshared
_Ih:_EqualityComparer_1__cctor_m51007461_gshared
HA:__ZN27AnimationLayerMixerPlayable26ProcessAnimationLayerBeginEP35AnimationPlayableEvaluationConstantP32AnimationPlayableEvaluationInputP33AnimationPlayableEvaluationOutput
A7b:__Z13RegisterClassI8GUILayerEvv
N5b:__ZN25ThreadsafeLinearAllocatorC2EiiPKc
_xe:_SimpleCollator_IsSuffix_m740049399
tva:__ZN14GfxContextGLES11MakeCurrentER7ApiGLESN2gl13ContextHandleE
eui:_PKCS12__cctor_m3312759338
I2c:_UNITY_tt_glyphzone_new
Gzf:_RecordProtocol_BeginSendRecord_m166940611
WWe:_ShortComparer_Compare_m1398180168
qZi:_TextGenerationSettings_CompareColors_m2745847049_AdjustorThunk
YBg:__ZL56SecurityAction_t446643378_CustomAttributesCacheGeneratorP21CustomAttributesCache
BNb:__ZN16GraphicsSettings22WarmupPreloadedShadersEv
Mad:__Z34Canvas_Set_Custom_PropSortingOrderP12Il2CppObjecti
xSe:_MonoIO_get_ConsoleError_m592181393
SHb:__ZN18StreamedBinaryReadILb0EE8TransferI13dynamic_arrayI12PropertyNameLj4EEEEvRT_PKc17TransferMetaFlags
Enb:__ZN9ShaderLab4Pass6RetainEv
F2i:__ZL11decimalLog2P19il2cpp_decimal_repr
fEf:_SslCipherSuite_prf_m2084589217
cb:invoke_iiiiiiffiiiiiiiiiffffiii
Z5c:__ZN2UI6Canvas8TransferI14SafeBinaryReadEEvRT_
bI:__ZN38StateMachineBehaviourVectorDescription8TransferI14SafeBinaryReadEEvRT_
hkh:__Z51RuntimeInvoker_Color32_t874517518_Color_t2020392075PFvvEPK10MethodInfoPvPS4_
Wjj:__ZN6il2cpp2gc19AppendOnlyGCHashMapIPK10Il2CppTypeP20Il2CppReflectionTypeNS_8metadata14Il2CppTypeHashENS7_26Il2CppTypeEqualityComparerEE3AddERKS4_S6_
cY:__ZN11UnityEngine15CloudWebService17CloudJobScheduler11ScheduleJobEPFvPvES2_
sSg:__ZL57CSSMeasureFunc_t2092170507_CustomAttributesCacheGeneratorP21CustomAttributesCache
zJe:_Guid_Equals_m2389236871_AdjustorThunk
lZ:__ZN11UnityEngine15CloudWebService17CloudServiceEvent12ToJsonStringER9JSONWrite
ica:__ZNK18VertexChannelsInfoltERKS_
JCg:__ZL93ASCIIEncoding_t3022927988_CustomAttributesCacheGenerator_ASCIIEncoding_GetDecoder_m3693600923P21CustomAttributesCache
wwc:__ZN9JSONWrite8TransferIfEEvRT_PKc17TransferMetaFlags
uEd:_ContentSizeFitter_SetLayoutHorizontal_m2830034151
fJa:__ZN10MemoryFileD0Ev
Sic:__ZN10MonoScript27InitializeAndRegisterScriptERKN4core12basic_stringIcNS0_20StringStorageDefaultIcEEEES6_S6_S6_b
J_f:_DES_set_Key_m2689203108
kQb:__Z23DrawSplashAndWatermarksv
DXh:_InternalEnumerator_1_get_Current_m1526874475_gshared
Mve:_Array_InternalArray__get_Item_TisWorkRequest_t1154022482_m2456727038_gshared
wti:_SubjectAltNameExtension_ToString_m1300810903
zDe:_RSAManaged_ImportParameters_m2382611442
uvb:__ZN13GUIStyleState8TransferI14SafeBinaryReadEEvRT_
r6h:_Comparer_1_System_Collections_IComparer_Compare_m2490067344_gshared
mei:_PatternCompiler_EmitSet_m866698437
Qd:_glDrawArrays
K0i:_CanvasRenderer_SetAlphaTexture_m1030438445
Dnf:_ReadOnlyCollection_1_System_Collections_IList_Add_m527174473_gshared
_Zh:_InternalEnumerator_1_System_Collections_IEnumerator_get_Current_m127456009_AdjustorThunk
mRi:_HashSet_1_System_Collections_Generic_ICollectionU3CTU3E_CopyTo_m1933244740_gshared
mDg:__ZL54UTF8Encoding_t111055448_CustomAttributesCacheGeneratorP21CustomAttributesCache
PK:__ZN23AnimatedPropertyBuilder5BuildEP13AnimationClip18ScriptingObjectPtr
xPd:_LayoutRebuilder_LayoutComplete_m498127808
hne:_Array_InternalArray__ICollection_Add_TisInt32_t2071877448_m1775306598_gshared
Ahe:_Array_InternalArray__ICollection_Remove_TisChar_t3454481338_m1562002771_gshared
mNe:_Int64_System_IConvertible_ToDateTime_m1002280174_AdjustorThunk
Q8a:__ZN14BlendShapeData8TransferI18StreamedBinaryReadILb0EEEEvRT_
ONj:__ZN6il2cpp6icalls8mscorlib6System7Runtime8Remoting7Proxies9RealProxy20InternalGetProxyTypeEP12Il2CppObject
MRb:__ZN13sorted_vectorINSt3__24pairIiN17InstancedPropInfo12PropertyTypeEEEN10vector_mapIiS3_NS0_4lessIiEE13stl_allocatorIS4_L18MemLabelIdentifier1ELi16EEE13value_compareESA_E21sort_clear_duplicatesEv
W2c:_Round_To_Grid
BUc:_UNITY_FT_Stream_Close
TRj:__ZNSt3__212basic_stringIcNS_11char_traitsIcEENS_9allocatorIcEEEC2ERKS5_jjRKS4_
$fa:__ZL20FormatOrderedProcessPKcP17FormatOrderedDataPc
SH:__ZNK18AnimatorController13GetBehavioursEv
Nlc:__Z35DebugLogHandler_CUSTOM_Internal_Log7LogTypeP12Il2CppStringP12Il2CppObject
jsi:_MonoBehaviour_StopCoroutine_m606332095
$Yj:_emscripten_glShaderBinary__wrapper
nua:__ZL17ProgramUniform3ivPK7ApiGLESjiihPKv
dja:__ZN9GfxDevice25GetBackBufferColorSurfaceEv
yJa:__ZN25SingleBlockMemoryFileData9SetLengthEy
_ec:__Z29AwakeAndActivateClonedObjectsPP6ObjectRK10vector_mapIiiNSt3__24lessIiEE13stl_allocatorINS3_4pairIiiEEL18MemLabelIdentifier1ELi16EEE
Goj:__ZN15dense_hashtableINSt3__24pairIK10KeyWrapperINS1_IPK10MethodInfoP11Il2CppClassEEEjEES9_17ReflectionMapHashIS8_EN14dense_hash_mapIS9_jSD_NS9_14EqualsComparerINS0_8equal_toIS8_EEEENS0_9allocatorISB_EEE9SelectKeyESI_SK_E14squash_deletedEv
pmh:__Z55RuntimeInvoker_Void_t1841601450_RaycastResult_t21186376PFvvEPK10MethodInfoPvPS4_
R7b:__Z13RegisterClassI6ShaderEvv
rKe:_Int16_System_IConvertible_ToUInt32_m883204517
u7h:_ResourceCacheItem_t333236149_marshal_pinvoke_cleanup
e2e:_List_1_CheckMatch_m1196994270_gshared
oid:__ZN13RuntimeStaticI11WindManagerLb0EE13StaticDestroyEPv
d6d:_Convert_ToUInt64_m3559662221
Rxc:__Z18Transfer_BlittableI9JSONWriteLb1EaEvRK29SerializationCommandArgumentsR31RuntimeSerializationCommandInfo
Boj:__ZN13Il2CppHashMapINSt3__24pairIPK10MethodInfoP11Il2CppClassEEj17ReflectionMapHashIS7_ENS0_8equal_toIS7_EENS0_9allocatorINS1_IK10KeyWrapperIS7_EjEEEEEC2EjRKS9_RKSB_
dVb:__ZN11HaloManager11HasAnyHalosEPK11CullResults
EWd:_ArrayList_set_Item_m1858827078
q7a:__ZN9Texture3D23VirtualRedirectTransferER19StreamedBinaryWriteILb0EE
pIj:_GC_reclaim_block
qvf:_HMAC__ctor_m2605930831
WV:__Z13RegisterClassI10SampleClipEvv
ILc:__Z23b2CollideRadialPolygonsP10b2ManifoldPK14b2PolygonShapeRK11b2TransformS3_S6_
_Xb:__ZNK23ForwardShaderRenderLoop18RenderObjectSorterILb1EEclERK21ForwardRenderPassDataS4_
W9i:__ZN15dense_hashtableI10KeyWrapperIPK19Il2CppGenericMethodES4_N6il2cpp8metadata23Il2CppGenericMethodHashEN14dense_hash_setIS4_S7_NS4_14EqualsComparerINS6_26Il2CppGenericMethodCompareEEENSt3__29allocatorIS4_EEE8IdentityESB_SE_E12maybe_shrinkEv
dza:__ZN10BufferGLES10BeginWriteEjj
V9i:__ZNK15dense_hashtableI10KeyWrapperIPK19Il2CppGenericMethodES4_N6il2cpp8metadata23Il2CppGenericMethodHashEN14dense_hash_setIS4_S7_NS4_14EqualsComparerINS6_26Il2CppGenericMethodCompareEEENSt3__29allocatorIS4_EEE8IdentityESB_SE_E12test_deletedEj
XE:__ZN7mecanim12statemachine18StateMachineMemory8TransferI9BlobWriteEEvRT_
Cod:_ToBase64Transform_Dispose_m1132043687
Apj:__GLOBAL__sub_I_ArrayMetadata_cpp
jag:_UInt64_System_IConvertible_ToByte_m953298241
cza:__ZN7ApiGLES11FlushBufferEjN2gl12BufferTargetEll
m6d:_Convert_ToUInt64_m1896191125
qwb:__ZN14SafeBinaryRead21TransferSTLStyleArrayI13dynamic_arrayI8BitFieldLj4EEEEvRT_17TransferMetaFlags
Lva:__ZN12_GLOBAL__N_127PrepareReadback_ResolveMSAAER18GfxFramebufferGLESR7ApiGLESP17RenderSurfaceGLESS5_
ogg:_EnumBuilder_GetAttributeFlagsImpl_m4263246832
alh:__Z98RuntimeInvoker_RaycastHit2D_t4063908774_Vector2_t2243707579_Vector2_t2243707579_Single_t2076509932PFvvEPK10MethodInfoPvPS4_
_dg:_CustomAttributeData_GetHashCode_m3989739430
ETh:_Text_AssignDefaultFont_m1295571657
Vbc:__ZNK24RendererAnimationBinding9BindValueER6ObjectRKN11UnityEngine9Animation14GenericBindingERNS3_10BoundCurveE
Pe:_glBindBuffer
DHb:__ZN8GUIStyle8TransferI18StreamedBinaryReadILb0EEEEvRT_
Sca:__ZNSt3__213__stable_sortIRN10vector_mapIijNS_4lessIiEENS_9allocatorINS_4pairIijEEEEE13value_compareENS_11__wrap_iterIPS6_EEEEvT0_SE_T_NS_15iterator_traitsISE_E15difference_typeEPNSH_10value_typeEi
lne:_Array_InternalArray__ICollection_Add_TisCustomAttributeNamedArgument_t94157543_m1003067274_gshared
_db:__ZN10VRSettings8Daydream8TransferI18StreamedBinaryReadILb0EEEEvRT_
dpb:__ZNSt3__218__insertion_sort_3IRNS_6__lessIN4core12basic_stringIcNS2_20StringStorageDefaultIcEEEES6_EEPS6_EEvT0_SA_T_
H$e:_Enumerator_System_Collections_IEnumerator_Reset_m925111644_gshared
nQ:__ZN4FMOD7Channel13set3DPanLevelEf
KOj:_isupper
Vih:__Z93RuntimeInvoker_Vector3_t2243707580_Vector3_t2243707580_Vector3_t2243707580_Single_t2076509932PFvvEPK10MethodInfoPvPS4_
Wcg:_AssemblyName__ctor_m609734316
V$f:_Encoding_set_DecoderFallback_m2255528738
zYa:__ZNSt3__26__treeINS_12__value_typeIN9ShaderLab16FastPropertyNameEN18UnityPropertySheet11UnityTexEnvEEENS_19__map_value_compareIS3_S6_NS_4lessIS3_EELb1EEENS_9allocatorIS6_EEE7destroyEPNS_11__tree_nodeIS6_PvEE
Ar:__ZN13AnimationClip17MainThreadCleanupEv
lFf:_InternalAsyncResult_get_IsCompleted_m1463732458
fbj:__ZN6il2cpp2vm13MetadataCache24GetExportedTypeFromIndexEi
mXb:__ZN26LightProbeProxyVolumeCacheC2ER13BatchRendererR15RenderLoopStats
$vc:__ZN5Unity9rapidjson6WriterI16TempBufferWriterNS0_4UTF8IcEES4_13JSONAllocatorE9WriteUintEj
qRj:_getuid
QJd:_HorizontalLayoutGroup_CalculateLayoutInputVertical_m3516192138
AL:__ZN7mecanim5human8BoneNameEj
MHi:_InvokableCall_4__ctor_m2170162585_gshared
f8b:__Z13RegisterClassI10MonoScriptEvv
ACe:_AttrListImpl__ctor_m3211398293
pHi:_InvokableCall_1_Invoke_m417090952_gshared
ZSc:__ZN20TextRenderingPrivate8FontImpl8TransferI18StreamedBinaryReadILb0EEEEvRT_
n1f:_StringBuilder_get_Chars_m256627635
ywi:_UnityString_Format_m328130606
Ocj:__ZN6il2cpp6icalls8mscorlib6System8MonoType22get_IsGenericParameterEP20Il2CppReflectionType
dy:__ZN7mecanim5human14HumanPoseClearERNS0_9HumanPoseE
lAi:_RectTransform_GetLocalCorners_m3824854770
zPe:_MonoIO_GetException_m957022672
bZa:__ZN18StreamedBinaryReadILb0EE19TransferSTLStyleMapINSt3__23mapIN9ShaderLab16FastPropertyNameE10ColorRGBAfNS2_4lessIS5_EENS2_9allocatorINS2_4pairIKS5_S6_EEEEEEEEvRT_17TransferMetaFlags
OBi:_Sprite_get_border_m1504762991
YLf:_X509Certificate2_GetValueAsString_m1286925493
eWd:_Char_ToLower_m2719897546
dre:_Array_InternalArray__set_Item_TisHitInfo_t1761367055_m2693590376_gshared
eu:__ZN24GenerateTypeTreeTransfer21TransferSTLStyleArrayINSt3__26vectorIN13AnimationClip9PPtrCurveE13stl_allocatorIS4_L18MemLabelIdentifier26ELi16EEEEEEvRT_17TransferMetaFlags
uXe:_MonoType_IsPointerImpl_m648213545
MHe:_InvalidOperationException__ctor_m2801133788
J2b:__ZN13RenderManager28AreCamerasUsingMotionVectorsEv
Vba:__Z25InitializeLODGroupManagerPv
pla:__ZN13GfxDeviceGLES12EndStereoEyeE15StereoscopicEye
fDd:_CanvasScaler_SetScaleFactor_m3305903109
Ene:_Array_InternalArray__ICollection_Add_TisUriScheme_t1876590943_m3218110478_gshared
cSb:__ZNK12ImageFilters28ApplyAfterTransparentFiltersEv
YWb:__Z20CalculateLightMatrixRK15SharedLightDataP10Matrix4x4f
Tdd:__ZN11UnityEngine7Connect15AppRunningEvent12ToJsonStringER9JSONWrite
LZa:__ZN19ShaderPropertySheet5ClearEb
gCf:_TlsServerCertificate_ProcessAsTls1_m3083203628
bof:_ReadOnlyCollection_1_System_Collections_Generic_IListU3CTU3E_set_Item_m1099846173_gshared
CSb:__ZNK6Camera11GetPositionEv
zw:__ZN8Animator19CreatePlayableGraphEv
G0j:_emscripten_glClearDepth__wrapper
n5d:_Convert_ToSByte_m1880147062
msb:__ZNK16MemoryFileSystem8FilenameERK13FileEntryData
Tf:_glUniform1fv
Xf:_JS_FileSystem_Sync
Fkd:_MD5CryptoServiceProvider_HashCore_m2367253552
Zla:__ZNSt3__26__treeINS_12__value_typeI21GLESRenderTargetSetupN2gl6HandleILNS3_10ObjectTypeE9EEEEENS_19__map_value_compareIS2_S7_NS_4lessIS2_EELb1EEENS_9allocatorIS7_EEE7destroyEPNS_11__tree_nodeIS7_PvEE
svi:_X509StoreManager_get_TrustedRootCertificates_m122138510
HQc:__ZN11Rigidbody2D11SetVelocityERK8Vector2f
Pva:__ZN4gles15BlitFramebufferERNS_23BlitFramebufferDrawQuadER9GfxDeviceii9TextureIDiiiiiiii
Vf:__emscripten_sample_gamepad_data
q9b:__Z22DelayedDestroyCallbackP6ObjectPv
mZj:_glBlendEquationSeparate__wrapper
kJd:_GraphicRegistry__cctor_m4197769737
hPc:__ZN15b2ContactFilter13ShouldCollideEP9b2FixtureS1_
C8:__Z34scripting_class_get_declaring_type17ScriptingClassPtr
ped:__ZN11UnityEngine7Connect20BasePersistentValues13RestoreValuesER8JSONRead
Lwf:_KeyGeneratedEventHandler_Invoke_m1298576133
FNd:_InputField_Rebuild_m3481959062
ocb:__ZN11TimeManagerD0Ev
__:__ZN11UnityEngine15CloudWebService18RestFileDownloader10InitializeERKN4core12basic_stringIcNS2_20StringStorageDefaultIcEEEE
BS:__ZN12AudioManager33GetAudioEffectInternalDefinitionsEv
I0a:__ZN9Texture2D16DeleteGfxTextureEv
grb:__ZN20LocalFileSystemPosix4OpenER13FileEntryData14FilePermission16FileAutoBehavior
kvf:_KeyBuilder_get_Rng_m2539978716
qTi:_AudioClip_InvokePCMSetPositionCallback_Internal_m1220105088
kue:_BaseInvokableCall_ThrowOnInvalidArg_TisVector2_t2243707579_m879131569_gshared
d9i:__ZN15dense_hashtableINSt3__24pairIK10KeyWrapperIN6il2cpp5utils13dynamic_arrayIPK10Il2CppTypeLj4EEEEPFvvEEESA_NS3_8metadata19Il2CppSignatureHashEN14dense_hash_mapISA_SD_SG_NSA_14EqualsComparerINSF_22Il2CppSignatureCompareEEENS0_9allocatorISE_EEE9SelectKeyESK_SM_ED2Ev
O5c:__ZN2UI6Canvas12AddToManagerEv
hYc:_UNITY_tt_face_load_sbit
Gec:__Z37GetTransformFromComponentOrGameObjectP6Object
nzh:_ShimEnumerator_get_Current_m2516732679_gshared
U0c:_cf2_hint_isTop
M1b:__ZN23ManagedAttributeManager21GetRequiredComponentsE17ScriptingClassPtr
C3b:__Z23InitializeStdConvertersv
jt:__ZNSt3__26vectorIN13AnimationClip10FloatCurveE13stl_allocatorIS2_L18MemLabelIdentifier26ELi16EEE7reserveEj
qgf:_Collection_1_Contains_m3292349561_gshared
LKd:_Image_SetNativeSize_m3580044470
_Wb:__ZN19ShaderPropertySheet17UpdateTextureInfoEiRK23FastTexturePropertyNamePK10TextureRef
l$c:_ps_unicodes_init
wPb:__ZZ23InitPlayerLoopCallbacksvEN38PreUpdateCheckTexFieldInputRegistrator7ForwardEv
Cwj:__ZNK10KeyWrapperINSt3__24pairIPKcS3_EEE14EqualsComparerI26NamespaceAndNamePairEqualsEclERKS5_SA_
EJb:__ZN13MonoBehaviour17StopAllCoroutinesEv
rca:__Z34CleanupIntermediateRendererManagerPv
XEe:_X509CertificateEnumerator__ctor_m1500464146
j7f:_Type_get_IsPointer_m3832342327
iuj:__ZN6il2cpp2vm9Exception27GetExecutionEngineExceptionEPKc
TEh:_Dictionary_2_System_Collections_ICollection_CopyTo_m2784181332_gshared
ih:_JS_WebRequest_GetResponseHeaders
YKb:__ZNSt3__26__treeINS_12__value_typeI26SerializedObjectIdentifieriEENS_19__map_value_compareIS2_S3_NS_4lessIS2_EELb1EEENS_9allocatorIS3_EEE7destroyEPNS_11__tree_nodeIS3_PvEE
HXc:_UNITY_FT_Create_Class_tt_cmap_classes
Yij:__ZN15dense_hashtableINSt3__24pairIK10KeyWrapperINS1_IPK14Il2CppAssemblyP11Il2CppClassEEEjEES9_17ReflectionMapHashIS8_EN14dense_hash_mapIS9_jSD_NS9_14EqualsComparerINS0_8equal_toIS8_EEEENS0_9allocatorISB_EEE9SelectKeyESI_SK_EC2ERKSN_j
Lic:__ZN9Scripting18RaiseNullExceptionEPKcz
jof:_ReadOnlyCollection_1_System_Collections_IList_Insert_m2659121605_gshared
Gea:__ZN13RuntimeStaticI13RendererSceneLb0EE16StaticInitializeEPv
FPc:__ZZN10Collider2D15InitializeClassEvEN28FunctorImpl_100kSetPolygon2D4CallEPviR11MessageData
th:_glCreateProgram
gnj:__ZN6il2cpp2vm10Reflection7IsFieldEP12Il2CppObject
Uoe:_Array_InternalArray__ICollection_CopyTo_TisContentType_t1028629049_m330597634_gshared
lYd:_SimpleEnumerator_Reset_m3524591211
HMa:__ZN24GenerateTypeTreeTransfer32TransferSTLStyleArrayWithElementI17SortingLayerEntryEEvRT_17TransferMetaFlags
fYj:_glUniformMatrix3fv__wrapper
VRa:__ZN5Light9SetupHaloEv
gEb:__Z18Transfer_BlittableI18StreamedBinaryReadILb1EELb1E12PropertyNameEvRK29SerializationCommandArgumentsR31RuntimeSerializationCommandInfo
Drd:_SecurityFrame__ctor_m3738328608_AdjustorThunk
boj:__ZN15dense_hashtableINSt3__24pairIK10KeyWrapperIPK22Il2CppGenericParameterEPK24MonoGenericParameterInfoEES6_N6il2cpp5utils11PointerHashIS4_EEN14dense_hash_mapIS6_SA_SF_NS6_14EqualsComparerINS0_8equal_toIS5_EEEENS0_9allocatorISB_EEE9SelectKeyESK_SM_EC2ERKSP_j
E4:__ZN23TransformChangeDispatch12CleanupClassEPv
Vhc:__ZN8UserList11SendMessageERK17MessageIdentifier
Dad:__Z33Canvas_Get_Custom_PropScaleFactorP12Il2CppObject
pG:__ZNK26AnimatorControllerPlayable21GetStateMachineMemoryEi
sqd:_EvidenceEnumerator_get_Current_m632582639
l_b:__Z15CullLocalLightsR8JobFenceS0_RK22SceneCullingParametersiPK8Vector4fRK13dynamic_arrayIhLj1EER9IndexListSC_PfP5RectTIfEP13TargetEyeMaskPPK5LightRK14ShadowCullData
Pvd:_DecoderFallback_get_ReplacementFallback_m2155645318
RPa:__ZNK6Camera16GetTargetTextureEv
mhd:__ZNK20UnityWebRequestProtoI24UnityWebRequestTransport16AtomicRefCounter14RedirectHelper14ResponseHelper15DownloadHandler13UploadHandler12HeaderHelper14AsyncOperationE17GetUploadProgressEv
q3d:_Convert_ToDateTime_m3528521877
Jvb:__Z35Transfer_Blittable_SingleValueFieldI14SafeBinaryReadyEvRT_R17GeneralMonoObjectRK23StaticTransferFieldInfo
o_a:__ZN8Playable20ClearInputConnectionEi
r2i:_Rigidbody2D_INTERNAL_CALL_AddForce_m3401256999
FTb:__ZN13BatchRenderer12EndLoopFlushEv
Sce:_Enum_System_IConvertible_ToChar_m1838232954
Tee:_CultureInfo_CreateTextInfo_m2269397562
EQd:_Array_SetValue_m2469980129
Sfc:__ZNK6Sprite11GetInnerUVsE20SpriteRenderDataMode
XG:__ZN11UnityEngine9Animation28DestroyAvatarBindingConstantEPNS0_21AvatarBindingConstantERN7mecanim6memory9AllocatorE
SNf:_X509ChainPolicy_get_VerificationTime_m4100358726
c9b:__ZN16MessageForwarder23RegisterMessageCallbackEiPFvPviR11MessageDataEPKN5Unity4TypeE
Mgj:__ZN6il2cpp2os4File9SetLengthEPNS0_10FileHandleExPi
QTa:__ZN4Mesh30AcquireSharedMeshRenderingDataEv
di:_gmtime
ki:_emscripten_glUniform3i
Ima:__ZNK7ApiGLES10GetContextEv
dsd:_Single_System_IConvertible_ToInt16_m962677079_AdjustorThunk
eub:__Z18Transfer_BlittableI14SafeBinaryReadLb1E5RectTIfEEvRK29SerializationCommandArgumentsR31RuntimeSerializationCommandInfo
bEc:__Z7b2Alloci
z4a:__ZN15TextureSettings14SetAnisoLimitsEii
HAb:__Z19TransferField_ArrayI24GenerateTypeTreeTransfer27Converter_SimpleNativeClassI10RectOffsetEEvRK23StaticTransferFieldInfoR31RuntimeSerializationCommandInfoRT0_
Qsa:__ZN6prcoreL17RemapGenericFloatI18TexFormatARGBFloat15TexFormatRGHalfEEvPKNS_9InnerInfoE
fgj:_il2cpp_object_unbox
Dpd:_String_memcpy2_m2338403668
MWh:_InternalEnumerator_1_get_Current_m4154615771_AdjustorThunk
ctb:__ZNSt3__26vectorI4PPtrI10MonoScriptE13stl_allocatorIS3_L18MemLabelIdentifier78ELi16EEE8__appendEj
vqe:_Array_InternalArray__set_Item_TisDateTime_t693205669_m197118909_gshared
fjg:_ModuleBuilder_GetToken_m4190668737
a2j:_emscripten_glIsProgram__wrapper
gcc:__ZL22PrepareMeshRenderNodesILb1EEvR35RenderNodeQueuePrepareThreadContext
whj:__ZN6il2cpp2vm14TypeNameParser25ConsumeAssemblyIdentifierEv
Jrb:__ZN20LocalFileSystemPosix5TouchER13FileEntryData
bzc:__ZN9JSONWrite8TransferI13dynamic_arrayItLj2EEEEvRT_PKc17TransferMetaFlags
I3f:_NativeEventCalls_SetEvent_internal_m2449488771
Ai:_emscripten_glDrawElements
tga:__ZN15dense_hashtableINSt3__24pairIKN4core12basic_stringIcNS2_20StringStorageDefaultIcEEEE13dynamic_arrayI4PPtrI6SpriteELj4EEEES6_20StringHash32FunctionIS6_EN14dense_hash_mapIS6_SC_SF_NS0_8equal_toIS6_EE13stl_allocatorISD_L18MemLabelIdentifier81ELi16EEE9SelectKeyESI_SL_ED2Ev
Yvf:_MD4Managed_HH_m2172169314
Nmd:_RSAPKCS1SignatureDeformatter_SetHashAlgorithm_m894366837
UEe:_X509Certificate_get_DSA_m3959895595
$Sd:_Boolean_System_IConvertible_ToDouble_m624978277
Xae:_Delegate_get_Method_m2968370506
vCd:_Button__ctor_m975719067
_Si:_zombie_spawner_SpawnEnemy_m1160297239
gIc:__ZN20SpriteTilingProperty8TransferI14SafeBinaryReadEEvRT_
Fu:__ZN13AnimationClip8TransferI18StreamedBinaryReadILb0EEEEvRT_
d6f:_TimeSpan_CompareTo_m2891128664
tE:__ZN9BlobWriteD2Ev
Npi:_Input_get_mouseScrollDelta_m3621133506
rub:__ZL26Transfer_SimpleNativeClassI14SafeBinaryRead8GradientLb0EEvRK29SerializationCommandArgumentsR31RuntimeSerializationCommandInfo
o1j:_emscripten_glClientActiveTexture__wrapper
raj:__ZNK15dense_hashtableI10KeyWrapperIPK17Il2CppGenericInstES4_N6il2cpp8metadata21Il2CppGenericInstHashEN14dense_hash_setIS4_S7_NS4_14EqualsComparerINS6_24Il2CppGenericInstCompareEEENSt3__29allocatorIS4_EEE8IdentityESB_SE_E4findERKS4_
Wpi:_Input_get_compositionString_m3305020009
tfh:__Z71RuntimeInvoker_Double_t4078015681_Double_t4078015681_Double_t4078015681PFvvEPK10MethodInfoPvPS4_
Gze:_PrimalityTests_RabinMillerTest_m1376858197
Xjd:_HMACSHA1__ctor_m2027292306
F_f:_DES_Create_m2705450713
jvi:_X509CertificateCollection_Remove_m2722259192
gme:_Array_InternalArray__IndexOf_TisSingle_t2076509932_m2151846718_gshared
BWa:__ZN13RenderTexture23VirtualRedirectTransferER18StreamedBinaryReadILb0EE
HLi:_GUIUtility_CheckOnGUI_m4132974677
XCg:__ZL56StringBuilder_t1221177846_CustomAttributesCacheGeneratorP21CustomAttributesCache
mLe:_NumberFormatter_FormatHexadecimal_m1317851390
HYc:_UNITY_tt_face_lookup_table
$Mf:_X509Certificate2Collection_AddRange_m1503879780
Mvc:__ZN5Unity9rapidjson13GenericReaderINS0_4UTF8IcEES3_13JSONAllocatorE9ParseHex4INS0_25GenericInsituStringStreamIS3_EEEEjRT_
nxa:__Z17ComputeMipmapSizeiii14GraphicsFormat
vQe:_StreamReader__ctor_m871771009
G0c:_cf2_stack_pushFixed
Rpa:__ZN4crnd12crn_unpacker12unpack_dxt5aEPPhjjjjjj
ygi:_AnchorInfo_get_Length_m1721106162
ZUf:_RemotingConfiguration_RegisterActivatedClientType_m2207611714
GAh:_Transform_1_Invoke_m1224512163_gshared
sMj:__ZN6il2cpp2os5Mutex4LockEb
fJd:_GraphicRaycaster_Raycast_m3351280444
UFb:__Z29Transfer_Blittable_ArrayFieldI18StreamedBinaryReadILb1EE8Vector2fEvRT_R9ArrayInfoRK23StaticTransferFieldInfo
W9c:__Z50CanvasRenderer_CUSTOM_CreateUIVertexStreamInternalP12Il2CppObjectS0_S0_S0_S0_S0_S0_S0_S0_S0_
tda:__ZN14PlayableOutput15PrepareTraverseERK9FrameData
Quj:__ZN6il2cpp2vm13LivenessState25FieldCanContainReferencesEP9FieldInfo
GIb:__ZL19RequireCorLibMethodPKcS0_S0_
xDa:__ZNK5Unity9Component22GetTypeVirtualInternalEv
Fug:__ZL111RegionInfo_t3784626978_CustomAttributesCacheGenerator_RegionInfo_t3784626978____CurrencyNativeName_PropertyInfoP21CustomAttributesCache
_l:_emscripten_get_fullscreen_status
ykd:_MD5_Create_m1572997499
CGe:_AppDomain_LoadAssembly_m1537679648
Dta:__ZN6prcoreL26RemapGenericIntegerToFloatI17TexFormatARGB888817TexFormatRGBFloatEEvPKNS_9InnerInfoE
hch:__Z146RuntimeInvoker_Void_t1841601450_RuntimeObject_RuntimeObject_Int64_t909078037_RuntimeObject_RuntimeObject_RuntimeObject_RuntimeObject_RuntimeObjectPFvvEPK10MethodInfoPvPS4_
y$b:__ZN15LODGroupManager27GarbageCollectCameraLODDataEv
RGa:__ZN11NamedObjectC2E18MemLabelIdentifier18ObjectCreationMode
N2b:__ZN13ScreenManagerC2Ev
gZe:_OrdinalComparer_GetHashCode_m3400975772
jA:__ZN7mecanim20ValueArrayBlendBeginILb1EEEvRNS_14ValueArrayMaskE
zsc:__ZN12GUIClipState20CalculateMouseValuesER10InputEvent
Uzb:__Z18Transfer_BlittableI24GenerateTypeTreeTransferLb0E12PropertyNameEvRK29SerializationCommandArgumentsR31RuntimeSerializationCommandInfo
Ema:__ZN7ApiGLES4InitERK14GfxContextGLESR16GfxDeviceLevelGL
oPa:__ZNK11LightProbes14LightProbeData33GetLightProbeInterpolationWeightsERK8Vector3fRiR8Vector4fRf
NTf:_SoapServices_GetAssemblyName_m2037446159
w0:__ZN21UnityDefaultAllocatorI17LowLevelAllocatorED0Ev
M2a:__ZN8Renderer15SetIsRenderableEb
eBb:__Z19TransferField_ArrayI24GenerateTypeTreeTransfer16Converter_StringEvRK23StaticTransferFieldInfoR31RuntimeSerializationCommandInfoRT0_
EXh:_InternalEnumerator_1_System_Collections_IEnumerator_get_Current_m1313308902_AdjustorThunk
F9f:_UInt32_System_IConvertible_ToInt64_m3091851828_AdjustorThunk
Rta:__Z14DecodeBC7BlockP9HDRColorAPKh
Tbc:__ZNK24RendererAnimationBinding12GetPPtrValueERKN11UnityEngine9Animation10BoundCurveE
bAf:_ClientSessionCache__cctor_m1134810266
uhi:_CharacterClass_GetIntervalCost_m2706255216
YWf:_ObjectReader_ReadGenericArray_m788836286
HJj:_GC_new_proc_inner
mc:invoke_fiiffi
iWa:__ZN19RenderBufferManager13GetTempBufferE17RenderTextureDesc
D1c:_UNITY_FT_Init_Class_cff_service_glyph_dict
KH:__ZN18AnimatorController23VirtualRedirectTransferER18StreamedBinaryReadILb0EE
vtb:__Z35Transfer_Blittable_FixedBufferFieldI14SafeBinaryReadiEvRK29SerializationCommandArgumentsR31RuntimeSerializationCommandInfo
goi:_InvokableCallList_AddPersistentInvokableCall_m452514359
uld:_RijndaelManagedTransform_TransformFinalBlock_m3663752599
Aud:_String_Format_m4262916296
hSb:__ZNK25CameraStackRenderingState21IsRenderingLastCameraEv
bra:__ZL24stbir__filter_catmullromff
Txe:_SimpleCollator_CompareInternal_m280569710
mSj:__ZNSt3__212basic_stringIcNS_11char_traitsIcEENS_9allocatorIcEEE6__initEPKcjj
nHc:__ZN10ClipperLib7Clipper8AddOutPtEPNS_5TEdgeERKNS_8IntPointE
JTc:__ZN20TextRenderingPrivate15GetFormatStringER11UTF16StringR13dynamic_arrayINS_16TextFormatChangeELj4EE
wMf:_X509ExtensionEnumerator_get_Current_m3926549773
Vfh:__Z77RuntimeInvoker_TimeSpan_t3430258949_TimeSpan_t3430258949_TimeSpan_t3430258949PFvvEPK10MethodInfoPvPS4_
Ydj:__ZN6il2cpp6icalls8mscorlib6SystemL16CheckMemberMatchI9EventInfoNS_5utils10functional6FilterINSt3__212basic_stringIcNS8_11char_traitsIcEENS8_9allocatorIcEEEENS5_13VmStringUtils21CaseSensitiveComparerEEEEEbPKT_PK11Il2CppClassSN_iRKT0_
xLe:_NumberFormatter_IsZeroOnly_m3495795110
NKe:_Int32_ValidDigit_m2682121722
I1b:__Z23ValidateScriptComponentP10MonoScriptPN4core12basic_stringIcNS1_20StringStorageDefaultIcEEEE
_x:__ZN7mecanim9animation12GetHumanPoseIfEEvRKNS0_18ClipMuscleConstantEPKT_RNS_5human9HumanPoseE
