Bc:_glClearStencil
zne:_Array_InternalArray__ICollection_Add_TisMark_t2724874473_m1613484179_gshared
f$g:__ZL80Graphic_t2426225576_CustomAttributesCacheGenerator_Graphic_OnFillVBO_m1723985607P21CustomAttributesCache
bCj:__ZN6il2cpp2vm5Array13GetByteLengthEP11Il2CppArray
SNh:_Raycast3DCallback_BeginInvoke_m3028685017
J7g:__Z79RuntimeInvoker_RuntimeObject_Int64_t909078037_Int64_t909078037_Int64_t909078037PFvvEPK10MethodInfoPvPS4_
szg:__ZL61IRemotingFormatter_t4112065742_CustomAttributesCacheGeneratorP21CustomAttributesCache
ugd:__ZN15DownloadHandler7OnAbortEv
QZi:_TextGenerator_Invalidate_m1993568841
Zsf:_Comparison_1_Invoke_m353639462_gshared
KPa:__Z30GetIntermediateRendererManagerv
lI:__ZN10StateRange8TransferI14SafeBinaryReadEEvRT_
mqa:__Z21SourceMipLevelForBlitiiii
qUa:__ZN31CanvasBatchIntermediateRenderer15AddAsRenderNodeER15RenderNodeQueueRK20DeprecatedSourceData
$Kg:__ZL87Component_t3819376471_CustomAttributesCacheGenerator_Component_GetComponent_m1409092944P21CustomAttributesCache
rhg:_GenericTypeParameterBuilder_GetEvent_m4210567427
E0d:_Enumerator_get_Key_m2908810861
XI:__ZN15SerializeTraitsIN7mecanim6bitsetILj70EEEE8TransferI14SafeBinaryReadEEvRS2_RT_
fcd:__ZN11UnityEngine7Connect14AppUpdateEventD0Ev
ILi:_GUI_DoSetSkin_m2532620610
Huh:__Z35RuntimeInvoker_UIVertex_t1204258818PFvvEPK10MethodInfoPvPS4_
H1:__ZdlPv
vZg:__ZL77StandaloneInputModule_t70867863_CustomAttributesCacheGenerator_m_VerticalAxisP21CustomAttributesCache
Zv:__ZN11UnityEngine9Animation28GenericAnimationBindingCacheD2Ev
zzg:__ZL68RemotingSurrogateSelector_t2821375126_CustomAttributesCacheGeneratorP21CustomAttributesCache
oKh:_EqualityComparer_1__cctor_m968537130_gshared
P0e:_List_1_System_Collections_IList_IndexOf_m39706221_gshared
wEh:_Dictionary_2_Remove_m1849931834_gshared
u3d:_Decimal_op_Implicit_m2971610317
VMi:_GUILayoutGroup_ResetCursor_m3614985691
HFd:_Graphic_UnregisterDirtyVerticesCallback_m1526739224
q1b:__Z18RestoreRenderStateR20CameraRenderOldStateR17ShaderPassContext
mYd:_SynchronizedArrayListWrapper_get_Item_m3309425850
YDb:__Z18Transfer_BlittableI18StreamedBinaryReadILb1EELb1E5RectTIfEEvRK29SerializationCommandArgumentsR31RuntimeSerializationCommandInfo
Loi:_UnityEventBase_RebuildPersistentCallsIfNeeded_m2776978024
Uyi:_Rect_set_height_m1455613541_AdjustorThunk
Qzb:__Z18Transfer_BlittableI24GenerateTypeTreeTransferLb0E11ColorRGBA32EvRK29SerializationCommandArgumentsR31RuntimeSerializationCommandInfo
l8:__Z25scripting_class_from_name17ScriptingImagePtrPKcS1_
apj:__ZN14dense_hash_mapI10KeyWrapperINSt3__24pairIPK12PropertyInfoP11Il2CppClassEEEj17ReflectionMapHashIS8_ENS9_14EqualsComparerINS1_8equal_toIS8_EEEENS1_9allocatorINS2_IKS9_jEEEEE15set_deleted_keyERSH_
aKb:__Z29scripting_class_enum_basetype17ScriptingClassPtr
bai:__ZN21InterfaceFuncInvoker3IP12Il2CppObjectP8String_tS1_PS3_E6InvokeEjP11Il2CppClassS1_S3_S1_S4_
_Id:_GraphicRaycaster_get_ignoreReversedGraphics_m2757724367
kjh:__Z111RuntimeInvoker_Void_t1841601450_Vector4_t2243707581_Vector4_t2243707581_Vector4_t2243707581_Vector4_t2243707581PFvvEPK10MethodInfoPvPS4_
ZMa:__ZNK12BaseRenderer18GetRenderNodeCountEv
QJc:__ZN16PhysicsManager2D7RaycastERK3RayfiR12RaycastHit2D
cig:_GenericTypeParameterBuilder_GetHashCode_m867619899
z6f:_TimeSpan_ToString_m2947282901
MJh:_EqualityComparer_1__cctor_m3397254040_gshared
rrb:__ZNK20LocalFileSystemPosix6ParentERK13FileEntryDataRN4core12basic_stringIcNS3_20StringStorageDefaultIcEEEE
cHa:__ZN15dense_hashtableINSt3__24pairIKN4core12basic_stringIcNS2_20StringStorageDefaultIcEEEEP20ArchiveStorageReaderEES6_20StringHash32FunctionIS6_EN14dense_hash_mapIS6_S9_SC_NS0_8equal_toIS6_EE13stl_allocatorISA_L18MemLabelIdentifier55ELi16EEE9SelectKeyESF_SI_E4swapERSL_
dXe:_MonoType_CheckMethodSecurity_m4116906190
Sse:_Array_Sort_TisVector2_t2243707579_m1307634946_gshared
Rna:__ZN7ApiGLES17CopyBufferSubDataEjjlll
pag:_UInt64_System_IConvertible_ToDecimal_m4205696037
FMg:__ZL80Input_t1785128008_CustomAttributesCacheGenerator_Input_GetKeyDownInt_m1492831765P21CustomAttributesCache
pvc:__ZN5Unity9rapidjson15GenericDocumentINS0_4UTF8IcEE13JSONAllocatorS4_E11ParseStreamILj1ES3_NS0_25GenericInsituStringStreamIS3_EEEERS5_RT1_
P5i:__ZNSt3__26vectorIPK10Il2CppTypeNS_9allocatorIS3_EEE7reserveEj
Y_i:_U3CCreateWhereIteratorU3Ec__Iterator1D_1_Reset_m1773515612_gshared
qVb:__ZN25CameraStackRenderingState20GetOrCreateBuiltinRTE24BuiltinRenderTextureTypeii17DepthBufferFormat19RenderTextureFormatj22RenderTextureReadWrite14VRTextureUsagei
CMd:_InputField_get_caretPosition_m1005871812
bDh:_Dictionary_2__ctor_m3111963761_gshared
KOi:_AesManaged_CreateEncryptor_m1729287824
V6a:__ZNK14Texture2DArray26CanReuploadDataToGfxDeviceEv
LZb:__ZN17PrePassRenderLoop14RenderBasePassEP13RenderTextureRK14LightingLayersR13dynamic_arrayI16RenderObjectDataLj4EERbR10MinMaxAABB
UKa:__ZN17GlobalGameManager23VirtualRedirectTransferER17RemapPPtrTransfer
OYc:_sfnt_stream_close
jId:_GraphicRegistry_RegisterGraphicForCanvas_m2284226562
rVd:_Char_System_IConvertible_ToInt16_m2741348777_AdjustorThunk
dtc:__ZN5IMGUI18RepaintModalWindowER8GUIState
bXi:__ZL25UnresolvedVirtualCall_129P12Il2CppObject17Color_t2020392075PK10MethodInfo
GHd:_FontData_get_verticalOverflow_m83665814
tmf:_ReadOnlyCollection_1_System_Collections_Generic_IListU3CTU3E_set_Item_m1547026160_gshared
AOa:__ZNK15dense_hashtableINSt3__24pairIKN9ShaderLab7Program23ShaderKeywordSetAndHashEPKNS2_10SubProgramEEES4_NS3_24ShaderKeywordHashFunctorEN14dense_hash_mapIS4_S8_SA_NS0_8equal_toIS4_EE13stl_allocatorIS9_L18MemLabelIdentifier67ELi16EEE9SelectKeyESD_SG_E23find_position_with_hashERS5_j
zsg:__ZL61MarshalAsAttribute_t2900773360_CustomAttributesCacheGeneratorP21CustomAttributesCache
C5a:__Z23SetSpriteMeshIndexCountP14SharedMeshDataj
hWa:__ZN7Texture13SetFilterModeEi
RKg:__ZL87Camera_t189460977_CustomAttributesCacheGenerator_Camera_get_allCamerasCount_m1873043770P21CustomAttributesCache
rkc:__Z46Register_UnityEngine_Application_get_isPlayingv
aEj:__ZN6il2cpp8metadata13GenericMethod9GetMethodEPK19Il2CppGenericMethod
qq:__ZNSt3__26vectorIN4core12basic_stringIcNS1_20StringStorageDefaultIcEEEENS_9allocatorIS5_EEE7reserveEj
O5d:_Convert_ToUInt16_m2130758075
ilj:__ZN15dense_hashtableINSt3__24pairIK10KeyWrapperINS1_IPK11Il2CppImageP11Il2CppClassEEEjEES9_17ReflectionMapHashIS8_EN14dense_hash_mapIS9_jSD_NS9_14EqualsComparerINS0_8equal_toIS8_EEEENS0_9allocatorISB_EEE9SelectKeyESI_SK_E3endEv
CLf:_X509BasicConstraintsExtension_Encode_m3505127076
_ha:__ZN13GfxDeviceGLES11SetViewportERK5RectTIiE
FKd:_Image_get_pixelsPerUnit_m4104195799
oUh:_Toggle_InternalToggle_m2323729210
_9d:_Decimal_System_IConvertible_ToInt64_m2504363272
mqc:__Z24Time_Get_Custom_PropTimev
zQd:_Array_GetValue_m3182152438
Sd:_emscripten_glDepthRange
T_f:_DESTransform_CipherFunct_m3559419566
gld:_Rijndael_Create_m113171669
CYf:_RuntimeFieldHandle_get_Value_m3963757144
z3b:__ZNSt3__26vectorINS_4pairIN4core12basic_stringIcNS2_20StringStorageDefaultIcEEEES6_EE13stl_allocatorIS7_L18MemLabelIdentifier38ELi16EEE12__move_rangeEPS7_SC_SC_
qkb:__Z14resize_trimmedINSt3__26vectorIN9ShaderLab20SerializedSubProgram12UAVParameterENS0_9allocatorIS4_EEEEEvRT_j
Jvc:__ZN5Unity9rapidjson13GenericReaderINS0_4UTF8IcEES3_13JSONAllocatorE11ParseObjectILj1ENS0_25GenericInsituStringStreamIS3_EENS0_15GenericDocumentIS3_S4_S4_EEEEvRT0_RT1_
hWf:_SerializationInfo_AddValue_m1781549036
csh:__Z59RuntimeInvoker_Void_t1841601450_PlayableBinding_t2498078091PFvvEPK10MethodInfoPvPS4_
Dzf:_TlsServerKeyExchange_verifySignature_m3641534563
phc:__ZN13BuildSettings34ConvertScenePathToDisplayScenePathERKN4core12basic_stringIcNS0_20StringStorageDefaultIcEEEE
vif:_Collection_1_Clear_m445145071_gshared
raa:__ZNSt3__218__insertion_sort_3IRNS_6__lessI14ObjectLoadDataS2_EEPS2_EEvT0_S6_T_
kHi:_InvokableCall_1_Find_m2337296995_gshared
CSh:_Slider_FindSelectableOnLeft_m3136767885
Mpa:__ZN4crndL20crnd_default_reallocEPvjPjbS0_
qId:__ZN21InterfaceFuncInvoker1IP19Material_t193706927S1_E6InvokeEjP11Il2CppClassP12Il2CppObjectS1_
tke:_Array_BinarySearch_TisInt32_t2071877448_m51233948_gshared
QRj:__ZNSt3__212basic_stringIcNS_11char_traitsIcEENS_9allocatorIcEEEC2ERKS5_
EUf:_ProviderData_CopyFrom_m431414335
Hkh:__Z74RuntimeInvoker_Boolean_t3825574718_Vector2_t2243707579_Vector2_t2243707579PFvvEPK10MethodInfoPvPS4_
s6a:__ZN18SpriteAtlasManager19AddRequestingSpriteE4PPtrI6SpriteE
Wfc:__ZN16PackedQuatVector9PackQuatsEP11Quaternionfi
Zpc:__Z33Texture_CUSTOM_Internal_GetHeightP12Il2CppObject
WOd:_LayoutGroup_get_preferredHeight_m3901163825
WTg:__ZL106AudioSettings_t3144015719_CustomAttributesCacheGenerator_AudioSettings_GetSpatializerPluginName_m698617843P21CustomAttributesCache
u0b:__ZN23ScriptableRenderContextC2Ev
ku:__ZN7mecanim9animation18ClipMuscleConstant8TransferI24GenerateTypeTreeTransferEEvRT_
_Pa:__ZN4PPtrI13RenderTextureE8TransferI18StreamedBinaryReadILb0EEEEvRT_
Z2d:_DateTime_AbsoluteDays_m3061694073
z3c:_UNITY_FT_Stream_GetChar
xEb:__Z18Transfer_BlittableI18StreamedBinaryReadILb1EELb1EdEvRK29SerializationCommandArgumentsR31RuntimeSerializationCommandInfo
yyh:_Enumerator_System_Collections_IEnumerator_get_Current_m229223308_gshared
VJg:__ZL202U3CCreateWhereIteratorU3Ec__Iterator1D_1_t2523986802_CustomAttributesCacheGenerator_U3CCreateWhereIteratorU3Ec__Iterator1D_1_System_Collections_Generic_IEnumerableU3CTSourceU3E_GetEnumerator_m2392330777P21CustomAttributesCache
jKb:__Z26BuildSerializationCacheFor17ScriptingClassPtrRb
Sva:__ZN7ApiGLES15BlitFramebufferEN2gl6HandleILNS0_10ObjectTypeE9EEENS0_15FramebufferReadES3_S3_iiiiiiiiNS0_15FramebufferTypeE
ifj:_il2cpp_class_get_name
Iri:_Mesh_CheckCanAccessSubmeshTriangles_m2644388378
Ngh:__Z112RuntimeInvoker_RuntimeObject_RuntimeObject_RuntimeObject_RuntimeObject_RuntimeObject_RuntimeObject_RuntimeObjectPFvvEPK10MethodInfoPvPS4_
Pxg:__ZL55GCHandleType_t1970708122_CustomAttributesCacheGeneratorP21CustomAttributesCache
Ncc:__ZN13ProduceHelperI10GUIElementLb1EE7ProduceE18MemLabelIdentifier18ObjectCreationMode
CXi:__ZL25UnresolvedVirtualCall_156P12Il2CppObject18Color32_t874517518PK10MethodInfo
dEi:_UnitySynchronizationContext__ctor_m1804960286
n0i:_WillRenderCanvases_BeginInvoke_m4217413147
XXd:_FixedSizeArrayListWrapper_AddRange_m2071800418
eL:__ZN13ProduceHelperI8AnimatorLb0EE7ProduceE18MemLabelIdentifier18ObjectCreationMode
CLb:__Z9InitInputv
pdh:__Z85RuntimeInvoker_Boolean_t3825574718_Int64_t909078037_Int64_t909078037_SByte_t454417549PFvvEPK10MethodInfoPvPS4_
Gjj:__ZN15dense_hashtableINSt3__24pairIK10KeyWrapperINS1_IPK9FieldInfoP11Il2CppClassEEEjEES9_17ReflectionMapHashIS8_EN14dense_hash_mapIS9_jSD_NS9_14EqualsComparerINS0_8equal_toIS8_EEEENS0_9allocatorISB_EEE9SelectKeyESI_SK_ED2Ev
C$e:_Enumerator_VerifyState_m2358705882_AdjustorThunk
OAb:__Z29Transfer_Blittable_ArrayFieldI24GenerateTypeTreeTransfer11ColorRGBA32EvRT_R9ArrayInfoRK23StaticTransferFieldInfo
mOg:__ZL87Time_t31991979_CustomAttributesCacheGenerator_Time_get_realtimeSinceStartup_m3888815444P21CustomAttributesCache
wsb:__ZN16MemoryFileSystem6DeleteER13FileEntryDatab
Eqa:__ZL21BlitScaleStbImageImplRK14ImageReferenceRS_NS_10ColorSpaceE
gAi:_RectTransform_INTERNAL_set_pivot_m4248720081
iGf:_TlsStream_set_Position_m378064217
rmb:__ZN18StreamedBinaryReadILb0EE21TransferSTLStyleArrayI13dynamic_arrayIjLj4EEEEvRT_17TransferMetaFlags
IMc:__ZNSt3__26__sortIR31RayHitsByInverseDepthComparitorP12RaycastHit2DEEvT0_S5_T_
Ivb:__Z29Transfer_Blittable_ArrayFieldI14SafeBinaryReadyEvRT_R9ArrayInfoRK23StaticTransferFieldInfo
gT:__ZN20SoundChannelInstance15setChannelGroupEPN4FMOD12ChannelGroupE
Ujj:__ZNK15dense_hashtableINSt3__24pairIK10KeyWrapperINS1_IPK9FieldInfoP11Il2CppClassEEEjEES9_17ReflectionMapHashIS8_EN14dense_hash_mapIS9_jSD_NS9_14EqualsComparerINS0_8equal_toIS8_EEEENS0_9allocatorISB_EEE9SelectKeyESI_SK_E12test_deletedERK24dense_hashtable_iteratorISB_S9_SD_SM_SI_SK_E
bRc:__Z42Collision2D_CUSTOM_CreateCollisionContactsP12Il2CppObjectS0_S0_S0_h
mqd:_Evidence_Equals_m2325859915
Zwi:_PlayableHandle_INTERNAL_CALL_GetPlayableTypeOf_m1683061051
ndg:_Default__ctor_m172834064
pc:invoke_vifffii
iHb:__Z35Transfer_Blittable_FixedBufferFieldI18StreamedBinaryReadILb0EEaEvRK29SerializationCommandArgumentsR31RuntimeSerializationCommandInfo
Ftj:__ZN6il2cpp2vm9Exception27RaiseNullReferenceExceptionEv
dgi:_Regex_IsMatch_m2159202025
IIa:__ZNK25MultiBlocksMemoryFileData5CloneEv
EJj:_GC_add_ext_descriptor
GKj:__ZN6il2cpp2os14WindowsRuntime22GetRestrictedErrorInfoEv
XKd:_Image_CalculateLayoutInputHorizontal_m3275149860
PRf:_RemotingServices_GetMethodBaseFromName_m3271095947
MHa:__ZN17ArchiveFileSystem11CreateAsDirER13FileEntryData
STj:dynCall_iiiiiiiiiiii
ovd:_ASCIIEncoding_GetBytes_m3617160053
T2h:_InternalEnumerator_1_MoveNext_m2289229080_AdjustorThunk
Hyf:_CipherSuiteCollection_System_Collections_IList_RemoveAt_m143866082
UBa:__ZN22VertexDeclarationCacheD0Ev
_ob:__ZL26KeywordSetToStringDontSortRKNSt3__26vectorIN4core12basic_stringIcNS1_20StringStorageDefaultIcEEEENS_9allocatorIS5_EEEERS5_
wsa:__ZN6prcoreL17RemapGenericFloatI16TexFormatRGFloat17TexFormatRGBAHalfEEvPKNS_9InnerInfoE
DN:__ZN12AudioManager22CreateFMODSoundFromWWWEP10IWWWStream15FMOD_SOUND_TYPE17FMOD_SOUND_FORMATjjbbP10SampleClip
Ibc:__ZNK32RendererMaterialAnimationBinding15GenerateBindingERKN4core12basic_stringIcNS0_20StringStorageDefaultIcEEEEbRN11UnityEngine9Animation14GenericBindingE
Ilj:__ZN24dense_hashtable_iteratorINSt3__24pairIK10KeyWrapperINS1_IPK11Il2CppImageP11Il2CppClassEEEjEES9_17ReflectionMapHashIS8_EN14dense_hash_mapIS9_jSD_NS9_14EqualsComparerINS0_8equal_toIS8_EEEENS0_9allocatorISB_EEE9SelectKeyESI_SK_E30advance_past_empty_and_deletedEv
ygh:__Z40RuntimeInvoker_HandshakeType_t2540099417PFvvEPK10MethodInfoPvPS4_
A7:__ZN8Remapper23GetOrGenerateInstanceIDERK26SerializedObjectIdentifier
Bt:__ZN17AnimationCurveTplI8Vector3fEC2ERKS1_
QTe:_StreamWriter_Flush_m3426120024
THa:__ZN17FileSystemHandler10AtomicMoveER13FileEntryDataS1_
_a:invoke_iiiiiifffiiifii
uRe:_MemoryStream__ctor_m1489366847
Gqd:_SecurityElement_IsValidTag_m64902195
DUg:__ZL77AudioSourceExtension_t1813599864_CustomAttributesCacheGenerator_m_audioSourceP21CustomAttributesCache
sog:_PropertyInfo_SetValue_m2961483868
x5e:_List_1_System_Collections_IList_Contains_m4193366963_gshared
zcj:__ZNSt3__214__split_bufferI6pollfdRNS_9allocatorIS1_EEED2Ev
ISf:_DictionaryEnumerator_get_Value_m1915638953
Ldg:_ConstructorInfo_Invoke_m2144827141
P5a:__ZN6Sprite8TransferI24GenerateTypeTreeTransferEEvRT_
jrc:__Z48Register_UnityEngine_Transform_SetAsFirstSiblingv
S5a:__ZN7SubMesh8TransferI24GenerateTypeTreeTransferEEvRT_
wng:_MonoProperty_get_CanWrite_m2124922514
ddj:__ZN6il2cpp6icalls8mscorlib6SystemL16CheckMemberMatchI9FieldInfoNS_5utils10functional6FilterINSt3__212basic_stringIcNS8_11char_traitsIcEENS8_9allocatorIcEEEENS5_13VmStringUtils23CaseInsensitiveComparerEEEEEbPKT_PK11Il2CppClassSN_iRKT0_
Nxf:_CipherSuite_get_HashAlgorithmType_m3902365773
yXg:__ZL96RemoteSettings_t392466225_CustomAttributesCacheGenerator_RemoteSettings_CallOnUpdate_m1092852243P21CustomAttributesCache
RQj:_poll
gRe:_Stream_BeginRead_m1985960185
B9b:__ZN13ProduceHelperI14Texture2DArrayLb0EE7ProduceE18MemLabelIdentifier18ObjectCreationMode
Yu:__ZN7mecanim5human9HumanGoal8TransferI18StreamedBinaryReadILb0EEEEvRT_
oIi:_UnityAction_1_EndInvoke_m350315359_gshared
Xvf:_MD4Managed_GG_m1462438360
Coc:__Z53PlayableHandle_CUSTOM_INTERNAL_CALL_GetPlayableTypeOfR9HPlayable
mRc:__Z55Register_UnityEngine_Rigidbody2D_INTERNAL_CALL_AddForcev
gic:__ZN9Transform23SetSiblingIndexInternalEib
LQh:_ScrollRect_get_minWidth_m3151814267
rHd:_FontData_set_fontStyle_m130790064
nia:__ZN13GfxDeviceGLES17DestroySubProgramEPN9ShaderLab10SubProgramE
Xx:__ZN7mecanim5human12HumanPoseSubERNS0_9HumanPoseERKS1_S4_
eFi:_Vector3_Max_m2076081170
Jvf:_MD4_Create_m2582504069
oRi:_HashSet_1_System_Collections_IEnumerable_GetEnumerator_m2498631708_gshared
cyj:__ZN6il2cpp8metadata15GenericMetadata15GetGenericClassEiPK17Il2CppGenericInst
cTd:_Boolean_System_IConvertible_ToInt16_m977801621
hub:__Z18Transfer_BlittableI14SafeBinaryReadLb0E10Matrix4x4fEvRK29SerializationCommandArgumentsR31RuntimeSerializationCommandInfo
BJb:__Z24GetFixedBehaviourManagerv
Jph:__Z69RuntimeInvoker_Void_t1841601450_Int32_t2071877448_Vector4_t2243707581PFvvEPK10MethodInfoPvPS4_
DSb:__ZN12FlareManager9UpdateJobEP25FlareManagerUpdateJobData
Icj:__ZN6il2cpp2vm10ThreadPool4WaitEP17Il2CppAsyncResultPPv
twi:_Plane__ctor_m730644932_AdjustorThunk
xOc:__ZN11Rigidbody2D8TransferI14SafeBinaryReadEEvRT_
aPj:_vfprintf
Ctc:__ZN10GUIManager12AddGUIScriptER8ListNodeI13MonoBehaviourE
cWf:_SerializationException__ctor_m1019897788
UNg:__ZL102SpriteRenderer_t1209076198_CustomAttributesCacheGenerator_SpriteRenderer_INTERNAL_set_color_m915812568P21CustomAttributesCache
JTa:__ZN19ShaderPropertySheet20ReservePropertyCountEj
lTb:__ZN20DynamicPropertySheetD0Ev
E3b:__ZN14SafeBinaryRead17RegisterConverterEPKcS1_PFbPvRS_E
g3:__ZN35RegisterRuntimeInitializeAndCleanup8RegisterEPFvPvES2_iS0_
a8g:__Z92RuntimeInvoker_RuntimeObject_Int32_t2071877448_Int32_t2071877448_RuntimeObject_RuntimeObjectPFvvEPK10MethodInfoPvPS4_
Gqj:__ZNSt3__26vectorIN6il2cpp8metadata18GenericArrayMethodENS_9allocatorIS3_EEE7reserveEj
ss:__ZN7mecanim6memory16ChainedAllocator7ReserveEj
VRd:_AsyncCallback__ctor_m3071689932
yrf:_ReadOnlyCollection_1_System_Collections_IList_Clear_m2600246370_gshared
oIc:__ZN4PPtrI17PhysicsMaterial2DE8TransferI18StreamedBinaryReadILb0EEEEvRT_
hJi:_UnityEvent_1_GetDelegate_m915269642_gshared
irh:__Z62RuntimeInvoker_Int32_t2071877448_ParameterModifier_t1820634920PFvvEPK10MethodInfoPvPS4_
sBe:_DSAManaged_NormalizeArray_m2287089393
orc:__Z21Object_CUSTOM_DestroyP12Il2CppObjectf
M3h:_InternalEnumerator_1_System_Collections_IEnumerator_get_Current_m2389982234_AdjustorThunk
Eob:__ZN8Material26ResetAllCachedMaterialDataEP6Shader
hRh:_Selectable_get_interactable_m1725029500
xrg:__ZL66RuntimeArray_CustomAttributesCacheGenerator_Array_Sort_m3002148658P21CustomAttributesCache
J3c:_UNITY_TT_Get_MM_Var
O2i:__ZN6il2cpp6icalls8mscorlib6System7Decimal13decimal2Int64EP19il2cpp_decimal_reprPx
ba:invoke_diddi
Lyd:_ExecuteEvents__cctor_m288775360
W5c:__ZNK2UI6Canvas13GetRenderModeEv
i4d:_Double_TryParseStringConstant_m2585405703
GI:__Z32TransferEnumWithNameForceIntSizeI14SafeBinaryRead28TransitionInterruptionSourceEvRT_RT0_PKc17TransferMetaFlags
ttb:__Z18Transfer_BlittableI14SafeBinaryReadLb0EiEvRK29SerializationCommandArgumentsR31RuntimeSerializationCommandInfo
ubj:__ZN6il2cpp2vm13MetadataCache30GetPropertyDefinitionFromIndexEi
q7h:_ResourceEnumerator__ctor_m1679839941
rld:_RijndaelTransform_Clear_m1652144089
MPe:_MonoIO_GetException_m2577367044
Bed:__ZN22BaseUnityConnectClient17InitializeSessionERKN4core12basic_stringIcNS0_20StringStorageDefaultIcEEEES6_N19CloudServiceHandler13InitModeFlagsE
aBh:_Enumerator_MoveNext_m1404007384_gshared
xYe:_NumberFormatter_get_IsZero_m1325357749
rJ:__ZN15SerializeTraitsI9OffsetPtrIN7mecanim9animation23BlendDirectDataConstantEEE8TransferI24GenerateTypeTreeTransferEEvRS4_RT_
Fri:_Mesh_PrintErrorCantAccessIndices_m2990602703
SZj:_emscripten_glDeleteBuffers__wrapper
Ulh:__Z121RuntimeInvoker_Void_t1841601450_Single_t2076509932_Single_t2076509932_Single_t2076509932_Single_t2076509932_RuntimeObjectPFvvEPK10MethodInfoPvPS4_
yde:_Enum_ToObject_m322320225
Vwh:_Enumerator_get_Current_m2754383612_gshared
Rjc:__ZN13MonoBehaviour34StopCoroutineFromEnumeratorManagedE18ScriptingObjectPtr
Uod:_X509Certificate__ctor_m3860837120
qXc:_gray_raster_reset
ooh:__Z109RuntimeInvoker_RuntimeObject_Ray_t2469606224_Single_t2076509932_Int32_t2071877448_RuntimeObject_RuntimeObjectPFvvEPK10MethodInfoPvPS4_
trf:_ReadOnlyCollection_1_System_Collections_Generic_IListU3CTU3E_set_Item_m3663361643_gshared
rL:__ZN7mecanim9animation14AvatarConstant15InitializeClassEv
Uxd:_EventTrigger_OnScroll_m626934407
Ofb:__ZN30RuntimeInitializeOnLoadManager8TransferI18StreamedBinaryReadILb0EEEEvRT_
kGh:_Dictionary_2__ctor_m1206668798_gshared
mgg:_TypeBuilder_not_supported_m3178173643
$Xc:_UNITY_tt_face_load_pclt
kjc:__ZL34GetComponentsImplementationRecurseILb1ELi0ELi2EEbR10GameObjectbRK17CompareParametersRK39GetComponentsImplementation_ReturnValue
_Gc:__ZN10ClipperLib7Clipper24InsertLocalMinimaIntoAELEx
jMj:__ZN6il2cpp6icalls8mscorlib6System9Threading5Mutex20CreateMutex_internalEbP12Il2CppStringPb
EXd:_ArrayListWrapper_Remove_m1105489978
HSb:__ZNK6Camera18WorldToScreenPointERK8Vector3fPb
lNi:_GUISkin__ctor_m2824039590
ezf:_TlsClientSettings_set_TargetHost_m3421266913
SYg:__ZL109PointerEventData_t1599784723_CustomAttributesCacheGenerator_PointerEventData_get_eligibleForClick_m2497780621P21CustomAttributesCache
u$d:_HashKeys_CopyTo_m3566668422
mva:__Z18IsCompressedFormat14GraphicsFormat
N_h:_InternalEnumerator_1_Dispose_m549215360_AdjustorThunk
R3h:_InternalEnumerator_1__ctor_m1815261138_gshared
zVd:_Convert_ToSByte_m2665932200
M6:__ZNSt3__227__insertion_sort_incompleteIRPFbRKN18AwakeFromLoadQueue4ItemES4_EPS2_EEbT0_S9_T_
hfg:_ILGenerator_label_fixup_m1325994348
ICh:_ValueCollection_System_Collections_ICollection_get_IsSynchronized_m45572582_gshared
ake:_Array_InternalArray__IEnumerable_GetEnumerator_TisContactPoint2D_t3659330976_m478005999_gshared
y9i:__ZN14dense_hash_mapI10KeyWrapperIN6il2cpp5utils13dynamic_arrayIPK10Il2CppTypeLj4EEEEPFvvENS1_8metadata19Il2CppSignatureHashENS8_14EqualsComparerINSB_22Il2CppSignatureCompareEEENSt3__29allocatorINSG_4pairIKS8_SA_EEEEE15set_deleted_keyERSJ_
OMh:_Navigation_Equals_m4214630671_AdjustorThunk
Fof:_ReadOnlyCollection_1_System_Collections_Generic_IListU3CTU3E_set_Item_m257196015_gshared
Skg:_FieldInfo_GetPseudoCustomAttributes_m2500972355
V1a:__ZN26EnlightenSystemInformation8TransferI14SafeBinaryReadEEvRT_
Wue:_Array_InternalArray__get_Item_TisLink_t2723257478_m2281261655_gshared
Sfd:__ZN11UnityEngine15PlatformWrapper20SetPlayerPrefsUInt64ERKN4core12basic_stringIcNS1_20StringStorageDefaultIcEEEEy
M9a:__ZN12MeshRendererD0Ev
BW:__ZN12AudioManager35GetCurrentSpatializerDefinitionNameEv
Dhi:_ExpressionAssertion_IsComplex_m783019628
w_d:_Hashtable__ctor_m2702360557
Bh:_utime
i8d:_DateTimeFormatInfo_get_RawAbbreviatedDayNames_m3998113647
DFi:_Vector4_get_sqrMagnitude_m641641704_AdjustorThunk
xF:__Z28SetExposedSkeletonTransformsRKN7mecanim9animation14AvatarConstantERKN11UnityEngine9Animation30AnimatorGenericBindingConstantERKNS_8skeleton13SkeletonPoseTIN4math4trsXEEERKNSA_INSB_7affineXEEERNS5_21AvatarBindingConstantEy
JIh:_DefaultComparer_GetHashCode_m2596628120_gshared
aDg:__ZL94UTF32Encoding_t549530865_CustomAttributesCacheGenerator_UTF32Encoding_GetByteCount_m3183615393P21CustomAttributesCache
Kie:_PlayableHandle_IsPlayableOfType_TisAnimationLayerMixerPlayable_t3057952312_m2522157783_AdjustorThunk
vuf:_PrimalityTest_Invoke_m4058801829
tn:FUNCTION_TABLE_viiiiif
mVf:_RemotingConfiguration_SetCustomErrorsMode_m1844153208
yn:FUNCTION_TABLE_viiiiii
Tfe:_CultureInfo_GetFormat_m3560116485
WG:__ZN7mecanim9animation22DestroyAvatarWorkspaceEPNS0_15AvatarWorkspaceERNS_6memory9AllocatorE
eJd:__ZN21InterfaceFuncInvoker0IiE6InvokeEjP11Il2CppClassP12Il2CppObject
Fgi:_AnchorInfo_get_IsPosition_m3791659233
RZb:__ZN15LightmapSTCacheC2ER13BatchRendererR15RenderLoopStats
_sc:__ZNSt3__210__list_impIN10GUIManager12SortedScriptE11memory_poolIS2_EE5clearEv
bFg:__ZL76Convert_t2607082565_CustomAttributesCacheGenerator_Convert_ToInt64_m44696721P21CustomAttributesCache
B_a:__ZN14PlayableOutput17SetSourcePlayableEP8Playable
Gfb:__ZNSt3__26vectorIN4core12basic_stringIcNS1_20StringStorageDefaultIcEEEE13stl_allocatorIS5_L18MemLabelIdentifier13ELi16EEE8__appendEj
DVf:_TrackingServices__cctor_m3639412334
mG:__ZN7mecanim9animation29MotionOutputGetDeltaTransformEPKNS0_12MotionOutputE
y7b:__Z13RegisterClassI16GraphicsSettingsEvv
lSi:_GameManager_Start_m2655388892
UCh:_ValueCollection_System_Collections_IEnumerable_GetEnumerator_m1773104428_gshared
ELc:__ZN24b2ChainAndCapsuleContact8EvaluateEP10b2ManifoldRK11b2TransformS4_
OL:__ZN8Animator14OnAddComponentEPN5Unity9ComponentE
Cbf:_List_1_CheckMatch_m1184924052_gshared
Eqc:__Z43Transform_CUSTOM_INTERNAL_get_localRotationP12Il2CppObjectP11Quaternionf
_Xj:_glGetShaderInfoLog__wrapper
ei:_emscripten_glGetTexParameteriv
j5e:_List_1_ToArray_m3752387798_gshared
uPh:_ScrollRect_get_elasticity_m3987376518
iOj:__ZN6il2cpp8metadata21Il2CppGenericInstHash4HashEPK17Il2CppGenericInst
Swf:_RSAManaged_ImportParameters_m3060955884
gFe:_DeriveBytes__ctor_m3089550878
S9h:_ChannelData_CopyFrom_m4049054607
F7b:__Z13RegisterClassI4MeshEvv
lYg:__ZL94AxisEventData_t1524870173_CustomAttributesCacheGenerator_AxisEventData_get_moveDir_m3968662359P21CustomAttributesCache
_Za:__ZN8PlayableD0Ev
eP:__ZN12AudioManager8TransferI19StreamedBinaryWriteILb0EEEEvRT_
NRe:_WriteDelegate_Invoke_m2103848735
i6e:_List_1_get_Capacity_m4262042666_gshared
Pvi:_X509Crl_get_IssuerName_m756409840
uWg:__ZL51TileBase_t4130003429_CustomAttributesCacheGeneratorP21CustomAttributesCache
ZNi:_Locale_GetText_m512920887
Hbc:__ZNK32RendererMaterialAnimationBinding12GetPPtrValueERKN11UnityEngine9Animation10BoundCurveE
tGb:__Z18Transfer_BlittableI18StreamedBinaryReadILb0EELb0E8Vector2fEvRK29SerializationCommandArgumentsR31RuntimeSerializationCommandInfo
WUf:_RemotingConfiguration_get_ProcessId_m3870172209
aJc:__ZN16CircleCollider2D10SmartResetEv
R8c:__ZN2UI11CanvasGroup12CleanupClassEv
LIe:_SortKey_ToString_m2406913228
$qb:__ZN22LocalFileSystemHandler9MakeLocalER13FileEntryDatab
JFj:__ZN6il2cpp2vm8Profiler10AllocationEP12Il2CppObjectP11Il2CppClass
p3d:_Convert_ToDateTime_m1020507389
QNg:__ZL78Sprite_t309593783_CustomAttributesCacheGenerator_Sprite_get_packed_m2366369914P21CustomAttributesCache
Hda:__ZNK9HPlayable7IsValidEv
lVc:__ZNSt3__23mapIN20TextRenderingPrivate7FontRefENS1_6OSFontENS_4lessIS2_EENS_9allocatorINS_4pairIKS2_S3_EEEEEixERS8_
Hqi:_Material_SetInt_m2847439171
_fa:__Z13FormatOrderedPKcz
hhj:_RaycastHit_get_distance_m758224512
KPe:_Path_IsPathRooted_m1347207448
RWf:_ObjectManager_RegisterObjectInternal_m879109503
oge:_Array_get_swapper_TisVector4_t2243707581_m97441823_gshared
ASc:__ZN14SafeBinaryRead21TransferSTLStyleArrayI10vector_mapINSt3__24pairIttEEfN20TextRenderingPrivate8FontImpl14KerningCompareENS2_9allocatorINS3_IS4_fEEEEEEEvRT_17TransferMetaFlags
a8b:__Z13RegisterClassI15QualitySettingsEvv
rEj:__ZN6il2cpp2vm6String21InitializeEmptyStringEP11Il2CppClass
AZb:__ZN25DeferredRenderLoopScratchD0Ev
sA:__ZN27AnimationLayerMixerPlayable14SetInputWeightEif
Tx:__ZN7mecanim9animation17EvaluateHumanPoseERKNS0_18ClipMuscleConstantERKNS0_15ClipMuscleInputEPKfRKNS0_12MotionOutputERNS_5human9HumanPoseE
fDg:__ZL90UTF7Encoding_t741406939_CustomAttributesCacheGenerator_UTF7Encoding_GetHashCode_m359766848P21CustomAttributesCache
fpi:_GameObject_AddComponent_m540062519
Zjb:__ZN15dense_hashtableINSt3__24pairIKiN4core17string_with_labelILi1EEEEEi18SInt32HashFunctionN14dense_hash_mapIiS5_S7_NS0_8equal_toIiEE13stl_allocatorIS6_L18MemLabelIdentifier1ELi16EEE9SelectKeyESA_SD_E9copy_fromERKSG_j
PPa:__ZN6Camera11ResetAspectEv
a8f:_Type_get_IsGenericType_m3396841573
oeb:__ZN15ResourceManagerD0Ev
ELf:_X509BasicConstraintsExtension_get_HasPathLengthConstraint_m3788532759
ITa:__ZNK17InstancedPropInfo22FillInstancePropertiesER19ShaderPropertySheetjPK17BatchInstanceDatajRK15RenderNodeQueue
MOa:__ZN22CreateGpuProgramOutputD2Ev
LBb:__Z18Transfer_BlittableI19StreamedBinaryWriteILb0EELb1EsEvRK29SerializationCommandArgumentsR31RuntimeSerializationCommandInfo
Amd:_RSACryptoServiceProvider_EncryptValue_m802714447
AEg:__ZL76Convert_t2607082565_CustomAttributesCacheGenerator_Convert_ToByte_m932798552P21CustomAttributesCache
iW:__ZN13ProduceHelperI13AudioListenerLb0EE7ProduceE18MemLabelIdentifier18ObjectCreationMode
RI:__ZN7mecanim9animation23BlendDirectDataConstant8TransferI14SafeBinaryReadEEvRT_
AHi:_InvokableCall_1__ctor_m2021220028_gshared
j0i:_WillRenderCanvases_Invoke_m4267547094
Q1e:_List_1_System_Collections_ICollection_get_SyncRoot_m1594235606_gshared
o2d:_DateTimeFormatInfo_GetInstance_m3133223810
Ptf:_ModulusRing_BarrettReduction_m2802101099
kqb:__ZN12HandlerChain4OpenER13FileEntryData14FilePermission16FileAutoBehavior
dLh:_EqualityComparer_1_get_Default_m2134906921_gshared
Hlg:_MonoMethodInfo_GetParametersInfo_m3456861922
Fkj:__ZN15dense_hashtableINSt3__24pairIK10KeyWrapperINS1_IPK10MethodInfoP11Il2CppClassEEEjEES9_17ReflectionMapHashIS8_EN14dense_hash_mapIS9_jSD_NS9_14EqualsComparerINS0_8equal_toIS8_EEEENS0_9allocatorISB_EEE9SelectKeyESI_SK_E6insertERKSB_
bCh:_ValueCollection_System_Collections_Generic_ICollectionU3CTValueU3E_Remove_m4188992987_gshared
M9:__ZN14FileCacherReadD2Ev
yhb:__ZN13RendererScene23UpdatePreviousFrameDataEii
Pmd:_RSAPKCS1SignatureDeformatter_VerifySignature_m1825067195
iAi:_RectTransform_remove_reapplyDrivenProperties_m52143263
XWi:__ZL25UnresolvedVirtualCall_123P12Il2CppObjectffPK10MethodInfo
Ilc:__Z50Register_UnityEngine_CullingGroup_FinalizerFailurev
e_e:_KeyValuePair_2_ToString_m2613351884_gshared
gib:__ZN27UnloadUnusedAssetsOperationD0Ev
kB:__ZN26AnimatorControllerPlayable6MemoryD2Ev
l_g:__ZL69ColorBlock_t2652774230_CustomAttributesCacheGenerator_m_DisabledColorP21CustomAttributesCache
Qxf:_CipherSuite_get_Code_m3902213587
YNh:_Scrollbar__ctor_m2244981801
UXf:_ObjectRecord_get_HasPendingFixups_m670959802
$2i:_AnimationLayerMixerPlayable__ctor_m678972180
rnd:_SHA256Managed_HashCore_m4111458495
Ife:_CultureInfo_get_CompareInfo_m3085280862
cKg:__ZL89Application_t354826772_CustomAttributesCacheGenerator_Application_get_isEditor_m506138946P21CustomAttributesCache
SXf:_ObjectManager_RecordDelayedFixup_m1895730844
_vj:__ZNK15dense_hashtableINSt3__24pairIK10KeyWrapperIP14Il2CppIUnknownEjEES5_N6il2cpp5utils11PointerHashIS3_EEN14dense_hash_mapIS5_jSB_NS5_14EqualsComparerINS0_8equal_toIS4_EEEENS0_9allocatorIS7_EEE9SelectKeyESG_SI_E12test_deletedERK24dense_hashtable_iteratorIS7_S5_SB_SK_SG_SI_E
y7e:_List_1_System_Collections_IList_get_IsFixedSize_m3522184224_gshared
VM:__ZN9AudioClip23VirtualRedirectTransferER18StreamedBinaryReadILb0EE
hAf:_ClientSessionInfo_CheckDisposed_m1394638186
IZf:_SByte_Parse_m2544167007
usd:_Single_CompareTo_m2081476257
Abe:_StackFrame_GetILOffset_m115192054
XYf:_RuntimeTypeHandle_GetHashCode_m3697629454_AdjustorThunk
Hye:_BigInteger__ctor_m2945783161
TBf:_TlsClientHello_Update_m1723542631
Gzi:_RectOffset_set_top_m1587840032
Izg:__ZL96ProxyAttribute_t4031752430_CustomAttributesCacheGenerator_ProxyAttribute_IsContextOK_m2391079277P21CustomAttributesCache
QJe:_IndexOutOfRangeException__ctor_m3497760912
bqf:_ReadOnlyCollection_1_CopyTo_m1652036789_gshared
Ej:_glCopyTexSubImage2D
OUf:_RealProxy_InternalGetTransparentProxy_m3415358600
Qbc:__ZNK24RendererAnimationBinding13GetFloatValueERKN11UnityEngine9Animation10BoundCurveE
B_:__ZNK15DownloadHandler14HasPendingDataEv
Yef:_Collection_1_Insert_m3594407958_gshared
w$e:_Enumerator_System_Collections_IEnumerator_Reset_m2200349770_gshared
HFj:__ZN6il2cpp6icalls8mscorlib6System7Convert24InternalFromBase64StringEP12Il2CppStringb
uod:_SymmetricAlgorithm_CreateDecryptor_m4240570785
MTh:_Text_get_preferredWidth_m3352156860
G_g:__ZL87U3CDelayedDestroyDropdownListU3Ec__Iterator0_t3461999471_CustomAttributesCacheGeneratorP21CustomAttributesCache
Ncg:_AssemblyCompanyAttribute__ctor_m1217508649
U8c:__ZN2UI13CanvasManager14GetRenderOrderEPKNS_6CanvasE
dub:__Z18Transfer_BlittableI14SafeBinaryReadLb0E5RectTIfEEvRK29SerializationCommandArgumentsR31RuntimeSerializationCommandInfo
nhd:__ZNK20UnityWebRequestProtoI24UnityWebRequestTransport16AtomicRefCounter14RedirectHelper14ResponseHelper15DownloadHandler13UploadHandler12HeaderHelper14AsyncOperationE14GetUploadBytesEv
Jpf:_ReadOnlyCollection_1_System_Collections_Generic_IListU3CTU3E_RemoveAt_m878653284_gshared
cge:_DateTimeFormatInfo_GetFormat_m3676195179
uoa:__ZN14GfxContextGLES14GetFramebufferEv
h_j:_emscripten_glGenVertexArrays__wrapper
hra:__ZN6prcoreL21CreateRemapAnyBlitterE13TextureFormatS0_
XNj:__ZN6il2cpp2os5Event4WaitEjb
bhc:__ZN17AnimationCurveTplIfE16StripInvalidKeysEv
_me:_Array_InternalArray__ICollection_Add_TisKeyValuePair_2_t3716250094_m2381539361_gshared
$ni:_InvokableCall_add_Delegate_m1994890856
RFe:_X509Extension_WriteLine_m2850991173
K7c:__ZNK2UI6Canvas17GetSortingLayerIDEv
rqg:__ZL40UIntPtr_t_CustomAttributesCacheGeneratorP21CustomAttributesCache
VMc:__ZN14Raycast2DQuery8RunQueryEb
x7b:__Z13RegisterClassI17GlobalGameManagerEvv
C3a:__ZN8Renderer24SetupNewRendererForSceneEv
l2g:__ZL70GridLayoutGroup_t1515633077_CustomAttributesCacheGenerator_m_StartAxisP21CustomAttributesCache
Qhe:_Array_InternalArray__ICollection_Remove_TisInt64_t909078037_m2653583130_gshared
CZi:_TextGenerator_Populate_Internal_m65392018
x3f:_Thread_get_ExecutionContext_m922067206
gue:_BaseInvokableCall_ThrowOnInvalidArg_TisInt32_t2071877448_m2823200566_gshared
fAc:__Z35Transfer_Blittable_FixedBufferFieldI8JSONReadtEvRK29SerializationCommandArgumentsR31RuntimeSerializationCommandInfo
Tzf:_RecordProtocol_get_Context_m2688493529
lRa:__ZN4PPtrI7TextureE8TransferI14SafeBinaryReadEEvRT_
pec:__ZN14PlayableOutput6HandleEv
k5a:__ZNK6Sprite22GetTypeVirtualInternalEv
CPh:_ScrollRect_get_viewport_m3177057249
sn:FUNCTION_TABLE_iiiiiiiiiiiiii
Wgh:__Z100RuntimeInvoker_Void_t1841601450_SByte_t454417549_SByte_t454417549_Int32_t2071877448_SByte_t454417549PFvvEPK10MethodInfoPvPS4_
ngd:__ZN19UnityConnectService18OnPlayerQuitStaticEPS_
SYc:_UNITY_tt_get_cmap_info
Ivd:_DecoderExceptionFallback_GetHashCode_m2972426052
QAb:__Z29Transfer_Blittable_ArrayFieldI24GenerateTypeTreeTransfer5RectTIiEEvRT_R9ArrayInfoRK23StaticTransferFieldInfo
YUa:__ZN16ReflectionProbes8ScheduleEN18ReflectionProbeJob7JobTypeEP15ReflectionProbei
Ajf:_Collection_1_IsFixedSize_m3675221982_gshared
kFg:__ZL77Convert_t2607082565_CustomAttributesCacheGenerator_Convert_ToSByte_m883113940P21CustomAttributesCache
F0e:_Enumerator_MoveNext_m3293920409_AdjustorThunk
rGa:__Z18IsDirectoryCreatedRKN4core12basic_stringIcNS_20StringStorageDefaultIcEEEE
Shg:_GenericTypeParameterBuilder_get_DeclaringType_m1652924692
F6c:__ZN2UI13CanvasManagerD2Ev
i6h:_Comparer_1__cctor_m3112251759_gshared
Z0g:__ZL73ScrollRect_t1199013257_CustomAttributesCacheGenerator_m_VerticalScrollbarP21CustomAttributesCache
OKf:_X509KeyUsageExtension_ToString_m1992050580
SUc:_UNITY_FT_GlyphLoader_Done
xbg:_ValueType_DefaultEquals_m2245650968
Sgi:_BalancingGroup__ctor_m2474435406
lrh:__Z49RuntimeInvoker_Int32_t2071877448_Byte_t3683104436PFvvEPK10MethodInfoPvPS4_
B9h:_ConstructionCall__ctor_m1143766850
SPg:__ZL108DefaultExecutionOrder_t2717914595_CustomAttributesCacheGenerator_DefaultExecutionOrder_get_order_m3383619944P21CustomAttributesCache
j6h:_Comparer_1_System_Collections_IComparer_Compare_m3203078743_gshared
ZAf:_Context_get_RandomSC_m1687420621
nNc:__ZN19OverlapPointQuery2D14InitializeAABBER6b2AABB
UVg:__ZL67GUISkin_t1436893342_CustomAttributesCacheGenerator_m_verticalSliderP21CustomAttributesCache
m$b:__ZNK21IntermediateRenderers16GetBoundingBoxesEv
GZc:_tt_cmap14_char_var_index
rHb:__Z35Transfer_Blittable_FixedBufferFieldI18StreamedBinaryReadILb0EEdEvRK29SerializationCommandArgumentsR31RuntimeSerializationCommandInfo
$_c:_psh_globals_new
BRe:_FileStream_Seek_m950719389
GAd:_StandaloneInputModule_set_allowActivationOnMobileDevice_m2631121618
A3d:_Decimal_stripStyles_m294582157
kha:__ZN9GfxDevice20SetMaxBufferedFramesEi
JVc:__ZNK20TextRenderingPrivate8TextMesh22GetTypeVirtualInternalEv
mph:__Z72RuntimeInvoker_Boolean_t3825574718_TypeU26_t1535498077_Int32_t2071877448PFvvEPK10MethodInfoPvPS4_
b9g:__Z98RuntimeInvoker_Void_t1841601450_Int32_t2071877448_Int32_t2071877448_RuntimeObject_SByte_t454417549PFvvEPK10MethodInfoPvPS4_
LDc:__ZN10Collider2D19WakeAllBodyContactsEv
PR:__ZN24AudioScriptBufferManagerD2Ev
gUj:dynCall_vdd
t8c:__ZN2UIL17UnloadAllCanvasesEv
Z4b:__Z23ConvertIntegerToTypePtrIsEbPvR14SafeBinaryRead
tyg:__ZL54_MethodBase_t1935530873_CustomAttributesCacheGeneratorP21CustomAttributesCache
iGc:__ZN12b2MouseJoint11ShiftOriginERK6b2Vec2
$Kh:_EqualityComparer_1__ctor_m99476293_gshared
$tf:_BigInteger_Incr2_m505983313
FWd:_ArrayList_get_Count_m523955479
Ibh:__Z96RuntimeInvoker_Void_t1841601450_SByte_t454417549_RuntimeObject_SByte_t454417549_SByte_t454417549PFvvEPK10MethodInfoPvPS4_
$Xd:_FixedSizeArrayListWrapper_Remove_m1359458911
xli:_CameraCallback_Invoke_m2640212610
FCi:_Touch_get_position_m261108426_AdjustorThunk
pra:__ZN6prcoreL29inner_stretch_rgb565_bilinearEPKNS_9InnerInfoE
mii:_Uri__ctor_m3927533881
Sij:__ZNK15dense_hashtableINSt3__24pairIK10KeyWrapperINS1_IPK14Il2CppAssemblyP11Il2CppClassEEEjEES9_17ReflectionMapHashIS8_EN14dense_hash_mapIS9_jSD_NS9_14EqualsComparerINS0_8equal_toIS8_EEEENS0_9allocatorISB_EEE9SelectKeyESI_SK_E12test_deletedEj
Cad:__Z33Canvas_Get_Custom_PropWorldCameraP12Il2CppObject
_Sh:_Text_get_mainTexture_m813502234
LNj:__ZN6il2cpp8metadata19Il2CppSignatureHash4HashERKNS_5utils13dynamic_arrayIPK10Il2CppTypeLj4EEE
LYb:__ZNK14RenderSettings19GetFlatAmbientColorEv
Jqa:__ZN6prcoreL10inner_flipILj4EEEvPhS1_j
$cb:__ZN18StreamedBinaryReadILb0EE21TransferSTLStyleArrayI10vector_mapIPKN5Unity4TypeE7Hash128NSt3__24lessIS6_EENS8_9allocatorINS8_4pairIS6_S7_EEEEEEEvRT_17TransferMetaFlags
oC:__ZNK27StateMachineBehaviourPlayer15IsSenderEnabledEv
Gwh:_Enumerator_VerifyState_m2118679243_gshared
pLd:_InputField_get_shouldHideMobileInput_m3694613599
drc:__Z40Register_UnityEngine_Transform_SetParentv
JEf:_SslClientStream_get_HaveRemoteValidation2Callback_m3555576758
Pfh:__Z56RuntimeInvoker_TimeSpan_t3430258949_TimeSpan_t3430258949PFvvEPK10MethodInfoPvPS4_
b7a:__ZN14Texture2DArray17UploadToGfxDeviceEv
dpf:_ReadOnlyCollection_1_System_Collections_Generic_IListU3CTU3E_Insert_m4216310986_gshared
Rlf:_ReadOnlyCollection_1_System_Collections_Generic_IListU3CTU3E_set_Item_m1532495847_gshared
MQ:__Z14FMODMemoryFreePvjPKc
OKg:__ZL103Camera_t189460977_CustomAttributesCacheGenerator_Camera_INTERNAL_CALL_ScreenToViewportPoint_m2554844623P21CustomAttributesCache
vWh:_InternalEnumerator_1_System_Collections_IEnumerator_Reset_m3731327620_AdjustorThunk
CSg:__ZL94Physics2D_t2540166467_CustomAttributesCacheGenerator_Physics2D_Raycast_m298439588____minDepth4P21CustomAttributesCache
cZg:__ZL104PointerEventData_t1599784723_CustomAttributesCacheGenerator_PointerEventData_get_worldNormal_m1704987468P21CustomAttributesCache
XFi:_YieldInstruction_t3462875981_marshal_pinvoke_cleanup
SKd:_Image_AddQuad_m1600600902
q0c:_cf2_glyphpath_moveTo
SCc:__ZNK13BoxCollider2D22GetTypeVirtualInternalEv
TBd:_AnimationTriggers_set_disabledTrigger_m609579531
Vug:__ZL47File_t1930543328_CustomAttributesCacheGeneratorP21CustomAttributesCache
C8d:_DateTimeOffset__ctor_m1796624924
Eci:_Identity_get_ChannelSink_m3989446673
exd:_BaseRaycaster_OnDisable_m1716508791
Sy:__ZN7mecanim23TransformValueArrayLoopEiiiRKN4math4trsXES3_RNS_10ValueArrayEf
_0h:_InternalEnumerator_1_MoveNext_m1741571735_gshared
xtc:__ZN5IMGUI14GUIWindowStateD2Ev
xqg:__ZL82Enum_t2459695545_CustomAttributesCacheGenerator_Enum_GetUnderlyingType_m3513899012P21CustomAttributesCache
MJj:_GC_is_heap_ptr
sCf:_TlsServerSettings_set_CertificateRequest_m3419519893
RSi:_UIFollowObject_Start_m3775554015
LCi:_TouchScreenKeyboard_Open_m2033426733
zF:__ZN7mecanim5human10RetargetToEPKNS0_5HumanEPKNS0_9HumanPoseES6_RKN4math4trsXEPS4_PNS_8skeleton13SkeletonPoseTIS8_EESF_
Ky:__ZN7mecanim9animation8SeekClipERKNS0_12StreamedClipERNS0_18StreamedClipMemoryEf
e8f:_Type_get_IsGenericParameter_m161434704
vig:_MethodBuilder_get_Attributes_m3678061338
jm:_emscripten_glIsTexture
Qt:__ZN24CompressedAnimationCurveaSERKS_
HXd:_ArrayListWrapper_CopyTo_m793444109
yFg:__ZL79Convert_t2607082565_CustomAttributesCacheGenerator_Convert_ToUInt16_m3265369225P21CustomAttributesCache
Qk:_emscripten_glHint
yuh:__Z33RuntimeInvoker_Color32_t874517518PFvvEPK10MethodInfoPvPS4_
DPc:__ZZN10Collider2D15InitializeClassEvEN30FunctorImpl_98kDidAddComponent4CallEPviR11MessageData
x3c:_ft_var_readpackeddeltas
M7d:_DateTime_AddMilliseconds_m1813199744_AdjustorThunk
oZf:_SByte_System_IConvertible_ToSByte_m108774324_AdjustorThunk
zig:_MethodBuilder_GetParameterCount_m467267889
nGj:__ZThn4_N6il2cpp2vm13CachedCCWBaseINS0_13ManagedObjectEE6AddRefEv
UDb:__Z35Transfer_Blittable_FixedBufferFieldI18StreamedBinaryReadILb1EEtEvRK29SerializationCommandArgumentsR31RuntimeSerializationCommandInfo
cOf:_X509ChainStatus_t4278378721_marshal_pinvoke
eAi:_RectTransform_INTERNAL_get_pivot_m4220117653
Iwf:_RSAManaged__ctor_m1680944437
mm:_SDL_UpperBlit
UUa:__Z35GetTextureDecodeValuesWithIntensity16TextureUsageMode17TextureColorSpace10ColorSpacef
LUd:_Byte_GetHashCode_m2885528842_AdjustorThunk
Voj:__ZN15dense_hashtableINSt3__24pairIK10KeyWrapperINS1_IPK9EventInfoP11Il2CppClassEEEjEES9_17ReflectionMapHashIS8_EN14dense_hash_mapIS9_jSD_NS9_14EqualsComparerINS0_8equal_toIS8_EEEENS0_9allocatorISB_EEE9SelectKeyESI_SK_E15set_deleted_keyERKSB_
HDh:_Dictionary_2_OnDeserialization_m2092139626_gshared
dGc:__ZNK12b2MouseJoint10GetAnchorAEv
loi:_PersistentCall__ctor_m3653852388
JJb:__ZN14SafeBinaryRead20OverrideRootTypeNameEPKc
R3i:__ZNK10KeyWrapperIPK22Il2CppGenericParameterE14EqualsComparerINSt3__28equal_toIS2_EEEclERKS3_SA_
Q9:__ZN14FileCacherRead16UnlockCacheBlockEj
WEe:_X509Certificate_GetUnsignedBigInteger_m3491353542
yxb:__Z18Transfer_BlittableI17RemapPPtrTransferLb1E8Vector3fEvRK29SerializationCommandArgumentsR31RuntimeSerializationCommandInfo
Uvg:__ZL57StackBehaviour_t1390406961_CustomAttributesCacheGeneratorP21CustomAttributesCache
Nc:_emscripten_glUniform1f
Q6b:__ZN13dynamic_arrayIS_I8Vector2fLj4EELj4EE18resize_initializedEjRKS1_12ResizePolicy
gFf:_SslStreamBase_get_MightNeedHandshake_m3432170694
rVc:__Z20ParseImageParametersR11UTF16StringRiRN20TextRenderingPrivate16TextFormatChangeE
lsi:_NativeClassAttribute__ctor_m3728148471
Sc:_emscripten_glUniform1i
b$h:_InternalEnumerator_1_System_Collections_IEnumerator_Reset_m651165750_AdjustorThunk
mzb:__Z18Transfer_BlittableI24GenerateTypeTreeTransferLb1EN4math12int3_storageEEvRK29SerializationCommandArgumentsR31RuntimeSerializationCommandInfo
S3:__Z33UnregisterDeviceEventCallbackImplPFv23UnityGfxDeviceEventTypeE
eOh:__Z14bankers_roundff
Clb:__ZN9ShaderLab16SerializedTagMapaSERKS0_
Yie:_SetPropertyUtility_SetStruct_TisFillMethod_t1640962579_m1867757822_gshared
XY:__ZN11UnityEngine15CloudWebService16SessionContainer20RestoreSessionHeaderERKN4core12basic_stringIcNS2_20StringStorageDefaultIcEEEES8_RNS0_13SessionHeaderE
q8d:_DateTime_ToString_m1117481977
Hhd:__ZN22UnityWebRequestManager13BackendRetainEv
Rke:__ZN21InterfaceFuncInvoker2Ii22UILineInfo_t3621277874S0_E6InvokeEjP11Il2CppClassP12Il2CppObjectS0_S0_
Whg:_GenericTypeParameterBuilder_GetGenericArguments_m277381309
Zuh:__Z63RuntimeInvoker_KeyValuePair_2_t888819835_IntPtr_t_RuntimeObjectPFvvEPK10MethodInfoPvPS4_
KG:__ZN11UnityEngine9Animation27CreateAvatarBindingConstantER9TransformPKN7mecanim9animation14AvatarConstantERNS3_6memory9AllocatorE
YLg:__ZL77Gradient_t3600583008_CustomAttributesCacheGenerator_Gradient_Init_m3042650694P21CustomAttributesCache
nag:_UInt64_System_IConvertible_ToDateTime_m2412118561
dkc:__ZN9BlobWriteC2ER13dynamic_arrayIhLj16EE24TransferInstructionFlags19BuildTargetPlatform
bdg:_AssemblyName_get_Version_m3495645648
_7:__ZN14MessageHandler3GetEv
Yoa:__ZN10DynamicVBO9DrawChunkERK21DynamicVBOChunkHandle17ShaderChannelMaskS3_P17VertexDeclarationPKNS_10DrawParamsEi
ed:_emscripten_glAttachShader
Wnf:_ReadOnlyCollection_1__ctor_m1539890895_gshared
jha:__ZN9GfxDevice13SetActiveTierE12GraphicsTier
p$e:_Enumerator_System_Collections_IEnumerator_get_Current_m3079057684_AdjustorThunk
r9e:_List_1_System_Collections_ICollection_get_SyncRoot_m1804424478_gshared
Ibb:__ZNSt3__26vectorIN4core12basic_stringIcNS1_20StringStorageDefaultIcEEEENS_9allocatorIS5_EEE6assignIPS5_EENS_9enable_ifIXaasr21__is_forward_iteratorIT_EE5valuesr16is_constructibleIS5_NS_15iterator_traitsISC_E9referenceEEE5valueEvE4typeESC_SC_
MBe:_KeyPairPersistence_get_UserPath_m3433052783
pgf:_Collection_1_ClearItems_m1410275009_gshared
Dvh:__Z36RuntimeInvoker_Enumerator_t975728254PFvvEPK10MethodInfoPvPS4_
Rpg:__ZL58Decimal_t724701077_CustomAttributesCacheGenerator_MinusOneP21CustomAttributesCache
cke:_Array_InternalArray__IEnumerable_GetEnumerator_TisKeyframe_t1449471340_m3949799719_gshared
Mtb:__Z18Transfer_BlittableI14SafeBinaryReadLb0E11QuaternionfEvRK29SerializationCommandArgumentsR31RuntimeSerializationCommandInfo
PCc:__ZN13BoxCollider2D16CheckConsistencyEv
$Gb:__Z18Transfer_BlittableI18StreamedBinaryReadILb0EELb1E12PropertyNameEvRK29SerializationCommandArgumentsR31RuntimeSerializationCommandInfo
lMd:_InputField_get_inputType_m2187991661
s1:_tlsf_walk_heap
uEe:_PKCS12_Decode_m731190390
grj:__ZNK15dense_hashtableINSt3__24pairIK10KeyWrapperIP11Il2CppClassES4_EES5_N6il2cpp8metadata16SZArrayClassHashEN14dense_hash_mapIS5_S4_SA_NS5_14EqualsComparerINS9_19SZArrayClassCompareEEENS0_9allocatorIS7_EEE9SelectKeyESE_SG_E10test_emptyERK24dense_hashtable_iteratorIS7_S5_SA_SI_SE_SG_E
uMi:_GUIContent_set_image_m3266329364
D0h:_InternalEnumerator_1_get_Current_m1550231132_gshared
Rgi:_Reference_get_IgnoreCase_m2810892634
Dbg:_Version_CheckedSet_m76493673
mb:invoke_vif
ZUh:_U3CGetEnumeratorU3Ec__Iterator0_Dispose_m2403602883_gshared
nb:invoke_vid
fSj:__ZNSt3__212basic_stringIcNS_11char_traitsIcEENS_9allocatorIcEEE6insertEjPKc
FCg:__ZL67UnverifiableCodeAttribute_t765455733_CustomAttributesCacheGeneratorP21CustomAttributesCache
ob:invoke_vii
gSb:__ZNK12ImageFilters8DoRenderER17ShaderPassContextP13RenderTextureS3_RKNSt3__26vectorI11ImageFilterNS4_9allocatorIS6_EEEE
a1g:__ZL82ScrollRect_t1199013257_CustomAttributesCacheGenerator_m_HorizontalScrollbarSpacingP21CustomAttributesCache
EJd:_LayoutGroup_get_padding_m1653511445
cFa:__ZN12TLSAllocatorI14StackAllocatorE16ThreadInitializeEP13BaseAllocator
dXd:_ArrayList_Sort_m2778059513
Kha:__ZN9GfxDevice32UpdateStereoViewProjectionMatrixE21MonoOrStereoscopicEye
SOb:__ZN15dense_hashtableINSt3__24pairIKN4core12basic_stringIcNS2_20StringStorageDefaultIcEEEEP20ArchiveStorageReaderEES6_20StringHash32FunctionIS6_EN14dense_hash_mapIS6_S9_SC_NS0_8equal_toIS6_EE13stl_allocatorISA_L18MemLabelIdentifier55ELi16EEE9SelectKeyESF_SI_E12resize_deltaEjj
JJd:_LayoutGroup_SetChildAlongAxis_m2732017156
J9c:__Z41CanvasRenderer_CUSTOM_DisableRectClippingP12Il2CppObject
zvf:_MD2_Create_m539024737
g0d:_SortedList_get_SyncRoot_m3299704254
H1e:_List_1_System_Collections_ICollection_CopyTo_m2020941110_gshared
I0d:_Slot_t2267560602_marshal_pinvoke
Yhh:__Z112RuntimeInvoker_Void_t1841601450_RuntimeObject_Int32_t2071877448_Int32_t2071877448_RuntimeObject_SByte_t454417549PFvvEPK10MethodInfoPvPS4_
BTf:_SoapAttribute_get_XmlNamespace_m1436066016
tJa:__ZN25SingleBlockMemoryFileDataD0Ev
mFa:__ZNSt3__26vectorI14ConstantStringNS_9allocatorIS1_EEE6assignINS_11__wrap_iterIPS1_EEEENS_9enable_ifIXaasr21__is_forward_iteratorIT_EE5valuesr16is_constructibleIS1_NS_15iterator_traitsISA_E9referenceEEE5valueEvE4typeESA_SA_
SY:__ZN11UnityEngine15CloudWebService16SessionContainer21ConvertFromFolderTimeERKN4core12basic_stringIcNS2_20StringStorageDefaultIcEEEEPjPt
xvb:__ZNSt3__26vectorI8GUIStyle13stl_allocatorIS1_L18MemLabelIdentifier1ELi16EEE7reserveEj
Zsj:__ZN6il2cpp6icalls8mscorlib6System9Threading6Thread27GetSerializedCurrentCultureEP12Il2CppThread
kme:_Array_InternalArray__IndexOf_TisUInt32_t2149682021_m3231515987_gshared
OKi:_ListPool_1__cctor_m709904475_gshared
x9b:__Z31CalculateHierarchyTransformType23TransformAccessReadOnly
V7b:__Z13RegisterClassI11TimeManagerEvv
DQ:__ZN4FMOD8ChannelI11setPositionEjj
GIc:__ZN10Collider2D12SetPolygon2DEP9Polygon2D
Aah:__Z136RuntimeInvoker_IntPtr_t_RuntimeObject_Int32_t2071877448_Int32_t2071877448_Int32_t2071877448_Int32_t2071877448_MonoIOErrorU26_t1029615899PFvvEPK10MethodInfoPvPS4_
R1g:__ZL75ToggleGroup_t1030026315_CustomAttributesCacheGenerator_U3CU3Ef__amU24cache1P21CustomAttributesCache
wci:_SynchronizedClientContextSink__ctor_m978504596
Nha:__ZN9GfxDevice17SetStereoViewportE15StereoscopicEyeRK5RectTIiE
_ea:__ZN17BaseObjectManager13StaticDestroyEPv
k9d:_DBNull_System_IConvertible_ToChar_m3344298044
qdi:_LinkStack_Push_m2660199875
wP:__ZN4FMOD6Reverb13setPropertiesEPK22FMOD_REVERB_PROPERTIES
nqj:__ZN15dense_hashtableINSt3__24pairIK10KeyWrapperIP11Il2CppClassES4_EES5_N6il2cpp8metadata16SZArrayClassHashEN14dense_hash_mapIS5_S4_SA_NS5_14EqualsComparerINS9_19SZArrayClassCompareEEENS0_9allocatorIS7_EEE9SelectKeyESE_SG_E5clearEv
UTb:__ZN9DepthPass13PrepareSubsetEjRK10RenderNodeifRK17ShaderReplaceData
n2f:_UTF32Encoding_GetPreamble_m767706727
Qti:_X509CertificateCollection_Add_m4008705157
TSf:_MonoMethodMessage_set_Uri_m3218581120
CMg:__ZL108TouchScreenKeyboard_t601950206_CustomAttributesCacheGenerator_TouchScreenKeyboard_Open_m2033426733____alert5P21CustomAttributesCache
jTi:_AudioMixerPlayable_GetHandle_m3697423575_AdjustorThunk
zgc:__Z35SetMeshComponentFromArrayFromScriptR4Mesh30InternalScriptingShaderChannel34InternalScriptingVertexChannelTypei17ScriptingArrayPtri
Ppf:_ReadOnlyCollection_1_System_Collections_IList_Add_m3806843030_gshared
cTa:__ZN4PPtrI6ShaderE8TransferI19StreamedBinaryWriteILb0EEEEvRT_
Igf:_Collection_1_IsFixedSize_m1816795498_gshared
jq:__ZN4core20StringStorageDefaultIcE6assignEPKcj
Zbh:__Z111RuntimeInvoker_Void_t1841601450_RuntimeObject_SByte_t454417549_ObjectU26_t597476745_HeaderU5BU5DU26_t2818328198PFvvEPK10MethodInfoPvPS4_
czj:__ZN15dense_hashtableINSt3__24pairIK10KeyWrapperIP12Il2CppObjectEN6il2cpp2gc9CachedCCWEEES5_NS7_5utils11PointerHashIS3_EEN14dense_hash_mapIS5_S9_SD_NS5_14EqualsComparerINS0_8equal_toIS4_EEEENS0_9allocatorISA_EEE9SelectKeyESI_SK_E3endEv
qAd:_MouseButtonEventData_ReleasedThisFrame_m482758300
ZAi:_SceneManager_Internal_SceneLoaded_m1729738062
Jej:__ZN6il2cpp2vm7Runtime33CreateUnhandledExceptionEventArgsEP15Il2CppException
eYd:_ReadOnlyArrayListWrapper_set_Item_m2199017141
b1b:__ZN6Camera6SetFarEf
Lti:_DeriveBytes_DeriveIV_m3343375195
pWc:_UNITY_FT_Init_Class_ft_bitmap_glyph_class
hmd:_RNGCryptoServiceProvider_GetBytes_m167497991
Zra:__ZN6prcoreL12RemapGenericI17TexFormatABGR888817TexFormatARGB8888EEvPKNS_9InnerInfoE
EKa:__ZN11GameManager17MainThreadCleanupEv
BBi:_SetupCoroutine_InvokeMember_m170868586
obd:__Z50Register_UnityEngine_UISystemProfilerApi_EndSamplev
Ujh:__Z60RuntimeInvoker_Boolean_t3825574718_PlayableOutput_t988259697PFvvEPK10MethodInfoPvPS4_
Wfg:_TypeBuilder_get_Assembly_m492491492
Kb:invoke_vffff
Cif:_Collection_1_InsertItem_m1225429801_gshared
_Cc:__ZN10Collider2D12AddToManagerEv
n2c:_UNITY_tt_slot_init
LPb:__ZZ23InitPlayerLoopCallbacksvEN41PostLateUpdateUpdateResolutionRegistrator7ForwardEv
hle:_Array_FindLastIndex_TisRuntimeObject_m986818300_gshared
HIb:__Z25scripting_array_class_get17ScriptingClassPtrj
hyc:__ZL22Transfer_ManagedObjectI9JSONWriteLb1EEvRK29SerializationCommandArgumentsR31RuntimeSerializationCommandInfo
DM:__ZNK10SampleClip22GetTypeVirtualInternalEv
Sia:__ZN9GfxDevice20DestroyRenderSurfaceER12ObjectHandleI17RenderSurface_TagP17RenderSurfaceBaseE
Qfa:__ZN18SpriteAtlasManagerC2Ev
m6b:__ZL24PrepareSpriteRenderNodesILb1EEvR35RenderNodeQueuePrepareThreadContext
CBa:__ZN9GfxDevice22UpdateComputeResourcesEjPK9TextureIDPK16TextureDimensionPKijPKjjPK15ComputeBufferIDS7_PK20ComputeBufferCounterjSC_S2_S5_S9_SF_
NNa:__ZN12_GLOBAL__N_15qAsinEff
Bte:_Dictionary_2_Do_ICollectionCopyTo_TisKeyValuePair_2_t3749587448_m2536766696_gshared
dFa:__ZN12TLSAllocatorI14StackAllocatorE13ThreadCleanupEv
clh:__Z154RuntimeInvoker_RaycastHit2D_t4063908774_Vector2_t2243707579_Vector2_t2243707579_Single_t2076509932_Int32_t2071877448_Single_t2076509932_Single_t2076509932PFvvEPK10MethodInfoPvPS4_
dN:__Z18GetAudioManagerPtrv
lle:_Array_IndexOf_TisRuntimeObject_m1815604637_gshared
g2e:_List_1_GetEnumerator_m2837081829_gshared
rFj:__ZThn4_N6il2cpp2vm13ComObjectBase16MarshalInterfaceEP13Il2CppIStreamRK10Il2CppGuidPvjS7_j
o8a:__ZN4Mesh27SwizzleVertexColorsIfNeededEb
sLb:__Z27FindActiveTransformWithPathPKc
RMa:__ZN12BaseRendererD0Ev
Q4b:__Z29StdTemplateConversionFunctionIbyEbPvR14SafeBinaryRead
fhh:__Z44RuntimeInvoker_X509KeyUsageFlags_t2461349531PFvvEPK10MethodInfoPvPS4_
wxi:_PropertyName_op_Inequality_m2830582941
_Fe:_SecurityParser_OnEndElement_m2909940377
qXg:__ZL92CanvasRenderer_t261436805_CustomAttributesCacheGenerator_CanvasRenderer_set_cull_m3941605148P21CustomAttributesCache
pNa:__ZNK6Camera7GetNearEv
fva:__ZN7ApiGLES11UnmapBufferEjN2gl12BufferTargetE
BFj:__ZN6il2cpp5utilsL24Utf32CharToSurrogatePairEjRA2_Ds
F0a:__Z25GetNextAllowedTextureSizeib13TextureFormat
kLb:__ZN20LocalFileSystemWebGL4CopyER13FileEntryDataS1_
W6e:_List_1_CheckIndex_m4231572822_gshared
r$:__ZN19CloudServiceHandler6RetainEv
xNj:__ZN6il2cpp2os9Semaphore4WaitEb
TEc:__ZN15b2FrictionJointD0Ev
Nqd:_StrongName_Equals_m67226644
guc:__Z36Event_CUSTOM_Internal_SetNativeEventPv
QNa:__ZN12BaseRenderer20FlattenToRenderQueueER15RenderNodeQueueRK20DeprecatedSourceData
Ygg:_FieldBuilder_get_Attributes_m2174064290
lVe:_UnmanagedMemoryStream_get_Length_m587008850
yib:__Z34scripting_liveness_calculation_endPv
Yrc:__ZNK19RectangleCellLayout13GetCellCenterEv
bDj:__ZN6il2cpp2os6ThreadC2Ev
Ard:_SecurityFrame_InitFromRuntimeFrame_m45195821
nvg:__ZL53TextReader_t1561828458_CustomAttributesCacheGeneratorP21CustomAttributesCache
SMf:_X509Chain_IsSignedWith_m292245392
ey:__ZN21AnimationClipPlayable22ProcessAnimationNoClipEPK35AnimationPlayableEvaluationConstantPK32AnimationPlayableEvaluationInputP33AnimationPlayableEvaluationOutput
ZAj:__ZNK6il2cpp2os10SocketImpl12GetLastErrorEv
Lhe:_Array_InternalArray__ICollection_Remove_TisDateTime_t693205669_m1275668216_gshared
GEh:_Dictionary_2__ctor_m871840915_gshared
_nf:_ReadOnlyCollection_1_System_Collections_Generic_ICollectionU3CTU3E_Remove_m3751131234_gshared
Jzc:__Z18Transfer_BlittableI8JSONReadLb0E8Vector3fEvRK29SerializationCommandArgumentsR31RuntimeSerializationCommandInfo
tt:__ZN13AnimationClip12Vector3Curve8TransferI14SafeBinaryReadEEvRT_
W9h:_ChannelServices__cctor_m3534779830
orj:__ZN6il2cpp2vm6Thread6DetachEP12Il2CppThread
Lzi:_RectOffset_Finalize_m816260249
uDi:_Transform_set_localRotation_m3053695533
n_c:_Render_Single_Pass
s4d:_Convert_ToInt16_m416789348
o$f:_EncoderExceptionFallback_Equals_m762170768
NVi:__ZL24UnresolvedVirtualCall_59P12Il2CppObjectS0_aPK10MethodInfo
VPi:_EqualityComparer_1__cctor_m2666196678_gshared
rRc:__GLOBAL__sub_I_runtime_dynamics_2_cpp
wxh:_Enumerator_get_CurrentValue_m3147984131_AdjustorThunk
QG:__ZN7mecanim8skeleton30SkeletonBuildReverseIndexArrayEPiPKiPKNS0_8SkeletonES6_
lsc:__Z19GetGUIBlendMaterialv
ylh:__Z69RuntimeInvoker_Boolean_t3825574718_TextGenerationSettings_t2543476768PFvvEPK10MethodInfoPvPS4_
wBj:__ZN6il2cpp2os10ThreadImpl5SleepEjb
v4h:_InternalEnumerator_1_System_Collections_IEnumerator_Reset_m3669601605_AdjustorThunk
hwi:_X509ExtensionCollection_System_Collections_IEnumerable_GetEnumerator_m2600902401
njf:_Collection_1_InsertItem_m1073626529_gshared
UIi:_UnityEvent_1_GetDelegate_m2559549291_gshared
MH:__ZN18AnimatorController23VirtualRedirectTransferER24GenerateTypeTreeTransfer
XGf:_ListDictionary_FindEntry_m432748847
JZj:_glBindSampler__wrapper
uKa:__ZNSt3__26vectorIN20ArchiveStorageHeader12StorageBlockE13stl_allocatorIS2_L18MemLabelIdentifier55ELi16EEE8__appendEj
Kf:_emscripten_set_mouseup_callback
rBa:__ZN9GfxDevice27SetRandomWriteTargetTextureEi9TextureID
Pnh:__Z58RuntimeInvoker_Boolean_t3825574718_SpriteState_t1353336012PFvvEPK10MethodInfoPvPS4_
lja:__ZN9GfxDevice47SwitchColorRenderSurfaceOutOfFastMemoryPlatformEP17RenderSurfaceBaseb
jue:_BaseInvokableCall_ThrowOnInvalidArg_TisColor_t2020392075_m3638385415_gshared
_2b:__ZNK18ScreenManagerWebGL8GetWidthEv
iUi:_AudioExtensionManager_GetListenerSpatializerExtensionEditorType_m165088149
pbj:__ZN6il2cpp2vm13MetadataCache33GetFieldDefaultValueDataFromIndexEi
qJd:_GridLayoutGroup_set_startAxis_m1635162426
AM:__ZN10SampleClipD2Ev
Bci:_SynchronizationAttribute_EnterContext_m2984912761
Iqg:__ZL73Enum_t2459695545_CustomAttributesCacheGenerator_Enum_ToObject_m2601523252P21CustomAttributesCache
Vfe:_CultureInfo_construct_internal_locale_from_name_m971766383
vBj:__ZN6il2cpp2os10ThreadImpl13SetWaitObjectEPNS0_5posix15PosixWaitObjectE
NUd:_Byte_Equals_m368616327_AdjustorThunk
Rhb:__Z13GetGISettingsv
Rne:_Array_InternalArray__ICollection_Add_TisUIVertex_t1204258818_m3869382594_gshared
b$:__ZN11UnityEngine15CloudWebService20WebRequestRestClientC2Ev
J1c:_cff_cmap_unicode_init
QRb:__ZNSt3__224__buffered_inplace_mergeIRN10vector_mapIiN17InstancedPropInfo12PropertyTypeENS_4lessIiEE13stl_allocatorINS_4pairIiS3_EEL18MemLabelIdentifier1ELi16EEE13value_compareENS_11__wrap_iterIPS8_EEEEvT0_SH_SH_T_NS_15iterator_traitsISH_E15difference_typeESL_PNSK_10value_typeE
nde:_Enum_ToObject_m2460371738
Eze:_PrimalityTests_Test_m1088386156
T9:__ZN14FileCacherRead13GetFileLengthEv
IFi:_Vector4_SqrMagnitude_m1060560279
FQj:_readlink
xmj:__ZN15dense_hashtableINSt3__24pairIK10KeyWrapperINS1_IPK9EventInfoP11Il2CppClassEEEjEES9_17ReflectionMapHashIS8_EN14dense_hash_mapIS9_jSD_NS9_14EqualsComparerINS0_8equal_toIS8_EEEENS0_9allocatorISB_EEE9SelectKeyESI_SK_E12resize_deltaEjj
ese:_Array_Resize_TisVector3_t2243707580_m893658391_gshared
AYh:_InternalEnumerator_1_System_Collections_IEnumerator_get_Current_m4259662004_AdjustorThunk
Dve:_Array_InternalArray__get_Item_TisKeyframe_t1449471340_m1003508933_gshared
DLj:__ZN6il2cpp8metadata14Il2CppTypeHash4HashEPK10Il2CppType
RMj:__ZN6il2cpp2os13SemaphoreImplC2Eii
sRg:__ZL123UnitySynchronizationContext_t1205147244_CustomAttributesCacheGenerator_UnitySynchronizationContext_ExecuteTasks_m1920809885P21CustomAttributesCache
Odh:__Z50RuntimeInvoker_Double_t4078015681_Int64_t909078037PFvvEPK10MethodInfoPvPS4_
oEe:_StrongName_get_PublicKeyToken_m1968460885
Tab:__ZNK6Sprite9GetBoundsE8Vector2fbb
NQa:__ZNK19RenderEventsContext21CleanupCommandBuffersEv
HI:__ZN7mecanim12statemachine13StateConstant8TransferI14SafeBinaryReadEEvRT_
Dma:__ZN11ContextGLES6CreateEi
UOe:_BinaryReader_Dispose_m4249456877
x3d:_Double_ToString_m1085043609
PHb:__Z19TransferField_ArrayI18StreamedBinaryReadILb0EE27Converter_SimpleNativeClassI17AnimationCurveTplIfEEEvRK23StaticTransferFieldInfoR31RuntimeSerializationCommandInfoRT0_
byf:_CipherSuite_createEncryptionCipher_m1926075645
owi:_Plane__ctor_m730644932
IEa:__ZN14StackAllocator16FrameMaintenanceEb
LId:_Graphic_Raycast_m3582517890
EPc:__ZZN10Collider2D15InitializeClassEvEN33FunctorImpl_99kDidRemoveComponent4CallEPviR11MessageData
Aaa:__ZNK10GameObject20QueryComponentByTypeEPKN5Unity4TypeE
KLi:_GUISkin_MakeCurrent_m1547433985
u0e:_Enumerator_MoveNext_m1367380970_AdjustorThunk
njg:_OpCode_GetHashCode_m2974727122
d0d:_Enumerator_Reset_m466659019
cyf:_CipherSuite_createDecryptionCipher_m1118350455
vei:_PatternCompiler_EmitReference_m1381860071
dce:_Double_System_IConvertible_ToInt16_m4200640326
llh:__Z84RuntimeInvoker_RuntimeObject_RayU26_t3651946800_Single_t2076509932_Int32_t2071877448PFvvEPK10MethodInfoPvPS4_
Q$a:__ZN11TextureData5ResetEv
uPg:__ZL105RectTransform_t3349966182_CustomAttributesCacheGenerator_RectTransform_INTERNAL_get_anchorMin_m3722367822P21CustomAttributesCache
smc:__Z53Register_UnityEngine_GameObject_get_activeInHierarchyv
_hg:_GenericTypeParameterBuilder_get_IsGenericType_m1883522222
rga:__ZN15dense_hashtableINSt3__24pairIKN4core12basic_stringIcNS2_20StringStorageDefaultIcEEEE13dynamic_arrayI4PPtrI6SpriteELj4EEEES6_20StringHash32FunctionIS6_EN14dense_hash_mapIS6_SC_SF_NS0_8equal_toIS6_EE13stl_allocatorISD_L18MemLabelIdentifier81ELi16EEE9SelectKeyESI_SL_EC2ERKSO_j
M5:__ZL30InitializeCoreScriptingClassesv
yjf:_Collection_1_CheckWritable_m3938993573_gshared
Gg:_glBlitFramebuffer
XHa:__ZN17ArchiveFileSystem5TouchER13FileEntryData
CCf:_SecurityParameters_set_Cipher_m3888132335
Mze:_BigInteger_GeneratePseudoPrime_m2606361440
_8d:_DateTimeFormatInfo_get_ShortTimePattern_m20923983
jxb:__Z35Transfer_Blittable_SingleValueFieldI14SafeBinaryReadhEvRT_R17GeneralMonoObjectRK23StaticTransferFieldInfo
h0g:__ZL140U3CMouseDragOutsideRectU3Ec__Iterator1_t2599668326_CustomAttributesCacheGenerator_U3CMouseDragOutsideRectU3Ec__Iterator1_Dispose_m2134284531P21CustomAttributesCache
ffc:__ZN12CachedWriter15CompleteWritingEv
bDe:_EncryptedPrivateKeyInfo_get_Algorithm_m2779196942
xTf:_RemotingServices_GetRealProxy_m620317996
gUb:__ZN13dynamic_arrayI11CulledLightLj4EE6insertEPS0_PKS0_S4_
ZVh:_ArrayReadOnlyList_1_RemoveAt_m2270349795_gshared
U_a:__ZNK12CubemapArray22GetTypeVirtualInternalEv
z$i:_Predicate_1_Invoke_m2060780095_gshared
lbj:__ZN6il2cpp2vm13MetadataCache23GetInterfaceOffsetIndexEi
Qn:FUNCTION_TABLE_vif
Rn:FUNCTION_TABLE_vid
Sn:FUNCTION_TABLE_vii
Jib:__Z40scripting_liveness_calculation_from_root18ScriptingObjectPtrPv
BXa:__ZN7Texture23VirtualRedirectTransferER24GenerateTypeTreeTransfer
XTc:_UNITY_FT_Set_Transform
Gbc:__ZNK32RendererMaterialAnimationBinding12SetPPtrValueERKN11UnityEngine9Animation10BoundCurveEi
qyj:__ZN6il2cpp8metadata15GenericMetadata20RegisterGenericClassEP18Il2CppGenericClass
whh:__Z101RuntimeInvoker_OpFlags_t378191910_SByte_t454417549_SByte_t454417549_SByte_t454417549_SByte_t454417549PFvvEPK10MethodInfoPvPS4_
oZj:_glDeleteFramebuffers__wrapper
iKd:_Image_get_overrideSprite_m706080347
drh:__Z54RuntimeInvoker_Int32_t2071877448_LabelData_t3712112744PFvvEPK10MethodInfoPvPS4_
Ctf:_BigInteger_ModInverse_m1881894572
vej:__ZN6il2cpp2vm7Runtime17GetDelegateInvokeEP11Il2CppClass
U2g:__ZL79LayoutRebuilder_t2155218138_CustomAttributesCacheGenerator_U3CU3Ef__amU24cache4P21CustomAttributesCache
dcc:__ZZN12MeshRenderer15InitializeClassEvEN29FunctorImpl_134kDidDeleteMesh4CallEPviR11MessageData
w1g:__ZL59Slider_t297367283_CustomAttributesCacheGenerator_m_FillRectP21CustomAttributesCache
Y6b:__Z22GenerateBoxTilingShapeP22GenerateTilingAreaInfo
W1a:__ZN28EnlightenRendererInformation8TransferI14SafeBinaryReadEEvRT_
agh:__Z88RuntimeInvoker_RuntimeObject_RuntimeObject_Int32_t2071877448_RuntimeObject_RuntimeObjectPFvvEPK10MethodInfoPvPS4_
wxg:__ZL69DefaultDependencyAttribute_t3858269114_CustomAttributesCacheGeneratorP21CustomAttributesCache
JJa:__ZNK15Lz4Decompressor16DecompressMemoryEPKvPjPvS2_
IYc:_UNITY_tt_face_build_cmaps
Ryi:_Rect_get_height_m1231429410
COc:__ZN11Rigidbody2D8TransferI24GenerateTypeTreeTransferEEvRT_
oZa:__Z35UnityPropertySheet_MakeSortedColorsRKNSt3__23mapIN9ShaderLab16FastPropertyNameE10ColorRGBAfNS_4lessIS2_EENS_9allocatorINS_4pairIKS2_S3_EEEEEER10vector_mapIS2_S3_S5_NS6_INS7_IS2_S3_EEEEE
K9d:_Decimal_System_IConvertible_ToType_m3828527724_AdjustorThunk
yMd:_InputField_get_caretPositionInternal_m3011712053
VXc:_UNITY_tt_face_load_os2
rvf:_HMAC_get_Key_m2528863640
kkf:_Collection_1_IsSynchronized_m1366278230_gshared
YCg:__ZL93StringBuilder_t1221177846_CustomAttributesCacheGenerator_StringBuilder_AppendLine_m1686706871P21CustomAttributesCache
Bwb:__Z29Transfer_Blittable_ArrayFieldI14SafeBinaryRead8Vector4fEvRT_R9ArrayInfoRK23StaticTransferFieldInfo
dge:_Array_get_swapper_TisInt32_t2071877448_m2837069166_gshared
SOh:_Selectable_Navigate_m915280351
aph:__Z77RuntimeInvoker_Boolean_t3825574718_AspectModeU26_t218518220_Int32_t2071877448PFvvEPK10MethodInfoPvPS4_
Fai:_ConfigHandler_CheckPath_m2296459741
Kzd:_PointerEventData_IsScrolling_m1971908975
Zth:__Z56RuntimeInvoker_ContentType_t1028629049_Int32_t2071877448PFvvEPK10MethodInfoPvPS4_
CPb:__ZZ23InitPlayerLoopCallbacksvEN51PostLateUpdateUpdateCustomRenderTexturesRegistrator7ForwardEv
nTg:__ZL53UILineInfo_t3621277874_CustomAttributesCacheGeneratorP21CustomAttributesCache
W9d:_Decimal_System_IConvertible_ToInt16_m3159038792
Cy:__ZN7mecanim9animation12EvaluateClipEPKNS0_4ClipEPKNS0_9ClipInputEPNS0_10ClipMemoryEPNS0_10ClipOutputE
Peb:__ZNSt3__26vectorIN15ResourceManager10DependencyE13stl_allocatorIS2_L18MemLabelIdentifier52ELi16EEEC2INS_11__wrap_iterIPS2_EEEET_SB_RKS5_PNS_9enable_ifIXaasr21__is_forward_iteratorISB_EE5valuesr16is_constructibleIS2_NS_15iterator_traitsISB_E9referenceEEE5valueEvE4typeE
f2a:__ZN4PPtrI11LightProbesE8TransferI18StreamedBinaryReadILb0EEEEvRT_
w8h:_ComVisibleAttribute__ctor_m1789587486
Pmg:_MonoMethodInfo_GetReturnType_m2864247130
Eeh:__Z39RuntimeInvoker_DateTimeKind_t2186819611PFvvEPK10MethodInfoPvPS4_
T$b:__ZN13RenderManager29SetCurrentCameraAndStackStateEP6CameraP25CameraStackRenderingState
mDi:_Transform_INTERNAL_get_rotation_m1873681960
DMa:__ZNSt3__26__treeINS_12__value_typeIjN4core12basic_stringIcNS2_20StringStorageDefaultIcEEEEEENS_19__map_value_compareIjS7_NS_4lessIjEELb1EEE13stl_allocatorIS7_L18MemLabelIdentifier7ELi16EEE7destroyEPNS_11__tree_nodeIS7_PvEE
arj:__ZN15dense_hashtableINSt3__24pairIK10KeyWrapperINS1_IP11Il2CppClassjEEES4_EES6_N6il2cpp8metadata14ArrayClassHashEN14dense_hash_mapIS6_S4_SB_NS6_14EqualsComparerINSA_17ArrayClassCompareEEENS0_9allocatorIS8_EEE9SelectKeyESF_SH_E12resize_deltaEjj
Vh:_JS_WebRequest_Release
fQe:_DirectoryNotFoundException__ctor_m2242202556
qZ:__ZN11UnityEngine15CloudWebService14DataErrorEventD0Ev
vuj:__ZN6il2cpp6icalls8mscorlib6System4Type20internal_from_handleEi
Wud:_String_CreateString_m2448464375
xOf:_X509SubjectKeyIdentifierExtension__ctor_m2959112706
xxh:_Enumerator_Reset_m1147555085_AdjustorThunk
Nkg:_FieldInfo_get_IsNotSerialized_m2322769148
KGg:__ZL68Math_t2022911894_CustomAttributesCacheGenerator_Math_Max_m2671311541P21CustomAttributesCache
myj:__ZN6il2cpp8metadata15GenericMetadata7InflateEPK19Il2CppGenericMethodPK20Il2CppGenericContext
r1a:__ZN19ShaderPropertySheet16SetArrayPropertyEN9ShaderLab16FastPropertyNameENS_12PropertyTypeEPKvj
Img:_MonoGenericCMethod_get_ReflectedType_m2689239043
lkf:_Collection_1_IsFixedSize_m499196375_gshared
AEd:_ColorTween_set_startColor_m3546206870_AdjustorThunk
org:__ZL67RuntimeArray_CustomAttributesCacheGenerator_Array_IndexOf_m77084779P21CustomAttributesCache
ypg:__ZL63String_t_CustomAttributesCacheGenerator_String_Split_m394273024P21CustomAttributesCache
u6c:__ZN2UI11CanvasGroup23VirtualRedirectTransferER19StreamedBinaryWriteILb0EE
H$h:_InternalEnumerator_1_get_Current_m4083613828_gshared
ygj:__ZN6il2cpp2os4File11GetStdErrorEv
DZi:_TextGenerator_INTERNAL_CALL_Populate_Internal_cpp_m106350432
zoi:_UnityAction__ctor_m3825983746
Ftc:__ZN8GUIState8EndOnGUIEv
X1f:_UnicodeEncoding_GetString_m542738941
u2c:_UNITY_TT_Get_VMetrics
GPe:_Path_InsecureGetFullPath_m2635272425
_0d:_Enumerator_Clone_m1124749523
r7d:_DateTime_System_IConvertible_ToUInt32_m1363211018
Zxi:_Quaternion_ToString_m1042358501
IYf:_RuntimeMethodHandle__ctor_m1162528746
qGi:_Predicate_1__ctor_m3243601712_gshared
lcf:_Enumerator_Dispose_m3300818037_AdjustorThunk
D9e:_List_1_AsReadOnly_m4108578222_gshared
sid:_DSA__ctor_m613430209
Tie:_SetPropertyUtility_SetStruct_TisSingle_t2076509932_m3849235084_gshared
wpa:__ZN7Texture21GetMasterTextureLimitEv
J1b:__Z12CanAddScriptR10GameObject17ScriptingClassPtrPS1_S2_
wpj:__ZN6il2cpp2vm10Reflection12HasAttributeEP12Il2CppObjectP11Il2CppClass
cpd:_X509Certificate_GetExpirationDateString_m2351894475
I4:__ZN9ShaderLabL25StaticInitializeShaderLabEPv
eGh:_Dictionary_2_ContainsKeyValuePair_m3818021458_gshared
U:Math_max
ukf:_Collection_1_System_Collections_IList_Insert_m1511106741_gshared
nNg:__ZL93Mesh_t1356156583_CustomAttributesCacheGenerator_Mesh_GetAllocArrayFromChannelImpl_m1559282939P21CustomAttributesCache
sWi:__ZL24UnresolvedVirtualCall_92P12Il2CppObjectPK10MethodInfo
hfj:_il2cpp_class_get_methods
JPe:_Path_CanonicalizePath_m383914732
Ewh:_Enumerator_System_Collections_IEnumerator_get_Current_m1631145297_gshared
pzb:__Z18Transfer_BlittableI24GenerateTypeTreeTransferLb0EN4math12int2_storageEEvRK29SerializationCommandArgumentsR31RuntimeSerializationCommandInfo
iXd:_ArrayList_Synchronized_m2395071980
hDj:__ZN6il2cpp2os6Thread16GetCurrentThreadEv
erg:__ZL81RuntimeArray_CustomAttributesCacheGenerator_Array_SetValue_m169741241____indices1P21CustomAttributesCache
Ddc:__ZN10GameObject13ComponentPair15SetComponentPtrEPN5Unity9ComponentE
fVe:_UnexceptionalStreamWriter_Write_m3206913035
G7b:__Z13RegisterClassI10MeshFilterEvv
LMa:__ZN10TagManager8TransferI19StreamedBinaryWriteILb0EEEEvRT_
$hb:__ZN11PreloadData23VirtualRedirectTransferER18StreamedBinaryReadILb0EE
p6a:__ZN13sorted_vectorI4PPtrI11SpriteAtlasENSt3__24lessIS2_EE13stl_allocatorIS2_L18MemLabelIdentifier1ELi16EEE21sort_clear_duplicatesEv
QD:__Z17dynamic_pptr_castIP10MonoScript6ObjectET_RK4PPtrIT0_E
cFj:__ZN6il2cpp6icalls8mscorlib6System10ReflectionL40il2cpp_class_get_generic_type_definitionEP11Il2CppClass
W_f:_DESTransform_ProcessBlock_m2826669227
vKe:_Int16_CompareTo_m3493496879
eOg:__ZL56RenderTexture_t2666733923_CustomAttributesCacheGeneratorP21CustomAttributesCache
Hjj:__ZN15dense_hashtableINSt3__24pairIK10KeyWrapperINS1_IPK9FieldInfoP11Il2CppClassEEEjEES9_17ReflectionMapHashIS8_EN14dense_hash_mapIS9_jSD_NS9_14EqualsComparerINS0_8equal_toIS8_EEEENS0_9allocatorISB_EEE9SelectKeyESI_SK_E16reset_thresholdsEv
pQg:__ZL56ColorWriteMask_t926634530_CustomAttributesCacheGeneratorP21CustomAttributesCache
i5a:__ZN6Sprite17MainThreadCleanupEv
rJg:__ZL56OidCollection_t3790243618_CustomAttributesCacheGeneratorP21CustomAttributesCache
RBg:__ZL61SignatureDescription_t89145500_CustomAttributesCacheGeneratorP21CustomAttributesCache
P_h:_InternalEnumerator_1_MoveNext_m3389738333_AdjustorThunk
eS:__ZN10AudioMixer14UpdateMuteSoloEv
QQb:__Z17GetMonoManagerPtrv
Xcf:_Stack_1_System_Collections_ICollection_get_SyncRoot_m3151629354_gshared
PLa:__ZN9Transform35SetLocalPositionWithoutNotificationERKN4math7_float3Ey
pMh:_MaskableGraphic_UnityEngine_UI_IClippable_get_gameObject_m954171032
Vi:_JS_Eval_ClearTimeout
joa:__ZN7ApiGLES16SetPatchVerticesEi
DSe:_MonoIOStat_t1621921065_marshal_pinvoke
dJa:__ZN10MemoryFileC2E18MemLabelIdentifierP14MemoryFileData14FilePermission
uUf:_TrackingServices_NotifyUnmarshaledObject_m1794048369
l4i:__ZN6il2cpp2vm5Class20FromGenericParameterEPK22Il2CppGenericParameter
_zg:__ZL59RemotingServices_t2399536837_CustomAttributesCacheGeneratorP21CustomAttributesCache
Q$:__ZN19CloudServiceHandler11FlushEventsEv
Bea:__ZN15GlobalCallbacksC2Ev
Gqe:_Array_InternalArray__set_Item_TisLabelFixup_t4090909514_m565370771_gshared
CIj:_GC_print_static_roots
LOc:__ZN7b2World10CreateBodyEPK9b2BodyDef
wVc:_UNITY_FT_New_Memory_Face
iIg:__ZL74X509Crl_t1699034837_CustomAttributesCacheGenerator_U3CU3Ef__switchU24map13P21CustomAttributesCache
eYf:_SerializationEntry__ctor_m1619256036_AdjustorThunk
oTc:__ZN20TextRenderingPrivate21TextMeshGeneratorImpl5FlushEv
Cqd:__Z15CastclassSealedP12Il2CppObjectP11Il2CppClass
f7b:__ZN15ApplicationInfo14GetSandboxTypeEv
b8g:__Z41RuntimeInvoker_TypeAttributes_t2229518203PFvvEPK10MethodInfoPvPS4_
qxb:__Z18Transfer_BlittableI17RemapPPtrTransferLb1EhEvRK29SerializationCommandArgumentsR31RuntimeSerializationCommandInfo
ADj:__ZNSt3__26vectorIjNS_9allocatorIjEEE26__swap_out_circular_bufferERNS_14__split_bufferIjRS2_EE
B0b:__ZN16ReflectionProbes40UpdateRealtimeReflectionProbesTimeslicedEv
AKi:_ListPool_1_Get_m529219189_gshared
txj:__ZNSt3__26__treeINS_12__value_typeIP24Il2CppReflectionAssemblyPvEENS_19__map_value_compareIS3_S5_NS_4lessIS3_EELb1EEENS_9allocatorIS5_EEE16__insert_node_atEPNS_16__tree_node_baseIS4_EERSF_SF_
xig:_MethodBuilder_GetBaseDefinition_m774166361
nWf:_FormatterConverter__ctor_m3958982477
cfb:__ZNK30RuntimeInitializeOnLoadManager22GetTypeVirtualInternalEv
T8i:__ZN15dense_hashtableINSt3__24pairIK10KeyWrapperIN6il2cpp5utils13dynamic_arrayIPK10Il2CppTypeLj4EEEEPFvvEEESA_NS3_8metadata19Il2CppSignatureHashEN14dense_hash_mapISA_SD_SG_NSA_14EqualsComparerINSF_22Il2CppSignatureCompareEEENS0_9allocatorISE_EEE9SelectKeyESK_SM_E12resize_deltaEjj
lbc:__ZN16ReflectionProbes15InitializeClassEv
RKj:__ZN6il2cpp5utils5MatchENSt3__212basic_stringIcNS1_11char_traitsIcEENS1_9allocatorIcEEEEjRKS7_j
JWc:_UNITY_FT_Destroy_Class_psnames_module_class
nFc:__ZNK12b2WheelJoint17GetReactionTorqueEf
gaj:__ZNK15dense_hashtableINSt3__24pairIK10KeyWrapperIPK11Il2CppClassEPKcEES6_N6il2cpp5utils11PointerHashIS3_EEN14dense_hash_mapIS6_S9_SE_NS6_14EqualsComparerINS0_8equal_toIS5_EEEENS0_9allocatorISA_EEE9SelectKeyESJ_SL_E12test_deletedEj
Zdi:_MRUList_Evict_m2430323183
Cof:_ReadOnlyCollection_1_System_Collections_Generic_ICollectionU3CTU3E_Remove_m1060547576_gshared
Akh:__Z68RuntimeInvoker_Boolean_t3825574718_Rect_t3681755626_SByte_t454417549PFvvEPK10MethodInfoPvPS4_
eve:_Array_InternalArray__get_Item_TisRuntimeObject_m371871810_gshared
UUe:_NullTextWriter_Write_m2306984725
WD:__ZN8Animator13BatchedFKPassERK13dynamic_arrayIP14PlayableOutputLj4EE
kDf:_RecordProtocol_ProcessChangeCipherSpec_m3233959862
WHd:_Graphic_set_raycastTarget_m1229173591
Zse:_Array_Sort_TisVector4_t2243707581_m474199742_gshared
pba:__ZN13RuntimeStaticINSt3__23mapIN4core12basic_stringIcNS2_20StringStorageDefaultIcEEEES6_NS0_4lessIS6_EE13stl_allocatorINS0_4pairIKS6_S6_EEL18MemLabelIdentifier13ELi16EEEELb0EE13StaticDestroyEPv
s2i:_Rigidbody2D_AddForce_m1687473487
PUe:_TextWriter_Write_m576684782
Tj:_glIsVertexArray
rJa:__ZN25SingleBlockMemoryFileDataC2E18MemLabelIdentifierPvjb
ZCa:__ZN5Unity9Component8TransferI18StreamedBinaryReadILb0EEEEvRT_
fa:invoke_fff
qTh:_Text_get_fontSize_m3105730761
uWj:b14
BCf:_TlsServerHello_Update_m1740270635
E5c:__ZN2UI6Canvas17MainThreadCleanupEv
Hra:__ZN6prcoreL12RemapGenericI17TexFormatARGB155517TexFormatRGBA8888EEvPKNS_9InnerInfoE
YPh:_ScrollRect_Rebuild_m3423824761
H9e:_List_1_Find_m3862454845_gshared
XCd:_CanvasScaler_get_physicalUnit_m3637173174
Odi:_MatchCollection_get_Item_m2609281578
Fza:__ZN7ApiGLES13CreateProgramEv
qSa:__ZN11HaloManager7AddHaloEv
R2f:_UTF8Encoding__ctor_m100325490
Lpa:__ZN4crnd12crn_unpackerD2Ev
VSh:_StencilMaterial_ClearAll_m1372779118
dk:_emscripten_glTexImage2D
ZSf:_ObjRefSurrogate_SetObjectData_m1873902916
f2c:_tt_driver_class_pic_init
B5:__ZN18ScriptingArguments9AddStringEPKc
QIj:_setup_header
efh:__Z99RuntimeInvoker_RuntimeObject_DateTime_t693205669_Nullable_1_t1693325264_RuntimeObject_RuntimeObjectPFvvEPK10MethodInfoPvPS4_
Hmf:_ReadOnlyCollection_1_System_Collections_IList_get_IsReadOnly_m1367736517_gshared
gTj:runPostSets
mYg:__ZL93AxisEventData_t1524870173_CustomAttributesCacheGenerator_AxisEventData_set_moveDir_m254243794P21CustomAttributesCache
Pqa:__ZL23stbir__resize_arbitraryPvPKviiiS_iiiffffPfiij14stbir_datatype12stbir_filterS4_10stbir_edgeS5_16stbir_colorspace
z5e:_List_1_System_Collections_IList_Insert_m848656350_gshared
Jzb:__Z18Transfer_BlittableI24GenerateTypeTreeTransferLb1E8Vector4fEvRK29SerializationCommandArgumentsR31RuntimeSerializationCommandInfo
aMe:_Int16_ToString_m3971652088_AdjustorThunk
ok:_pthread_detach
Ubj:__ZN6il2cpp2vm19SocketPollingThread7RunLoopEv
ZZe:_KeyValuePair_2__ctor_m1640124561_AdjustorThunk
rSf:_MethodDictionary_AllocInternalProperties_m3261295876
_dc:__ZN15DirectorManager20ScheduleGraphDestroyERK14HPlayableGraph
BIb:__ZNSt3__213__stable_sortIRN10vector_mapI17ScriptingClassPtrPKN5Unity4TypeENS_4lessIS2_EENS_9allocatorINS_4pairIS2_S6_EEEEE13value_compareENS_11__wrap_iterIPSB_EEEEvT0_SJ_T_NS_15iterator_traitsISJ_E15difference_typeEPNSM_10value_typeEi
HJg:__ZL77U3CPrivateImplementationDetailsU3E_t1486305139_CustomAttributesCacheGeneratorP21CustomAttributesCache
omb:__ZN9ShaderLab25SerializedTextureProperty8TransferI24GenerateTypeTreeTransferEEvRT_
Vsf:_Comparison_1_Invoke_m2645957248_gshared
$1j:_emscripten_glIsShader__wrapper
onj:__ZN6il2cpp2gc19AppendOnlyGCHashMapINSt3__24pairIPK14Il2CppAssemblyP11Il2CppClassEEP24Il2CppReflectionAssembly17ReflectionMapHashIS9_ENS2_8equal_toIS9_EEEC2Ev
FZc:_tt_cmap14_char_next
uwg:__ZL69AssemblyTrademarkAttribute_t3740556705_CustomAttributesCacheGeneratorP21CustomAttributesCache
Ika:__ZN13GfxDeviceGLES28GetNativeVertexBufferPointerEP9GfxBuffer
iEa:__ZN11NamedObject8TransferI18StreamedBinaryReadILb0EEEEvRT_
Aya:__ZNK17GPUSkinPoseBuffer12GetBoneCountEv
XXf:_DelegatePInvokeWrapper_CallbackHandler_t362827733
eHg:__ZL59ResolveEventArgs_t1859808873_CustomAttributesCacheGeneratorP21CustomAttributesCache
Lvj:__ZNK15dense_hashtableINSt3__24pairIK10KeyWrapperIP14Il2CppIUnknownEjEES5_N6il2cpp5utils11PointerHashIS3_EEN14dense_hash_mapIS5_jSB_NS5_14EqualsComparerINS0_8equal_toIS4_EEEENS0_9allocatorIS7_EEE9SelectKeyESG_SI_E12test_deletedEj
Fkg:_EventInfo_get_MemberType_m3337516651
HAc:__Z18Transfer_BlittableI8JSONReadLb1EyEvRK29SerializationCommandArgumentsR31RuntimeSerializationCommandInfo
Lk:_emscripten_glMatrixMode
ow:__ZN8Animator23VirtualRedirectTransferER18StreamedBinaryReadILb0EE
Zvg:__ZL93TypeBuilder_t3308873219_CustomAttributesCacheGenerator_TypeBuilder_GetConstructors_m774120094P21CustomAttributesCache
TQe:_NotSupportedException__ctor_m836173213
JSf:_MethodReturnDictionary__ctor_m756139344
MY:__ZN11UnityEngine15CloudWebService14DataDispatcher16PrepareDataBlockERNS0_16SessionContainerE
gAa:__ZN18GfxFramebufferGLES5ClearE13GfxClearFlagsRK10ColorRGBAffib
Gaf:_List_1_GetIndex_m2513359832_gshared
feh:__Z52RuntimeInvoker_Single_t2076509932_Double_t4078015681PFvvEPK10MethodInfoPvPS4_
eHb:__ZL26Transfer_SimpleNativeClassI18StreamedBinaryReadILb0EE10RectOffsetLb0EEvRK29SerializationCommandArgumentsR31RuntimeSerializationCommandInfo
GWc:_UNITY_ft_destroy_default_module_classes
b3e:_List_1_CheckMatch_m1772343151_gshared
DTb:__ZL12DepthPassJobPN21GfxDeviceAsyncCommand10ArgScratchEPKNS_3ArgE
Pkb:__ZNSt3__26vectorIN9ShaderLab20SerializedSubProgram16TextureParameterENS_9allocatorIS3_EEE6assignINS_11__wrap_iterIPS3_EEEENS_9enable_ifIXaasr21__is_forward_iteratorIT_EE5valuesr16is_constructibleIS3_NS_15iterator_traitsISC_E9referenceEEE5valueEvE4typeESC_SC_
cwc:__ZN5Unity9rapidjson6WriterI16TempBufferWriterNS0_4UTF8IcEES4_13JSONAllocatorE11WriteDoubleEd
rOe:_IntPtr_Equals_m1214967011_AdjustorThunk
z8e:_List_1_Add_m3591975577_gshared
nva:__ZN14GfxDeviceStats16CopyAllDrawStatsERKS_
g8b:__Z13RegisterClassI19LowerResBlitTextureEvv
Q3g:__ZL53player_t1147742565_CustomAttributesCacheGenerator_do1P21CustomAttributesCache
sYg:__ZL100PointerEventData_t1599784723_CustomAttributesCacheGenerator_U3CpointerPressRaycastU3Ek__BackingFieldP21CustomAttributesCache
Pm:FUNCTION_TABLE_iiiiiiiiiiii
dMi:_GUIUtility_Internal_GetPixelsPerPoint_m1075452981
BRa:__ZN16GraphicsSettingsD0Ev
v4b:__Z29StdTemplateConversionFunctionIshEbPvR14SafeBinaryRead
g$j:_pthread_mutex_init__wrapper
n:cttz_i8
oWc:_UNITY_FT_GlyphLoader_Add
zni:_Display_FireDisplaysUpdated_m2197288612
d3d:_DateTimeFormatInfo_get_FullDateTimePattern_m2607507656
$Cf:_HttpsClientStream_RaiseServerCertificateValidation_m3356770426
Szi:_RectTransform_INTERNAL_set_anchorMin_m3893342226
pte:_Array_swap_TisUIVertex_t1204258818_TisUIVertex_t1204258818_m1163375424_gshared
Il:_emscripten_glViewport
L6b:__Z21GenerateTilingAreaJobP22GenerateTilingAreaInfoj
eFj:__ZN6il2cpp6icalls8mscorlib6System15MonoCustomAttrs17IsDefinedInternalEP12Il2CppObjectP20Il2CppReflectionType
mUa:__ZN4Mesh21UnswizzleVertexColorsEb
Gfa:__ZN30dense_hashtable_const_iteratorINSt3__24pairIKN4core12basic_stringIcNS2_20StringStorageDefaultIcEEEEP11AssetBundleEES6_20StringHash32FunctionIS6_EN14dense_hash_mapIS6_S9_SC_NS0_8equal_toIS6_EENS0_9allocatorISA_EEE9SelectKeyESF_SH_EppEv
qCf:_TlsServerSettings_set_CertificateTypes_m264196087
ZYh:_InternalEnumerator_1__ctor_m4150855019_gshared
t8d:_DateTime_ToString_m2276663647_AdjustorThunk
c2c:_cff_parse_font_bbox
okc:__Z35Application_Get_Custom_PropIsEditorv
wdb:__ZN14PlayerSettings23VirtualRedirectTransferER18StreamedBinaryReadILb0EE
gge:_Array_get_swapper_TisCustomAttributeTypedArgument_t1498197914_m2780757375_gshared
lZe:_KeyValuePair_2__ctor_m3201181706_AdjustorThunk
VNj:__ZN6il2cpp2os5Event5ResetEv
Zlf:_ReadOnlyCollection_1_System_Collections_IList_Insert_m1130110335_gshared
EOi:_AesManaged__ctor_m2322442838
_xj:__ZN6il2cpp8metadata15GenericMetadata17InflateParametersEPK13ParameterInfohPK20Il2CppGenericContextb
GNe:_Int64_System_IConvertible_ToUInt32_m850395426_AdjustorThunk
H6:__ZN18AwakeFromLoadQueue28InvokePersistentManagerAwakeEPNS_4ItemEj17AwakeFromLoadMode
zPa:__ZN6Camera13AwakeFromLoadE17AwakeFromLoadMode
ekd:_HMACSHA512__ctor_m2390736870
hC:__ZNK17AnimationPlayable27GetNextCompatibleDescendantEi
jEa:__ZN4PPtrI6SpriteE8TransferI18StreamedBinaryReadILb0EEEEvRT_
Ggg:_TypeBuilder_GetInterfaces_m1818658502
EEf:_TlsException_get_Alert_m4022765752
qtf:_BigInteger_op_Equality_m2683055762
ZLb:__Z25SetNeedToPerformRenderingb
bng:_MonoMethod_GetPseudoCustomAttributes_m466965107
pgi:__ZN21InterfaceFuncInvoker0IP19LinkRef_t2090853131E6InvokeEjP11Il2CppClassP12Il2CppObject
XKa:__ZN10GameObjectD2Ev
STb:__ZN14qsort_internal30FindAndMovePivotToLastPositionIP15RODataDepthPassi17ROSorterDepthPassEEvT_S4_T0_T1_
PAi:_ResourceRequest_t2560315377_marshal_pinvoke
lyh:_Enumerator_System_Collections_IDictionaryEnumerator_get_Value_m3005608231_gshared
gVi:__ZL24UnresolvedVirtualCall_26P12Il2CppObjectS0_iiPK10MethodInfo
GLh:_MaskUtilities_NotifyStencilStateChanged_m1527407683
qrg:__ZL69RuntimeArray_CustomAttributesCacheGenerator_Array_IndexOf_m2447301431P21CustomAttributesCache
I$b:__ZN12CullingGroup10SendEventsEPK17CullingGroupEventj
mBe:_DSAManaged_GenerateKeyPair_m2711647034
Q2a:__ZThn32_NK8Renderer8GetLayerEv
tne:_Array_InternalArray__ICollection_Add_TisResourceCacheItem_t333236149_m1151081240_gshared
Duh:__Z39RuntimeInvoker_RaycastHit2D_t4063908774PFvvEPK10MethodInfoPvPS4_
ipf:_ReadOnlyCollection_1_System_Collections_Generic_ICollectionU3CTU3E_get_IsReadOnly_m2197226755_gshared
I4d:_Convert_ToInt32_m2209788057
Ywj:__ZN30dense_hashtable_const_iteratorINSt3__24pairIK10KeyWrapperINS1_IPKcS4_EEEiEES6_24NamespaceAndNamePairHashN14dense_hash_mapIS6_iS9_NS6_14EqualsComparerI26NamespaceAndNamePairEqualsEENS0_9allocatorIS8_EEE9SelectKeyESD_SF_E30advance_past_empty_and_deletedEv
HVf:_SoapServices_GetXmlTypeForInteropType_m3821579913
XPi:_EqualityComparer_1_System_Collections_IEqualityComparer_Equals_m3601790950_gshared
_$j:_emscripten_glTexParameterfv__wrapper
Ttb:__Z18Transfer_BlittableI14SafeBinaryReadLb1E9BoundsIntEvRK29SerializationCommandArgumentsR31RuntimeSerializationCommandInfo
_fj:_il2cpp_method_get_param_count
Ohc:__ZN10systeminfo19ISOToSystemLanguageERN4core12basic_stringIcNS0_20StringStorageDefaultIcEEEE
hmj:__ZNK15dense_hashtableINSt3__24pairIK10KeyWrapperINS1_IPK12PropertyInfoP11Il2CppClassEEEjEES9_17ReflectionMapHashIS8_EN14dense_hash_mapIS9_jSD_NS9_14EqualsComparerINS0_8equal_toIS8_EEEENS0_9allocatorISB_EEE9SelectKeyESI_SK_E3endEv
EOc:__ZN11Rigidbody2D8TransferI19StreamedBinaryWriteILb0EEEEvRT_
Rkh:__Z34RuntimeInvoker_LogType_t1559732862PFvvEPK10MethodInfoPvPS4_
BJg:__ZL68Uri_t19570940_CustomAttributesCacheGenerator_U3CU3Ef__switchU24map15P21CustomAttributesCache
D_c:_ps_dimension_done
eCd:_LayoutRebuilder_MarkLayoutForRebuild_m640589351
s5c:__Z46Register_UnityEngine_TextGenerator_Dispose_cppv
Mzd:_PointerEventData_get_pressEventCamera_m724559964
Upd:_String_IndexOfUnchecked_m3356721554
G1a:__ZN16LightmapSettings8TransferI14SafeBinaryReadEEvRT_
bha:__ZN17BufferManagerGLES13ReleaseBufferEP14DataBufferGLES
EAc:__Z18Transfer_BlittableI8JSONReadLb1EjEvRK29SerializationCommandArgumentsR31RuntimeSerializationCommandInfo
U0g:__ZL63ScrollRect_t1199013257_CustomAttributesCacheGenerator_m_InertiaP21CustomAttributesCache
Fti:_PKCS12_Decrypt_m1557069392
ITh:_VertexHelper_AddUIVertexQuad_m280792808
$Jf:_WebHeaderCollection_ToString_m1246460752
mZh:_InternalEnumerator_1_System_Collections_IEnumerator_get_Current_m2842514953_AdjustorThunk
kYi:__ZL25UnresolvedVirtualCall_192P12Il2CppObject19DateTime_t693205669S1_PK10MethodInfo
ep:stackSave
eed:__ZN5Unity9rapidjson15GenericDocumentINS0_4UTF8IcEE13JSONAllocatorNS0_12CrtAllocatorEE6StringEPKcjb
W_c:_ps_dimension_end
ooc:__Z41Register_UnityEngine_Mesh_Internal_Createv
Fsb:__ZN16MemoryFileSystem5TouchER13FileEntryData
sab:__ZN14SpriteRenderer23VirtualRedirectTransferER24GenerateTypeTreeTransfer
Yxj:__ZNK15dense_hashtableI10KeyWrapperIP18Il2CppGenericClassES3_N6il2cpp8metadata22Il2CppGenericClassHashEN14dense_hash_setIS3_S6_NS3_14EqualsComparerINS5_25Il2CppGenericClassCompareEEENSt3__29allocatorIS3_EEE8IdentityESA_SD_E12test_deletedERK30dense_hashtable_const_iteratorIS3_S3_S6_SF_SA_SD_E
eNc:__ZNSt3__27__sort3IRN18Overlap2DQueryBase29ColliderHitsByDepthComparitorEPP10Collider2DEEjT0_S7_S7_T_
n5i:__ZN6il2cpp2vm5Class14GetNestedTypesEP11Il2CppClassPPv
ukd:_MACTripleDES_Initialize_m1318099802
dwf:_MD5SHA1_VerifySignature_m507888141
_Td:_Byte_System_IConvertible_ToChar_m4188836679
XLe:_NumberFormatter_InitDecHexDigits_m2036076025
Qyh:_Enumerator_get_CurrentKey_m3839846791_AdjustorThunk
i1b:__ZN6Camera9SetAspectEf
JEd:_ColorTween_get_ignoreTimeScale_m641454126_AdjustorThunk
wa:invoke_viiffiii
gmf:_ReadOnlyCollection_1_Contains_m1800950533_gshared
GZg:__ZL79TouchInputModule_t2561058385_CustomAttributesCacheGenerator_m_ForceModuleActiveP21CustomAttributesCache
p1j:_emscripten_glBindVertexArray__wrapper
Tnh:__Z52RuntimeInvoker_Vector2_t2243707579_Int32_t2071877448PFvvEPK10MethodInfoPvPS4_
Hvf:_MD4__ctor_m2366413460
QFh:_Dictionary_2_InitArrays_m435313205_gshared
xM:__ZN10ObjectPoolIN4FMOD3DSPENS0_4DSPIEE7GetFreeEi
XLa:__ZN9Transform37InitializeTransformHierarchyRecursiveER18TransformHierarchyRii
w9b:__Z34DefaultPrepareDispatchBoundsUpdateR13RendererScene18MemLabelIdentifier
XHd:_Graphic_get_useLegacyMeshGeneration_m1366444625
Zza:__ZN26SinglePassStereoSupportExt23SetupStereoMatrixParamsE21MonoOrStereoscopicEye24BuiltinShaderMatrixParamRK10Matrix4x4f
D$g:__ZL65InputField_t1631627530_CustomAttributesCacheGenerator_m_InputTypeP21CustomAttributesCache
eWi:__ZL24UnresolvedVirtualCall_78P12Il2CppObjectPK10MethodInfo
Bze:_ModulusRing_Pow_m1137250399
h4h:_InternalEnumerator_1_MoveNext_m2410670600_AdjustorThunk
PW:__Z46AudioListener_CUSTOM_GetNumExtensionPropertiesP12Il2CppObject
eMf:_X509Chain_Build_m2341271288
rTa:__ZN17MeshRenderingData4InitEP4MeshS1_iP15SharedGfxBufferS3_
nof:_ReadOnlyCollection_1_System_Collections_ICollection_get_SyncRoot_m2779904122_gshared
qKh:_EqualityComparer_1_System_Collections_IEqualityComparer_Equals_m1682986002_gshared
F_d:_Hashtable__cctor_m2952659675
fOf:_X509ChainStatus__ctor_m3628359961_AdjustorThunk
d3g:__ZL77LayoutUtility_t4076838048_CustomAttributesCacheGenerator_U3CU3Ef__amU24cache4P21CustomAttributesCache
bxb:__ZN15SerializeTraitsI13dynamic_arrayIN4math12int3_storageELj4EEE19ResizeSTLStyleArrayERS3_i
jqd:_Evidence_get_HostEvidenceList_m2095478124
Wqc:__Z57Register_UnityEngine_Transform_INTERNAL_set_localPositionv
izf:_Context_Clear_m4000337070
Yka:__ZN13GfxDeviceGLES26SetRandomWriteTargetBufferEi15ComputeBufferID
RQf:_IntervalCollection_Normalize_m538796191
pPb:__ZZ23InitPlayerLoopCallbacksvEN49EarlyUpdateResetFrameStatsAfterPresentRegistrator7ForwardEv
d1d:_Console_SetEncodings_m342145566
xOg:__ZL77Object_t1021602117_CustomAttributesCacheGenerator_Object_get_name_m3369637820P21CustomAttributesCache
OHd:_FontUpdateTracker_UntrackText_m3827316510
jlj:__ZN6il2cpp2gc19AppendOnlyGCHashMapINSt3__24pairIPK11Il2CppImageP11Il2CppClassEEP22Il2CppReflectionModule17ReflectionMapHashIS9_ENS2_8equal_toIS9_EEE10CopyValuesEPv
EEi:_Vector2_get_sqrMagnitude_m593717298_AdjustorThunk
sve:_Array_InternalArray__get_Item_TisSingle_t2076509932_m1495809753_gshared
hZi:_Font_get_fontSize_m3125470578
yhc:__ZNK11ICallString6ToUTF8Ev
$gi:_CaptureAssertion_get_Alternate_m2729005740
VGj:_GC_number_stack_black_listed
Yvj:__ZN24dense_hashtable_iteratorINSt3__24pairIK10KeyWrapperIP14Il2CppIUnknownEjEES5_N6il2cpp5utils11PointerHashIS3_EEN14dense_hash_mapIS5_jSB_NS5_14EqualsComparerINS0_8equal_toIS4_EEEENS0_9allocatorIS7_EEE9SelectKeyESG_SI_E30advance_past_empty_and_deletedEv
TTb:__ZNSt3__211__sift_downIR17ROSorterDepthPassP15RODataDepthPassEEvT0_S5_T_NS_15iterator_traitsIS5_E15difference_typeES5_
udg:_Default_SelectMethod_m3081239996
CYa:__ZN18UnityPropertySheet11UnityTexEnvC2Ev
hkc:__ZNSt3__214__split_bufferIPN9BlobWrite11TypeContextENS_9allocatorIS3_EEE10push_frontERKS3_
oE:__ZN8Animator17ApplyOnAnimatorIKEiRNS_11AnimatorJobE
$9:__ZN12FileAccessor4ReadEyyPvPy
KXa:__ZN13dynamic_arrayI16ShaderKeywordSetLj4EE6insertEPS0_PKS0_S4_
mIb:__Z29Transfer_Blittable_ArrayFieldI18StreamedBinaryReadILb0EE11QuaternionfEvRT_R9ArrayInfoRK23StaticTransferFieldInfo
sSf:_MethodDictionary_IsOverridenKey_m3922224650
S$d:_SyncHashtable_Contains_m3042906549
pbf:_List_1_System_Collections_IList_set_Item_m4016273526_gshared
wOf:_X509KeyUsageExtension_CopyFrom_m931530012
FYi:__ZL25UnresolvedVirtualCall_213P12Il2CppObject40CustomAttributeTypedArgument_t1498197914PK10MethodInfo
K0b:__ZN13RenderTexture9SetHeightEi
Px:__ZN7mecanim9animation17ClearMotionOutputEPNS0_18AnimationNodeStateE
NUa:__ZN16LevelGameManager8TransferI24GenerateTypeTreeTransferEEvRT_
uLh:_LayoutUtility_U3CGetMinHeightU3Em__4_m1769295917
PFf:_SslStreamBase_Read_m1036897444
uNh:_RectMask2D_PerformClipping_m1232012832
ktj:__ZN6il2cpp6icalls8mscorlib6System2IO6MonoIO17GetFileAttributesEP12Il2CppStringPi
Ezh:_Transform_1_Invoke_m4020530914_gshared
kZc:_tt_cmap8_char_index
$5:__Z24scripting_class_get_name17ScriptingClassPtr
Jba:__ZN13RuntimeStaticI15GUIEventManagerLb0EE13StaticDestroyEPv
rDj:__ZN6il2cpp2os6Thread15CurrentThreadIdEv
Kvb:__Z29Transfer_Blittable_ArrayFieldI14SafeBinaryReadjEvRT_R9ArrayInfoRK23StaticTransferFieldInfo
iJc:__ZN16CircleCollider2D13PrepareShapesER13dynamic_arrayIP7b2ShapeLj4EERK10Matrix4x4f
he:_emscripten_set_keydown_callback
o$d:_Enumerator_get_Value_m3684748062
MMa:__ZN19StreamedBinaryWriteILb0EE21TransferSTLStyleArrayINSt3__26vectorI17SortingLayerEntryNS2_9allocatorIS4_EEEEEEvRT_17TransferMetaFlags
b9f:_UInt32_Parse_m3371984903
haa:__ZN12FileAccessorC2Ev
hvi:_X509CertificateCollection_Compare_m1014334435
ahf:_Collection_1_ClearItems_m1280157591_gshared
uuh:__Z33RuntimeInvoker_TypeTag_t141209596PFvvEPK10MethodInfoPvPS4_
Rei:_PatternLinkStack_GetCurrent_m2994645935
$Pa:__ZN6Camera8TransferI19StreamedBinaryWriteILb0EEEEvRT_
wsf:_Comparison_1__ctor_m2929820459_gshared
A7g:__Z59RuntimeInvoker_RuntimeObject_RuntimeObject_SByte_t454417549PFvvEPK10MethodInfoPvPS4_
Pci:_AsyncResult__ctor_m1183194429
sej:__ZN6il2cpp2vm7Runtime12GetConfigDirEv
BJ:__ZN4PPtrI13MonoBehaviourE8TransferI18StreamedBinaryReadILb0EEEEvRT_
uSf:_MethodDictionary_set_Item_m3475146889
brh:__Z71RuntimeInvoker_Int32_t2071877448_CustomAttributeNamedArgument_t94157543PFvvEPK10MethodInfoPvPS4_
qWg:__ZL54Tile_t429716126_CustomAttributesCacheGenerator_m_ColorP21CustomAttributesCache
eAg:__ZL62WellKnownObjectMode_t2630225581_CustomAttributesCacheGeneratorP21CustomAttributesCache
YTh:_Toggle_PlayEffect_m3950629415
kle:_Array_IndexOf_TisRuntimeObject_m214763038_gshared
nJi:_UnityEvent_1_GetDelegate_m3917909024_gshared
Fsh:__Z79RuntimeInvoker_Void_t1841601450_Int32_t2071877448_ParameterModifier_t1820634920PFvvEPK10MethodInfoPvPS4_
lKb:__Z39WriteQueueForTransferSignatureIntoCacheRK31TransferFunctionScriptingTraitsRK24TransferRequestSignature17ScriptingClassPtrR23CachedSerializationDataRb
Zgb:__ZN13RenderManager18UpdateAllRenderersEv
wJ:__ZN18AnimatorController19TransferRuntimeDataI18StreamedBinaryReadILb0EEEEvRT_
csi:_Mesh_Clear_m239607636
Bbd:__ZN22BaseUnityConnectClient30OnEnteringStatePausedOrStoppedEv
sHc:__ZN10ClipperLib7Clipper18SwapPositionsInAELEPNS_5TEdgeES2_
$if:_Collection_1_System_Collections_ICollection_get_SyncRoot_m2157752542_gshared
Slj:__ZN15dense_hashtableINSt3__24pairIK10KeyWrapperINS1_IPK12PropertyInfoP11Il2CppClassEEEjEES9_17ReflectionMapHashIS8_EN14dense_hash_mapIS9_jSD_NS9_14EqualsComparerINS0_8equal_toIS8_EEEENS0_9allocatorISB_EEE9SelectKeyESI_SK_E12resize_deltaEjj
ay:__ZN7mecanim5human12HumanPoseAddERNS0_9HumanPoseERKS1_S4_
pEg:__ZL64AssemblyLoadEventArgs_t4233815743_CustomAttributesCacheGeneratorP21CustomAttributesCache
dif:_Collection_1_IsFixedSize_m218241296_gshared
BLa:__Z24MergeTransformComponentsR9TransformS0_b
lLg:__ZL98DebugLogHandler_t865810509_CustomAttributesCacheGenerator_DebugLogHandler_Internal_Log_m3333167788P21CustomAttributesCache
xUi:_DelegatePInvokeWrapper_AudioConfigurationChangeHandler_t3743753033
BSe:_MonoIO_get_PathSeparator_m2635828107
SVf:_TypeInfo_get_TypeName_m1722081275
nMc:__ZN15b2CircleContactD0Ev
KXe:_MonoType_get_Name_m865859211
ufe:_CultureInfo__cctor_m2290268677
wVh:_ArrayReadOnlyList_1_System_Collections_IEnumerable_GetEnumerator_m3039869667_gshared
Ftd:_String_Trim_m3982520224
UUf:_RemotingConfiguration__cctor_m2129988840
ugf:_Collection_1_Insert_m44548038_gshared
L4h:_InternalEnumerator_1_MoveNext_m4175772187_AdjustorThunk
pVg:__ZL87GUIUtility_t3275770671_CustomAttributesCacheGenerator_U3CguiIsExitingU3Ek__BackingFieldP21CustomAttributesCache
gFj:__ZN6il2cpp2vm13ComObjectBase19GetRuntimeClassNameEPP15Il2CppHString__
oHb:__Z35Transfer_Blittable_FixedBufferFieldI18StreamedBinaryReadILb0EEyEvRK29SerializationCommandArgumentsR31RuntimeSerializationCommandInfo
Rj:_emscripten_glVertexAttribPointer
QSj:__ZNSt11logic_errorD0Ev
oTa:__ZNK20IntermediateRenderer12GetSceneMaskEv
_fb:__ZN14PreloadManager26UpdatePreloadingSingleStepENS_21UpdatePreloadingFlagsEi
Qnd:_SHA512Managed_Initialize_m891287980
Dqd:_SecurityException__ctor_m1484114982
uai:_SinkProviderData_get_Children_m100594762
Ovi:_X509Crl_GetHashName_m183504634
NQd:_Array_GetValue_m1507415734
Uoc:__Z57Register_UnityEngine_RectTransform_INTERNAL_set_anchorMinv
fIe:_Object_MemberwiseClone_m2655589444
knf:_ReadOnlyCollection_1_System_Collections_IList_get_Item_m375043207_gshared
ora:__ZN6prcoreL25inner_stretch_i8_bilinearEPKNS_9InnerInfoE
qib:__ZL30RegisterFilteredObjectCallbackPP12Il2CppObjectiPv
eQe:_DirectoryInfo_ToString_m4208086799
jng:_MonoMethod_get_IsGenericMethod_m4276550811
bAh:_Transform_1_BeginInvoke_m3826027984_gshared
gZ:__ZN11UnityEngine15CloudWebService16SessionContainer24GetSessionHeaderJsonDataERKN4core12basic_stringIcNS2_20StringStorageDefaultIcEEEERNS2_13StringBuilderE
K3d:_Decimal_op_Implicit_m2149927308
wba:__ZN13RuntimeStaticI21AssetReferenceStorageLb0EE13StaticDestroyEPv
Q8f:_UInt16_System_IConvertible_ToUInt32_m1864968312
UAj:__ZN6il2cpp6icalls8mscorlib6System9AppDomain22InternalGetProcessGuidEP12Il2CppString
VH:__ZNK25RuntimeAnimatorController30GetAnimationClipOverrideVectorEv
KBe:_KeyPairPersistence_get_UseMachineKeyStore_m560802076
ydf:_Collection_1_CopyTo_m1840908033_gshared
Mwh:_Enumerator_System_Collections_IDictionaryEnumerator_get_Entry_m345330700_AdjustorThunk
GHa:__ZNK17FileSystemHandler10IsReadOnlyERK13FileEntryData
kdj:__ZNSt3__214__split_bufferIP9FieldInfoRNS_9allocatorIS2_EEEC2EjjS5_
Svd:_AbstractEventData__ctor_m3586111519
eAb:__Z18Transfer_BlittableI24GenerateTypeTreeTransferLb1EjEvRK29SerializationCommandArgumentsR31RuntimeSerializationCommandInfo
KPg:__ZL118AttributeHelperEngine_t958797062_CustomAttributesCacheGenerator_AttributeHelperEngine_GetRequiredComponents_m586474250P21CustomAttributesCache
Cvf:_MD2Managed_Padding_m410163267
Flj:__ZNK15dense_hashtableINSt3__24pairIK10KeyWrapperINS1_IPK11Il2CppImageP11Il2CppClassEEEjEES9_17ReflectionMapHashIS8_EN14dense_hash_mapIS9_jSD_NS9_14EqualsComparerINS0_8equal_toIS8_EEEENS0_9allocatorISB_EEE9SelectKeyESI_SK_E10test_emptyERK30dense_hashtable_const_iteratorISB_S9_SD_SM_SI_SK_E
rUh:_Toggle_UnityEngine_UI_ICanvasElement_get_transform_m4177274032
$8b:__ZNK28RectTransformPropertyBinding9BindValueER6ObjectRKN11UnityEngine9Animation14GenericBindingERNS3_10BoundCurveE
hTa:__ZN11ColorRGBA328TransferI14SafeBinaryReadEEvRT_
PVc:__ZN20TextRenderingPrivate8TextMesh8TransferI14SafeBinaryReadEEvRT_
wyh:_Enumerator_Dispose_m401572848_AdjustorThunk
Mf:_emscripten_glClearDepth
Kcc:__ZNK8GUILayer22GetTypeVirtualInternalEv
f_a:__ZN8Playable12SetPlayStateE9PlayState
b4a:__ZN14SafeBinaryRead21TransferSTLStyleArrayINSt3__26vectorIN15QualitySettings14QualitySettingENS1_9allocatorIS4_EEEEEEvRT_17TransferMetaFlags
ste:_Array_swap_TisVector2_t2243707579_m3359959735_gshared
tQe:_File_OpenText_m4058508963
Xcb:__ZNSt3__26vectorINS_4pairIPKN5Unity4TypeE7Hash128EENS_9allocatorIS7_EEE8__appendEj
TVf:_WellKnownClientTypeEntry__ctor_m670594074
Q_g:__ZL61FontData_t2614388407_CustomAttributesCacheGenerator_m_MinSizeP21CustomAttributesCache
cYi:__ZL25UnresolvedVirtualCall_184P12Il2CppObject19DateTime_t693205669S1_PK10MethodInfo
a7d:_DateTime_System_IConvertible_ToSingle_m3927769066_AdjustorThunk
q1c:_cff_font_load
hDf:_RecordProtocol_SendRecord_m2977889250
xic:__Z13IsPathCreatedRKN4core12basic_stringIcNS_20StringStorageDefaultIcEEEE
XK:__ZN13ProduceHelperI13AnimationClipLb0EE7ProduceE18MemLabelIdentifier18ObjectCreationMode
Vqa:__ZL22stbir__encode_scanlineP11stbir__infoiPvPfiii
ach:__Z136RuntimeInvoker_Void_t1841601450_Byte_t3683104436_RuntimeObject_Int64U26_t763825331_ObjectU26_t597476745_SerializationInfoU26_t4051840202PFvvEPK10MethodInfoPvPS4_
dSc:__ZN20QuadTreeNodeRenderer13StaticDestroyEPv
c_:__ZN11UnityEngine15CloudWebService20WebRequestRestClient5AbortEv
bHi:_InvokableCall_1_Invoke_m2228071798_gshared
k9b:__ZN9Transform12CleanupClassEv
H6g:__Z50RuntimeInvoker_Void_t1841601450_Double_t4078015681PFvvEPK10MethodInfoPvPS4_
WMi:_GUILayoutGroup_CalcWidth_m877887811
gzf:_ClientContext_set_ClientHelloProtocol_m2246603449
lCi:_Texture_Internal_GetHeight_m3235768354
toa:__ZNSt3__26vectorIN9GfxDevice14SubPassActionsENS_9allocatorIS2_EEE26__swap_out_circular_bufferERNS_14__split_bufferIS2_RS4_EE
hOd:_U3CMouseDragOutsideRectU3Ec__Iterator1_MoveNext_m2845491958
Elb:__ZNSt3__26vectorIN9ShaderLab19SerializedSubShaderENS_9allocatorIS2_EEE26__swap_out_circular_bufferERNS_14__split_bufferIS2_RS4_EE
VD:__ZN11UnityEngine9Animation33SetGenericTransformPropertyValuesERKNS0_30AnimatorGenericBindingConstantERKN7mecanim10ValueArrayEP9Transformy
gu:__ZN11UnityEngine9Animation28AnimationClipBindingConstant8TransferI24GenerateTypeTreeTransferEEvRT_
XAd:_StandaloneInputModule_IsModuleSupported_m623598506
nrj:__ZN6il2cpp2vmL24thread_cleanup_on_cancelEPv
o7h:_ResourceReader_Close_m3256966401
NZf:_SByte_ToString_m4105923225_AdjustorThunk
ZXf:_StreamingContext_t1417235061_marshal_pinvoke_cleanup
yfe:_CultureInfo_ConstructCurrentUICulture_m3363349599
Pag:_UInt64_CompareTo_m2422461804_AdjustorThunk
d2g:__ZL75CanvasScaler_t2574720772_CustomAttributesCacheGenerator_m_FallbackScreenDPIP21CustomAttributesCache
hXe:_MonoType_GetEvent_m4160342003
eNh:_RawImage_set_texture_m2400157626
hRi:_PrimeHelper_ToPrime_m1606935350_gshared
ETa:__Z30ProcessDynamicBatchGeometryJobP25DynamicVBOGeometryJobDataj
pqh:__Z59RuntimeInvoker_Boolean_t3825574718_RaycastHit2D_t4063908774PFvvEPK10MethodInfoPvPS4_
nKh:_EqualityComparer_1__ctor_m81618677_gshared
nUb:__ZNSt3__27__sort4IRNS_6__lessI11CulledLightS2_EEPS2_EEjT0_S6_S6_S6_T_
shj:__ZN6il2cpp2vm14TypeNameParser26ParseArrayModifierOptionalEv
Xwe:_MSCompatUnicodeTable_Level3_m260824928
KOd:_LayoutElement_OnEnable_m3478706401
q7:__Z26scripting_object_get_class18ScriptingObjectPtr
N_i:_Func_3__ctor_m3917225629_gshared
Efb:__ZNSt3__26vectorIN4core12basic_stringIcNS1_20StringStorageDefaultIcEEEE13stl_allocatorIS5_L18MemLabelIdentifier13ELi16EEE7reserveEj
g1i:_RectTransformUtility_GetTransposed_m1233793627
K8b:__ZNK28MonoBehaviourPropertyBinding15GenerateBindingERKN4core12basic_stringIcNS0_20StringStorageDefaultIcEEEEbRN11UnityEngine9Animation14GenericBindingE
PKe:_Int32_FindExponent_m3187554672
WBe:_KeyPairPersistence_Load_m1355205585
KPh:_ScrollRect_get_horizontalScrollbarVisibility_m4152068235
ZMe:_Int32_ToString_m2960866144_AdjustorThunk
L$i:_Predicate_1_Invoke_m3539717340_gshared
ysd:_Single_CompareTo_m2081476257_AdjustorThunk
WTi:_AudioExtensionManager_AddSpatializerExtension_m1881494443
qCj:__ZN6il2cpp6icalls8mscorlib6System11Environment15internalGetHomeEv
HVj:dynCall_iiiiiiffiiiiiiiiiffffiiii
cCa:__ZNK5Unity9Component7GetNameEv
Pdj:__ZNSt3__214__split_bufferIN6il2cpp6icalls8mscorlib6System12PropertyPairERNS_9allocatorIS5_EEEC2EjjS8_
FFg:__ZL79Convert_t2607082565_CustomAttributesCacheGenerator_Convert_ToUInt16_m2130758075P21CustomAttributesCache
GXf:__ZN21InterfaceFuncInvoker4IP12Il2CppObjectS1_P28SerializationInfo_t22898743028StreamingContext_t1417235061S1_E6InvokeEjP11Il2CppClassS1_S1_S3_S4_S1_
BGg:__ZL58IFormatProvider_t2849799027_CustomAttributesCacheGeneratorP21CustomAttributesCache
nsh:__Z75RuntimeInvoker_Void_t1841601450_Int32_t2071877448_KeyValuePair_2_t888819835PFvvEPK10MethodInfoPvPS4_
bLi:_ObjectPool_1_Get_m3724675538_gshared
F4a:__ZN13ScreenManagerD0Ev
FEc:__ZNK11b2RopeJoint16GetReactionForceEf
hF:__ZN7mecanim8skeleton26SkeletonPoseComputeGlobalQEPKNS0_8SkeletonEPKNS0_13SkeletonPoseTIN4math4trsXEEEPS7_ii
Aed:__ZN18UnityConnectClient19RegisterVRCallbacksEv
W5e:_List_1_GetEnumerator_m2672519407_gshared
S5b:__ZN10BootConfig4Data3SetEPKcjS2_j
JE:__ZN9BlobWrite8TransferI22OffsetPtrArrayTransferIiEEEvRT_PKc17TransferMetaFlags
pch:__Z82RuntimeInvoker_Boolean_t3825574718_SByte_t454417549_RuntimeObject_SByte_t454417549PFvvEPK10MethodInfoPvPS4_
Hwe:_ContractionComparer_Compare_m314873025
syb:__Z18Transfer_BlittableI17RemapPPtrTransferLb1EjEvRK29SerializationCommandArgumentsR31RuntimeSerializationCommandInfo
pNe:_Int64_System_IConvertible_ToDouble_m638786774
aR:__ZN4FMOD6System7releaseEv
s$d:_HashKeys_get_IsSynchronized_m4207641174
cCb:__Z18Transfer_BlittableI19StreamedBinaryWriteILb0EELb1E8BitFieldEvRK29SerializationCommandArgumentsR31RuntimeSerializationCommandInfo
E9:__Z18PathToAbsolutePathRKN4core12basic_stringIcNS_20StringStorageDefaultIcEEEE
ngh:__Z44RuntimeInvoker_HashAlgorithmType_t1654661965PFvvEPK10MethodInfoPvPS4_
q_e:_Enumerator_MoveNext_m3078170540_AdjustorThunk
Hr:__ZN13AnimationClip23VirtualRedirectTransferER17RemapPPtrTransfer
sod:_SymmetricAlgorithm_get_Padding_m718051685
kKj:__ZN6il2cpp6icalls8mscorlib6System10Reflection16MonoPropertyInfo16GetTypeModifiersEPvb
wOi:_Action_Invoke_m3801112262
T6g:__Z79RuntimeInvoker_Decimal_t724701077_RuntimeObject_Int32_t2071877448_RuntimeObjectPFvvEPK10MethodInfoPvPS4_
xqa:__ZL13BlitImageImplR14ImageReferenceiiRKS_NS_10ColorSpaceENS_8BlitModeEb
aec:__ZN15DirectorManager17AcquireOutputNodeEv
LKb:__ZN10MonoScript23VirtualRedirectTransferER17RemapPPtrTransfer
CEg:__ZL76Convert_t2607082565_CustomAttributesCacheGenerator_Convert_ToChar_m541258017P21CustomAttributesCache
h6g:__Z64RuntimeInvoker_RuntimeObject_Int16_t4041245914_Int16_t4041245914PFvvEPK10MethodInfoPvPS4_
Yya:__ZN16GeometryJobTasks20ScheduleGeometryJobsER9GfxDevicePFvP15GeometryJobDataEPK22GeometryJobInstructionjb
gP:__ZN12AudioManager29ShutdownReinitializeAndReloadEv
pti:_NetscapeCertTypeExtension_Decode_m2210025005
Boh:__Z56RuntimeInvoker_Void_t1841601450_KeyValuePair_2_t38854645PFvvEPK10MethodInfoPvPS4_
aWf:_BaseFixupRecord_DoFixup_m1821597450
o4i:__ZN15dense_hashtableINSt3__24pairIK10KeyWrapperIPK22Il2CppGenericParameterEP11Il2CppClassEES6_N6il2cpp5utils11PointerHashIS4_EEN14dense_hash_mapIS6_S9_SE_NS6_14EqualsComparerINS0_8equal_toIS5_EEEENS0_9allocatorISA_EEE9SelectKeyESJ_SL_E6insertERKSA_
xQe:_FileLoadException__ctor_m1356374414
NHi:_InvokableCall_4_Invoke_m1140294390_gshared
lyf:_TlsStream_Reset_m1504601050
a1e:__ZN23InterfaceActionInvoker2IP23Int32U5BU5D_t3030399641iE6InvokeEjP11Il2CppClassP12Il2CppObjectS1_i
Qna:__ZN14DataBufferGLES16RecreateWithDataEjPKv
zCa:__Z29GetGlobalAllowNameConversionsv
r2b:__ZN8Material8SetColorEN9ShaderLab16FastPropertyNameERK10ColorRGBAf
ylg:_Module_GetCustomAttributes_m3581287913
esg:__ZL67Type_t_CustomAttributesCacheGenerator_Type_IsSubclassOf_m2450899481P21CustomAttributesCache
RS:__ZN11AudioSource23VirtualRedirectTransferER18StreamedBinaryReadILb0EE
zba:__ZN21AssetReferenceStorageC2Ev
JCb:__ZN10RectOffset8TransferI19StreamedBinaryWriteILb0EEEEvRT_
d6:__ZL41AssemblyNameMatchesWithOrWithoutExtensionPKcS0_
jqh:__Z53RuntimeInvoker_Boolean_t3825574718_Color32_t874517518PFvvEPK10MethodInfoPvPS4_
mDc:__ZN23ColliderTilingExtension5ResetEv
Uva:__ZN14GfxContextGLES43AddRenderSurfaceToDeferredFBOInvalidateListEPK17RenderSurfaceGLES
KSi:_ReturnArea_Start_m1333046278
Psj:__ZN6il2cpp6icalls8mscorlib6System9Threading6Thread15Thread_internalEP12Il2CppThreadP14Il2CppDelegate
AEa:__ZN11NamedObject23VirtualRedirectTransferER14SafeBinaryRead
frg:__ZL74RuntimeArray_CustomAttributesCacheGenerator_Array_BinarySearch_m3522310993P21CustomAttributesCache
aUi:_AudioListener_GetNumExtensionProperties_m2652400521
oVc:__ZNSt3__26vectorIN20TextRenderingPrivate8FontImpl13CharacterInfoE13stl_allocatorIS3_L18MemLabelIdentifier1ELi16EEE6insertENS_11__wrap_iterIPKS3_EERS9_
uFa:__ZN23PreloadManagerOperation6IsDoneEv
rT:__ZN4FMOD7Channel20get3DConeOrientationEP11FMOD_VECTOR
BFe:_X509Certificate_get_RawData_m3000055075
U4i:__ZNSt3__26vectorIPK10Il2CppTypeNS_9allocatorIS3_EEE21__push_back_slow_pathIRKS3_EEvOT_
Sec:__Z33GetHasChangedDeprecatedSystemMaskv
jKc:__ZN10Effector2D10EndContactEP9b2Contact
IEj:__ZN6il2cpp5utils11StringUtils11Utf16ToUtf8ERKNSt3__212basic_stringIDsNS2_11char_traitsIDsEENS2_9allocatorIDsEEEE
fuh:__Z30RuntimeInvoker_Link_t865133271PFvvEPK10MethodInfoPvPS4_
Xxh:_Enumerator_VerifyState_m1165543189_AdjustorThunk
O7d:_DateTime_AddSeconds_m722082155_AdjustorThunk
HYd:_SynchronizedArrayListWrapper_CopyTo_m956887031
P5h:_Comparer_1__ctor_m1202126643_gshared
xhb:__ZN21LightProbeProxyVolume18HasHardwareSupportEv
E0i:_CanvasRenderer_set_materialCount_m1703953120
rMc:__ZNK20b2SeparationFunction17FindMinSeparationEPiS0_f
jra:__ZN6prcoreL31inner_stretch_argb8888_bilinearEPKNS_9InnerInfoE
eEb:__Z18Transfer_BlittableI18StreamedBinaryReadILb1EELb1E8BitFieldEvRK29SerializationCommandArgumentsR31RuntimeSerializationCommandInfo
AKg:__ZL84Behaviour_t955675639_CustomAttributesCacheGenerator_Behaviour_set_enabled_m602406666P21CustomAttributesCache
zXc:_UNITY_FT_Outline_Decompose
sBf:_TlsClientCertificate_get_ClientCertificate_m3062440489
$pd:_StrongNamePublicKeyBlob_ToString_m3721281223
fJj:_GC_init_size_map
EYh:_InternalEnumerator_1_get_Current_m198513457_AdjustorThunk
U0h:_InternalEnumerator_1__ctor_m1240086835_AdjustorThunk
HQa:__Z20scripting_object_new17ScriptingClassPtr
MIe:_TextInfo__ctor_m2782608694
rcf:_Queue_1_System_Collections_ICollection_CopyTo_m772787461_gshared
Sjj:__ZN24dense_hashtable_iteratorINSt3__24pairIK10KeyWrapperINS1_IPK9FieldInfoP11Il2CppClassEEEjEES9_17ReflectionMapHashIS8_EN14dense_hash_mapIS9_jSD_NS9_14EqualsComparerINS0_8equal_toIS8_EEEENS0_9allocatorISB_EEE9SelectKeyESI_SK_E30advance_past_empty_and_deletedEv
VIe:_TextInfo_ToUpper_m299550697
Qyc:__ZN9JSONWrite8TransferI13dynamic_arrayI8BitFieldLj4EEEEvRT_PKc17TransferMetaFlags
BFa:__ZN23PreloadManagerOperation21MustCompleteNextFrameEv
bId:_Graphic_OnRectTransformDimensionsChange_m1610753363
iOd:_U3CMouseDragOutsideRectU3Ec__Iterator1_System_Collections_Generic_IEnumeratorU3CobjectU3E_get_Current_m2602955272
P:Math_exp
OWe:_MonoEnumInfo_get_Cache_m3551569711
Ho:FUNCTION_TABLE_iiifi
IAj:__ZN6il2cpp2os5posix13PosixAutoLockD2Ev
uhe:_Array_InternalArray__ICollection_Contains_TisVector3_t2243707580_m3625701788_gshared
qPc:__ZN13BoxCollider2D15InitializeClassEv
Cog:_TypeFilter_BeginInvoke_m2395188690
fOc:__GLOBAL__sub_I_modules_physics2d_public_0_cpp
Frg:__ZL66RuntimeArray_CustomAttributesCacheGenerator_Array_Sort_m1999601238P21CustomAttributesCache
fcf:_Enumerator__ctor_m1424070651_AdjustorThunk
CEb:__Z30TransferField_LinearCollectionI18StreamedBinaryReadILb1EEEvRK29SerializationCommandArgumentsR31RuntimeSerializationCommandInfo
IJb:__ZN13MonoBehaviour9SetScriptERK4PPtrI10MonoScriptE18ScriptingObjectPtr
khe:_Array_InternalArray__ICollection_Contains_TisPlayableBinding_t2498078091_m4267109606_gshared
pPc:__ZN13ProduceHelperI13BoxCollider2DLb0EE7ProduceE18MemLabelIdentifier18ObjectCreationMode
fXc:_UNITY_FT_Create_Class_sfnt_module_class
JTh:_Text_CalculateLayoutInputHorizontal_m1578553982
Dvj:__ZNSt3__218uninitialized_copyIPNS_4pairIK10KeyWrapperIP14Il2CppIUnknownEjEES8_EET0_T_SA_S9_
vae:_Decimal_IsZero_m3557909184_AdjustorThunk
mWd:_Char_ToString_m1401375624
Ckd:_MD5CryptoServiceProvider__cctor_m3309191799
gKa:__ZNK10FileSystem16LastErrorMessageEv
jqi:_Logger_set_filterLogType_m3982626604
nQf:_InterpreterFactory_get_NamesMapping_m3186583301
Ekh:__Z74RuntimeInvoker_Vector2_t2243707579_Vector2_t2243707579_Vector2_t2243707579PFvvEPK10MethodInfoPvPS4_
S$e:_Enumerator_System_Collections_IEnumerator_Reset_m3052395060_gshared
Ltf:_Kernel_DwordDivMod_m3728402123
ZIb:__ZN13MonoBehaviour13AwakeFromLoadE17AwakeFromLoadMode
lyb:__ZL26Transfer_SimpleNativeClassI17RemapPPtrTransfer8GradientLb1EEvRK29SerializationCommandArgumentsR31RuntimeSerializationCommandInfo
efc:__ZN12CachedWriter9InitWriteER15CacheWriterBase
Wdc:__Z21UnsignedInt64ToStringy
K2f:_UTF7Decoder__ctor_m549434986
w3h:_InternalEnumerator_1_get_Current_m1025321669_AdjustorThunk
Fsi:_Object_t1021602117_marshal_pinvoke
hrc:__Z66Register_UnityEngine_Transform_INTERNAL_CALL_InverseTransformPointv
Wda:__ZZN15DirectorManager15InitializeClassEvEN41FixedUpdateDirectorFixedUpdateRegistrator7ForwardEv
a_h:_InternalEnumerator_1_MoveNext_m2720582493_gshared
Yvi:_X509CrlEntry_get_RevocationDate_m1257876856
Xvi:_X509Crl_VerifySignature_m1390212587
hPf:_Group__ctor_m4103922028
xcj:__ZNSt3__214__split_bufferI6pollfdRNS_9allocatorIS1_EEEC2EjjS4_
_0j:_glLinkProgram__wrapper
hqb:__ZN18ScriptingArguments8AddInt64Ex
Tra:__ZN6prcoreL12RemapGenericI17TexFormatARGB888815TexFormatBGR888EEvPKNS_9InnerInfoE
Oqb:__ZN12HandlerChain4LockER13FileEntryData12FileLockMode
Ikd:_MD5CryptoServiceProvider_ProcessFinalBlock_m1052610785
XYd:_BitArray_Set_m2878881714
tYi:__ZL25UnresolvedVirtualCall_201P12Il2CppObjectPK10MethodInfo
Dfd:__ZN28UnityConnectScriptingClasses23CallSessionStateChangedEixxbP21ScriptingExceptionPtr
xJe:_Guid_CompareTo_m2203922782_AdjustorThunk
$Qh:_Selectable_get_colors_m3501193396
kwj:__ZN6il2cpp6icalls8mscorlib6System13Globalization11CultureInfo35construct_internal_locale_from_nameEP17Il2CppCultureInfoP12Il2CppString
tAb:__ZL22Transfer_ManagedObjectI24GenerateTypeTreeTransferLb1EEvRK29SerializationCommandArgumentsR31RuntimeSerializationCommandInfo
NOg:__ZL72SceneManager_t90660965_CustomAttributesCacheGenerator_activeSceneChangedP21CustomAttributesCache
Exg:__ZL55COMException_t1790481504_CustomAttributesCacheGeneratorP21CustomAttributesCache
rAe:_ASN1_get_Count_m404940548
eci:_ContextAttribute_Equals_m53324298
Zj:_emscripten_set_main_loop_timing
pli:_Camera_ScreenToViewportPoint_m3458250415
Zbg:_WeakReference_AllocateHandle_m1783929473
Lna:__ZN14DataBufferGLES12RecordRenderEv
qse:_Array_Sort_TisRuntimeObject_m3674422195_gshared
Y1b:__ZN14ImageReference10FlipImageYEv
VPa:__Z32TransferEnumWithNameForceIntSizeI14SafeBinaryRead13TargetEyeMaskEvRT_RT0_PKc17TransferMetaFlags
Jtc:__Z14GetDefaultSkini
Bfe:_CultureInfo_get_Name_m3316229893
E7d:_DateTime_get_Ticks_m310281298_AdjustorThunk
uM:__ZN4FMOD3DSP9setBypassEb
Akf:_Collection_1_System_Collections_IList_get_Item_m287847793_gshared
u5b:__Z19NormalizeWheelInputf
VOf:_CaptureCollection_CopyTo_m1982767892
w4b:__Z29StdTemplateConversionFunctionIsaEbPvR14SafeBinaryRead
Che:_Array_InternalArray__ICollection_Remove_TisLink_t865133271_m1984184141_gshared
FCc:__Z29Transfer_Blittable_ArrayFieldI8JSONReadhEvRT_R9ArrayInfoRK23StaticTransferFieldInfo
rPd:_LayoutRebuilder_IsDestroyed_m3442208294
yxh:_Enumerator_VerifyState_m1547102902_AdjustorThunk
DNj:__ZN6il2cpp2os20ThreadLocalValueImpl8SetValueEPv
iRa:__ZN22RenderingCommandBuffer20CleanupCommandBufferEv
Cch:__Z165RuntimeInvoker_Void_t1841601450_UInt32U26_t2197289955_Int32_t2071877448_UInt32U26_t2197289955_Int32_t2071877448_Int32_t2071877448_Int32_t2071877448_Int32_t2071877448PFvvEPK10MethodInfoPvPS4_
$sh:__Z99RuntimeInvoker_Void_t1841601450_CustomAttributeTypedArgumentU5BU5DU26_t4216645529_Int32_t2071877448PFvvEPK10MethodInfoPvPS4_
uxc:__Z18Transfer_BlittableI9JSONWriteLb1EtEvRK29SerializationCommandArgumentsR31RuntimeSerializationCommandInfo
yQe:_FileLoadException__ctor_m918124939
SOg:__ZL106SceneManager_t90660965_CustomAttributesCacheGenerator_SceneManager_Internal_ActiveSceneChanged_m1940652884P21CustomAttributesCache
qk:___syscall85
wga:__ZN15dense_hashtableINSt3__24pairIKN4core12basic_stringIcNS2_20StringStorageDefaultIcEEEE13dynamic_arrayI4PPtrI6SpriteELj4EEEES6_20StringHash32FunctionIS6_EN14dense_hash_mapIS6_SC_SF_NS0_8equal_toIS6_EE13stl_allocatorISD_L18MemLabelIdentifier81ELi16EEE9SelectKeyESI_SL_E5clearEv
YRb:__ZNSt3__26__sortIRPFbP10GUIElementS2_EPS2_EEvT0_S7_T_
suf:_SequentialSearchPrimeGeneratorBase_GenerateSearchBase_m2930465198
Qcc:__ZN16GraphicsSettings12CleanupClassEv
sDj:__ZN6il2cpp2os6Thread19DetachCurrentThreadEv
J4i:__ZN6il2cpp2vmL21SetupInterfacesLockedEP11Il2CppClassRKNS_2os12FastAutoLockE
Zsb:__ZN11MonoManager23VirtualRedirectTransferER24GenerateTypeTreeTransfer
dah:__Z102RuntimeInvoker_Int32_t2071877448_RuntimeObject_Int32_t2071877448_Int32_t2071877448_Int32U26_t455636984PFvvEPK10MethodInfoPvPS4_
SC:__ZN23AnimationPlayableOutput17SetSourcePlayableEP8Playable
JOf:_Capture__ctor_m885749277
iLd:_SubmitEvent__ctor_m222860306
cZ:__ZN11UnityEngine15CloudWebService14DataDispatcher15SetupWebRequestEv
GUe:_TextWriter__cctor_m4047845042
EDf:_ReceiveRecordAsyncResult_get_Record_m1336421357
Icd:__ZN11UnityEngine15PlatformWrapper13GetShaderCapsEv
Qsi:_Object_ToString_m2938729670
FZb:__ZNSt3__211__sift_downIR26RenderDeferredObjectSorterP16RenderObjectDataEEvT0_S5_T_NS_15iterator_traitsIS5_E15difference_typeES5_
zEg:__ZL76Convert_t2607082565_CustomAttributesCacheGenerator_Convert_ToByte_m509311047P21CustomAttributesCache
fEh:_Dictionary_2_System_Collections_Generic_IEnumerableU3CSystem_Collections_Generic_KeyValuePairU3CTKeyU2CTValueU3EU3E_GetEnumerator_m1742521661_gshared
Ckh:__Z87RuntimeInvoker_Void_t1841601450_RuntimeObject_StringU26_t638738783_StringU26_t638738783PFvvEPK10MethodInfoPvPS4_
CLd:_InputField_CaretBlink_m3960486606
ak:_emscripten_glGetProgramiv
PCi:_TouchScreenKeyboard_set_hideInput_m962370792
uCe:_SmallXmlParser_ReadCharacters_m1966365555
nFf:_InternalAsyncResult_get_CompletedWithError_m3993955322
ydc:__ZN21FixedBehaviourManager6UpdateEv
hic:__ZN9Transform9SetParentEPS_NS_15SetParentOptionE
oJd:_GridLayoutGroup_set_startCorner_m1660251450
WOa:__ZN19ShaderPropertySheet8SetFloatEN9ShaderLab16FastPropertyNameEfNS_8SetFlagsE
E$g:__ZL68InputField_t1631627530_CustomAttributesCacheGenerator_m_AsteriskCharP21CustomAttributesCache
mgb:__ZN19RuntimeSceneManager24BeginIntegrateMainThreadEP10UnityScene
WBj:__ZNSt3__2plIcNS_11char_traitsIcEENS_9allocatorIcEEEENS_12basic_stringIT_T0_T1_EERKS9_S6_
xVe:_LocalDataStoreSlot__cctor_m1192669356
hlb:__ZN9ShaderLab20SerializedSubProgramaSERKS0_
zTj:_roundf
Yud:_String_CreateString_m2556700934
KMa:__ZN18StreamedBinaryReadILb0EE21TransferSTLStyleArrayINSt3__26vectorI17SortingLayerEntryNS2_9allocatorIS4_EEEEEEvRT_17TransferMetaFlags
fRh:_Selectable_get_targetGraphic_m137842753
ww:__ZN8Animator15SetPrepareStageEv
uSh:_Slider_get_axis_m162140813
kmg:_MonoEventInfo_t2190036573_marshal_pinvoke
K4i:__ZN6il2cpp2vmL24SetupTypeHierarchyLockedEP11Il2CppClassRKNS_2os12FastAutoLockE
C5b:__ZL11TextHandleriPK23EmscriptenKeyboardEventPv
CPd:_LayoutRebuilder_U3Cs_RebuildersU3Em__0_m3768099182
SQh:_ScrollRect_SetLayoutHorizontal_m3486408020
OUc:_destroy_face
RQi:_GenericEqualityComparer_1_GetHashCode_m116190842_gshared
Cqi:_Material_SetIntImpl_m1039479734
fxh:_Enumerator_VerifyState_m1547102902_gshared
lvg:__ZL55StreamWriter_t3858580635_CustomAttributesCacheGeneratorP21CustomAttributesCache
yRc:__ZN5physx19PxAllocatorCallbackD2Ev
BKj:__ZN6il2cpp6icalls8mscorlib6System8Security12Cryptography24RNGCryptoServiceProvider13RngInitializeEP11Il2CppArray
q9e:_List_1_System_Collections_ICollection_get_IsSynchronized_m227393674_gshared
kfh:__Z99RuntimeInvoker_Void_t1841601450_Int32_t2071877448_Int16_t4041245914_Int16_t4041245914_RuntimeObjectPFvvEPK10MethodInfoPvPS4_
TIf:_IPAddress__cctor_m3624830012
_S:__ZN20SoundChannelInstance7setMuteEb
tVa:__ZN4PPtrI5LightE8TransferI19StreamedBinaryWriteILb0EEEEvRT_
DKf:_AsnEncodedData_EnhancedKeyUsageExtension_m1452131166
dFb:__Z19TransferField_ArrayI18StreamedBinaryReadILb1EE27Converter_SimpleNativeClassI17AnimationCurveTplIfEEEvRK23StaticTransferFieldInfoR31RuntimeSerializationCommandInfoRT0_
tBi:_SendMouseEvents__cctor_m1448404407
YPc:__ZN7b2World18SetContactListenerEP17b2ContactListener
GMc:__ZN14PhysicsQuery2D11LinecastAllERK8Vector2fS2_RKN10Collider2D13ContactFilterEPKS3_bP13dynamic_arrayI12RaycastHit2DLj4EE
zoa:__ZN18GfxFramebufferGLES22MakeCurrentFramebufferENS_7BuiltinE
rKj:__ZN6il2cpp2vm12MarshalAlloc4FreeEPv
PPf:_Interpreter_Close_m1500459069
uk:_JS_SystemInfo_GetWidth
BKa:__ZN12CachedReader4ReadEPvj
Z$c:_cf2_blues_init
IYh:_InternalEnumerator_1_System_Collections_IEnumerator_get_Current_m3600601141_gshared
end:_SHA1Internal_HashFinal_m3188468925
nWb:__Z24CalculateLightShadowFadeRK6CamerafffR8Vector4f
j6:__ZN19RuntimeSceneManagerD2Ev
BHg:__ZL55HeaderHandler_t324204131_CustomAttributesCacheGeneratorP21CustomAttributesCache
R9h:_ChannelData_get_CustomProperties_m1470957369
GNg:__ZL99Material_t193706927_CustomAttributesCacheGenerator_Material_Internal_CreateWithMaterial_m1941547384P21CustomAttributesCache
Cte:_Dictionary_2_Do_ICollectionCopyTo_TisRuntimeObject_m545661084_gshared
s_:__ZN11UnityEngine15CloudWebService25WebRequestDownloadHandler17OnCompleteContentEv
ira:__ZN6prcore17GetIntegerBlitterE13TextureFormatS0_N14ImageReference8BlitModeE
NCc:__ZN13BoxCollider2DD0Ev
flj:__ZN6il2cpp2gc19AppendOnlyGCHashMapINSt3__24pairIPK11Il2CppImageP11Il2CppClassEEP22Il2CppReflectionModule17ReflectionMapHashIS9_ENS2_8equal_toIS9_EEE11TryGetValueERKS9_PSB_
uyh:_Enumerator_VerifyState_m3173176371_AdjustorThunk
dth:__Z84RuntimeInvoker_Void_t1841601450_RaycastResultU5BU5DU26_t2399554255_Int32_t2071877448PFvvEPK10MethodInfoPvPS4_
$Hf:_TypeConverterAttribute__cctor_m506796812
T$f:_Encoding_get_IsReadOnly_m3729101432
lkc:__ZN9BlobWrite14ReduceCopyImplERK14ReduceCopyDataj
P3:__ZNSt3__26__treeI19RepeatingLogMessageNS_4lessIS1_EE13stl_allocatorIS1_L18MemLabelIdentifier73ELi16EEE12__find_equalIS1_EERPNS_16__tree_node_baseIPvEESD_RKT_
DW:__ZN11AudioSource18IsPlayingScriptingEv
tbg:_ValueType_t3507792607_marshal_pinvoke_back
V5h:_Comparer_1_System_Collections_IComparer_Compare_m1790257529_gshared
frh:__Z55RuntimeInvoker_Int32_t2071877448_ILTokenInfo_t149559338PFvvEPK10MethodInfoPvPS4_
slg:_MethodInfo_get_ContainsGenericParameters_m572340060
kFc:__ZNK12b2WheelJoint10GetAnchorAEv
cYj:_glShaderSource__wrapper
JIa:__ZN25MultiBlocksMemoryFileData17AdjustBlocksCountEj
zsj:__ZNSt3__214__split_bufferIN6il2cpp2vm22EmbeddedResourceRecordERNS_9allocatorIS3_EEED2Ev
nzf:_TlsClientHello__ctor_m1699671541
USc:__ZN13TextRendering4Font8TransferI24GenerateTypeTreeTransferEEvRT_
zbi:_Context_NotifyGlobalDynamicSinks_m2916447645
Flc:__Z27CullingGroup_CUSTOM_DisposeP12Il2CppObject
agd:__ZNSt3__26vectorIP19BaseConnectSettings13stl_allocatorIS2_L18MemLabelIdentifier6ELi16EEE21__push_back_slow_pathIKS2_EEvRT_
ckh:__Z69RuntimeInvoker_Color_t2020392075_Color_t2020392075_Single_t2076509932PFvvEPK10MethodInfoPvPS4_
gRb:__ZN13ComputeShader15SetTextureParamEjRKN9ShaderLab16FastPropertyNameE9TextureID16TextureDimension
LRh:_Shadow_set_effectDistance_m1951993364
YFh:_Dictionary_2_ContainsKey_m416495915_gshared
Uhf:_Collection_1_Remove_m1798559666_gshared
Am:_glStencilMask
Qch:__Z70RuntimeInvoker_Boolean_t3825574718_Int16_t4041245914_Int32_t2071877448PFvvEPK10MethodInfoPvPS4_
yBj:__ZN6il2cpp2os10ThreadImpl16GetCurrentThreadEv
$zf:_TlsServerHelloDone__ctor_m2125611008
B_d:_Hashtable__ctor_m2337481811
$xh:_Enumerator_System_Collections_IEnumerator_get_Current_m2010873149_gshared
YFd:_Resources_t2975512894_marshal_pinvoke_cleanup
jsg:__ZL88Type_t_CustomAttributesCacheGenerator_Type_MakeGenericType_m2765875033____typeArguments0P21CustomAttributesCache
E1g:__ZL74SpriteState_t1353336012_CustomAttributesCacheGenerator_m_HighlightedSpriteP21CustomAttributesCache
bu:__ZN24GenerateTypeTreeTransfer21TransferSTLStyleArrayINSt3__26vectorI24CompressedAnimationCurve13stl_allocatorIS3_L18MemLabelIdentifier26ELi16EEEEEEvRT_17TransferMetaFlags
gIj:_GC_push_conditional_with_exclusions
N9f:_UInt32_System_IConvertible_ToUInt16_m2798641702_AdjustorThunk
zWf:_BinaryFormatter_get_DefaultSurrogateSelector_m219714691
nz:__ZN21AnimationPosePlayableD0Ev
IF:__ZN12_GLOBAL__N_121ProcessAnimationBeginER35AnimationPlayableEvaluationConstantR32AnimationPlayableEvaluationInputR33AnimationPlayableEvaluationOutput
_8g:__Z136RuntimeInvoker_Void_t1841601450_Int32_t2071877448_RuntimeObject_RuntimeObject_RuntimeObject_RuntimeObject_RuntimeObject_SByte_t454417549PFvvEPK10MethodInfoPvPS4_
Qvf:_MD4Managed_Encode_m2097839378
ykf:_Collection_1_System_Collections_IList_get_IsFixedSize_m3252091801_gshared
dFd:_FloatTween_get_ignoreTimeScale_m4161298485_AdjustorThunk
Ong:_MonoProperty_GetOptionalCustomModifiers_m3827844355
CQj:_strrchr
Qai:__ZN21InterfaceFuncInvoker1IP8String_tS1_E6InvokeEjP11Il2CppClassP12Il2CppObjectS1_
Dxe:_SimpleCollator_GetSortKey_m2188419329
w2g:__ZL56LayoutElement_t2808691390_CustomAttributesCacheGeneratorP21CustomAttributesCache
jOh:_Scrollbar_Set_m244028386
FVa:__ZN14RenderSettings27UpdateIndirectSpecularColorEv
awh:__Z102RuntimeInvoker_RuntimeObject_UILineInfo_t3621277874_UILineInfo_t3621277874_RuntimeObject_RuntimeObjectPFvvEPK10MethodInfoPvPS4_
Vdb:__ZN14PlayerSettings8TransferI18StreamedBinaryReadILb0EEEEvRT_
b8h:_FixedBufferAttribute__ctor_m2048050068
vdj:__ZN6il2cpp6icalls8mscorlib6System8MonoType16GetMethodsByNameEP20Il2CppReflectionTypeP12Il2CppStringibS5_
pqi:_Logger_Log_m302200299
B8h:_GCHandle__ctor_m2952050298
Due:_LayoutGroup_SetProperty_TisAxis_t1431825778_m2174054513_gshared
o3a:__ZN4PPtrI10GameObjectE8TransferI14SafeBinaryReadEEvRT_
KLh:_Mask_IsRaycastLocationValid_m62488857
JNb:__ZNSt3__27__sort3IRNS_4lessIN22BuiltinResourceManager8ResourceEEEPS3_EEjT0_S7_S7_T_
j5h:_DefaultComparer_Compare_m3472472212_gshared
kuh:__Z31RuntimeInvoker_Slot_t2022531261PFvvEPK10MethodInfoPvPS4_
WQe:_MonoIO_GetLength_m2812344043
L_c:_ps_hints_t2mask
lSg:__ZL68UsedByNativeCodeAttribute_t3212052468_CustomAttributesCacheGeneratorP21CustomAttributesCache
Epj:__ZN14dense_hash_mapI10KeyWrapperINSt3__24pairIP11Il2CppClassjEEES4_N6il2cpp8metadata14ArrayClassHashENS6_14EqualsComparerINS8_17ArrayClassCompareEEENS1_9allocatorINS2_IKS6_S4_EEEEEC2EjRKS9_RKSC_
k9a:__ZN10BlendShape8TransferI19StreamedBinaryWriteILb0EEEEvRT_
_M:__Z32TransferEnumWithNameForceIntSizeI14SafeBinaryReadN10SampleClip8LoadTypeEEvRT_RT0_PKc17TransferMetaFlags
pOe:__Z21il2cpp_codegen_sizeofP11Il2CppClass
qva:__Z19GetTimeSinceStartupv
Grd:_SecurityFrame_get_Assembly_m2816566490
oBj:__ZN6il2cpp2os10ThreadImpl11SetPriorityENS0_14ThreadPriorityE
C0i:_CanvasRenderer_set_hasPopInstruction_m3302400555
P3c:_TT_Load_Composite_Glyph
JKg:__ZL84Camera_t189460977_CustomAttributesCacheGenerator_Camera_get_targetTexture_m505846373P21CustomAttributesCache
Crg:__ZL66RuntimeArray_CustomAttributesCacheGenerator_Array_Sort_m2323017822P21CustomAttributesCache
mRd:_Array_Sort_m2994254654
$af:_List_1__ctor_m593058937_gshared
$je:_Array_InternalArray__IEnumerable_GetEnumerator_TisColor32_t874517518_m2198639025_gshared
GUb:__ZN29RenderNodeQueuePrepareContextC2Ev
CV:__ZN10SampleClipC2E18MemLabelIdentifier18ObjectCreationMode
jmb:__ZN9ShaderLab20SerializedSubProgram16TextureParameter8TransferI24GenerateTypeTreeTransferEEvRT_
Rha:__ZN9GfxDevice19SaveStereoConstantsEv
F4f:_Thread_set_Name_m1343706609
_Kj:__ZN6il2cpp2os11MutexHandle4WaitEj
ajc:__ZL34GetComponentsImplementationRecurseILb1ELi1ELi1EEbR10GameObjectbRK17CompareParametersRK39GetComponentsImplementation_ReturnValue
ZKj:__ZN6il2cpp2os11MutexHandle4WaitEv
HWd:_ArrayList_set_Capacity_m592558035
bta:__ZN6prcoreL17RemapGenericFloatI15TexFormatRGHalf18TexFormatARGBFloatEEvPKNS_9InnerInfoE
GWe:_MonoEnumInfo_t2335995564_marshal_pinvoke_cleanup
LWa:__ZNK13RenderTexture13GetDataHeightEv
mMb:__Z18SimulateMouseInputi
AQb:__ZN13RenderManager23AddRemoveCamerasDelayedEv
zyc:__ZN9JSONWrite8TransferI13dynamic_arrayIdLj8EEEEvRT_PKc17TransferMetaFlags
wFa:__ZN23PreloadManagerOperation11GetPriorityEv
bee:_Exception_get_InnerException_m3722561235
Tli:_Color_op_Multiply_m2110750533
Xhe:_Array_InternalArray__ICollection_Remove_TisILTokenInfo_t149559338_m1523907845_gshared
BXh:_InternalEnumerator_1_System_Collections_IEnumerator_Reset_m138745466_AdjustorThunk
dmh:__Z105RuntimeInvoker_Void_t1841601450_Vector2U26_t3911752445_RuntimeObject_RuntimeObject_Vector2U26_t3911752445PFvvEPK10MethodInfoPvPS4_
Q7e:_List_1_GetEnumerator_m4053501645_gshared
bcj:__ZN6il2cpp2gc9AllocatorIP17Il2CppAsyncResultE10deallocateEPvj
U_d:_Hashtable_Rehash_m2877670513
J0b:__ZN13RenderTexture8SetWidthEi
ANd:_InputField_Insert_m1593238693
Y8b:__ZNK28RectTransformPropertyBinding12SetPPtrValueERKN11UnityEngine9Animation10BoundCurveEi
kGb:__Z18Transfer_BlittableI18StreamedBinaryReadILb0EELb0EfEvRK29SerializationCommandArgumentsR31RuntimeSerializationCommandInfo
w9a:__ZN10MeshFilterD0Ev
nWc:_UNITY_FT_GlyphLoader_CheckSubGlyphs
dcj:__ZN6il2cpp2vm21ThreadPoolCompartment20SpawnNewWorkerThreadEv
mne:_Array_InternalArray__ICollection_Add_TisCustomAttributeTypedArgument_t1498197914_m3260005285_gshared
SWb:__Z25SetupObjectBakedOcclusionbRK15SharedLightDataRK26SharedLightmapSettingsDataRK15LightmapIndicesR17ShaderPassContext
Gdi:__ZN21InterfaceFuncInvoker4IP17Match_t3164245899P17Regex_t1803876613P8String_tiiE6InvokeEjP11Il2CppClassP12Il2CppObjectS3_S5_ii
AJe:_Guid_GetHashCode_m1401300871
PKi:_ListPool_1_U3Cs_ListPoolU3Em__0_m1243609651_gshared
Hnj:__ZN15dense_hashtableINSt3__24pairIK10KeyWrapperIPK14Il2CppAssemblyEPK22Il2CppMonoAssemblyNameEES6_N6il2cpp5utils11PointerHashIS4_EEN14dense_hash_mapIS6_SA_SF_NS6_14EqualsComparerINS0_8equal_toIS5_EEEENS0_9allocatorISB_EEE9SelectKeyESK_SM_E16reset_thresholdsEv
kHd:_FontData__ctor_m3822008992
NUi:__ZL23UnresolvedVirtualCall_5P12Il2CppObjectsPK10MethodInfo
qH:__ZN4PPtrI6AvatarE8TransferI19StreamedBinaryWriteILb0EEEEvRT_
JEh:_Dictionary_2_System_Collections_IDictionary_set_Item_m115188189_gshared
_3:__ZN9ShaderLab16FastPropertyName4InitEPKc
yFc:__ZN11b2GearJointD0Ev
c8b:__Z13RegisterClassIN2UI13RectTransformEEvv
$we:_MSCompatUnicodeTable_ToWidthCompat_m2299599532
wYe:_NumberFormatter_get_IsFloatingSource_m2830957202
hcc:__ZL31MeshRendererTransformChangedJobP13BoundsJobDatajPK23TransformAccessReadOnlyPKyj
ocd:__ZN11UnityEngine15PlatformWrapper19GetPhysicalMemoryMBEv
OAi:_RequireComponent__ctor_m2052903070
W5a:__ZN10VertexData8TransferI17RemapPPtrTransferEEvRT_
pWa:__ZN13RenderTexture9SetMipMapEb
F6i:__ZN15dense_hashtableINSt3__24pairIK10KeyWrapperIPK11Il2CppClassEPKcEES6_N6il2cpp5utils11PointerHashIS3_EEN14dense_hash_mapIS6_S9_SE_NS6_14EqualsComparerINS0_8equal_toIS5_EEEENS0_9allocatorISA_EEE9SelectKeyESJ_SL_E13set_empty_keyERKSA_
SPh:_ScrollRect_set_verticalScrollbarSpacing_m2356851539
Eda:__Z18GetDirectorManagerv
QAi:_ResourceRequest_t2560315377_marshal_pinvoke_back
qYg:__ZL92PointerEventData_t1599784723_CustomAttributesCacheGenerator_U3CpointerDragU3Ek__BackingFieldP21CustomAttributesCache
Cqc:__Z38Transform_CUSTOM_INTERNAL_get_rotationP12Il2CppObjectP11Quaternionf
aij:__ZNSt3__26vectorIN6il2cpp2vm17TypeNameParseInfoENS_9allocatorIS3_EEE8allocateEj
zxg:__ZL66CriticalFinalizerObject_t1920899984_CustomAttributesCacheGeneratorP21CustomAttributesCache
Wkj:__ZNK15dense_hashtableINSt3__24pairIK10KeyWrapperINS1_IPK10MethodInfoP11Il2CppClassEEEjEES9_17ReflectionMapHashIS8_EN14dense_hash_mapIS9_jSD_NS9_14EqualsComparerINS0_8equal_toIS8_EEEENS0_9allocatorISB_EEE9SelectKeyESI_SK_E5beginEv
gua:__ZN7ApiGLES19UploadBufferSubDataEjN2gl12BufferTargetEllPKv
iga:__ZNSt3__216__rotate_forwardINS_11__wrap_iterIPN4core12basic_stringIcNS2_20StringStorageDefaultIcEEEEEEEET_S9_S9_S9_
dtd:_String_System_IConvertible_ToInt32_m1927223638
Mba:__ZdaPv
wI:__ZN7mecanim12statemachine20StateMachineConstant8TransferI14SafeBinaryReadEEvRT_
Szh:_Transform_1_EndInvoke_m4121732147_gshared
_oi:_FailedToLoadScriptObject_t3605283378_marshal_pinvoke_back
kvd:_ASCIIEncoding__ctor_m4127831672
imi:_GameObject_GetComponent_m724360550
p0i:_CanvasGroup_get_alpha_m4171392097
ovb:__Z19TransferField_ArrayI14SafeBinaryRead27Converter_SimpleNativeClassI8GUIStyleEEvRK23StaticTransferFieldInfoR31RuntimeSerializationCommandInfoRT0_
pfh:__Z63RuntimeInvoker_Void_t1841601450_RuntimeObject_Int16_t4041245914PFvvEPK10MethodInfoPvPS4_
K0f:_UTF8Encoding__ctor_m3336862259
ivj:__ZN15dense_hashtableINSt3__24pairIK10KeyWrapperIP14Il2CppIUnknownEjEES5_N6il2cpp5utils11PointerHashIS3_EEN14dense_hash_mapIS5_jSB_NS5_14EqualsComparerINS0_8equal_toIS4_EEEENS0_9allocatorIS7_EEE9SelectKeyESG_SI_ED2Ev
OKj:__ZN6il2cpp5utils10MemoryPoolC2Ej
YMf:_X509Chain_GetAuthorityKeyIdentifier_m2607407678
KKj:__ZN6il2cpp5utils10MemoryPoolC2Ev
bVa:__ZN14RenderSettings5ResetEv
G6b:__ZN6Sprite9BindAtlasERK4PPtrI11SpriteAtlasE
kvc:__ZN5Unity9rapidjson12GenericValueINS0_4UTF8IcEE13JSONAllocatorE10FindMemberIS4_EENS0_21GenericMemberIteratorILb0ES3_S4_EERKNS1_IS3_T_EE
Mtj:__ZNSt3__212basic_stringIDsNS_11char_traitsIDsEENS_9allocatorIDsEEE6appendEPKDsj
yAd:_RaycastResult_set_gameObject_m1138581891_AdjustorThunk
Lvc:__ZN5Unity9rapidjson13GenericReaderINS0_4UTF8IcEES3_13JSONAllocatorE11ParseNumberILj1ENS0_25GenericInsituStringStreamIS3_EENS0_15GenericDocumentIS3_S4_S4_EEEEvRT0_RT1_
uK:__ZN19StreamedBinaryWriteILb0EE21TransferSTLStyleArrayI22OffsetPtrArrayTransferIN7mecanim8skeleton19SkeletonMaskElementEEEEvRT_17TransferMetaFlags
wab:__ZN14SpriteRenderer14OnChangeSpriteEv
Vte:_Dictionary_2_Do_ICollectionCopyTo_TisKeyValuePair_2_t3716250094_m1740410536_gshared
nHh:_DefaultComparer__ctor_m580747638_gshared
iBj:__ZN6il2cpp2os10ThreadImplD2Ev
ADe:_RSAManaged_Dispose_m3018788098
kGc:__ZN12b2MouseJoint23InitVelocityConstraintsERK12b2SolverData
Cwc:__ZN8Gradient8TransferI9JSONWriteEEvRT_
T3f:_Monitor_Monitor_pulse_m2135582245
JAf:_Context_get_ReceivedConnectionEnd_m3369356276
xHf:_NameObjectCollectionBase_get_Count_m2353593692
$Ea:__ZNK12TLSAllocatorI14StackAllocatorE22GetAllocatedMemorySizeEv
Sv:__ZN7mecanim6memory16ChainedAllocator8AllocateEjj
U5d:_Convert_ToUInt32_m3394039268
Fni:_DisplaysUpdatedDelegate_EndInvoke_m1055876886
TCa:__ZN17RemapPPtrTransfer12PushMetaFlagE17TransferMetaFlags
XT:__ZNK7WeakPtrI20SoundChannelInstanceE10SharedData9GetRawPtrEv
zqb:__ZN12HandlerChain4NameEv
$wb:__Z29Transfer_Blittable_ArrayFieldI14SafeBinaryReadN4math12int3_storageEEvRT_R9ArrayInfoRK23StaticTransferFieldInfo
hcb:__ZNSt3__26vectorI9InputAxisNS_9allocatorIS1_EEE10deallocateEv
yKe:_Int16_Equals_m3925135434_AdjustorThunk
qad:__Z44Register_UnityEngine_CanvasRenderer_get_cullv
vBh:_Enumerator_Dispose_m2532362830_AdjustorThunk
Xtg:__ZL60IHashCodeProvider_t1980576455_CustomAttributesCacheGeneratorP21CustomAttributesCache
z8b:__ZN13ProduceHelperI13MonoBehaviourLb0EE7ProduceE18MemLabelIdentifier18ObjectCreationMode
g$e:_Enumerator_VerifyState_m1677639504_AdjustorThunk
Y4b:__Z29StdTemplateConversionFunctionIbbEbPvR14SafeBinaryRead
hEj:__ZNK15dense_hashtableINSt3__24pairIK10KeyWrapperIPK19Il2CppGenericMethodEP10MethodInfoEES6_N6il2cpp8metadata23Il2CppGenericMethodHashEN14dense_hash_mapIS6_S9_SD_NS6_14EqualsComparerINSC_26Il2CppGenericMethodCompareEEENS0_9allocatorISA_EEE9SelectKeyESH_SJ_E12test_deletedEj
xyf:_CipherSuiteCollection_get_Item_m280627160
rtb:__Z44InitializeTransferFunctionScriptingTraitsForI17RemapPPtrTransferEvR31TransferFunctionScriptingTraits
HRf:_SerializationInfoEnumerator_MoveNext_m1876990879
j6f:_TimeSpan_Duration_m4205681645
F2b:__ZN14UnityWebStream24UpdateAllUnityWebStreamsEv
O8b:__ZNSt3__26vectorI16MessageForwarder13stl_allocatorIS1_L18MemLabelIdentifier7ELi8EEE6resizeEj
yff:_Collection_1_System_Collections_IList_get_IsReadOnly_m2329986891_gshared
xsg:__ZL60ObsoleteAttribute_t3878847927_CustomAttributesCacheGeneratorP21CustomAttributesCache
zii:_Uri_ParseAsWindowsAbsoluteFilePath_m1108586962
Wzf:_Context_get_HandshakeState_m3443153737
Soe:_Array_InternalArray__ICollection_CopyTo_TisRaycastHit2D_t4063908774_m3837098618_gshared
kgb:__ZN18LoadSceneOperation21MustCompleteNextFrameEv
UBi:_DataUtility_GetInnerUV_m593541260
$S:__ZNK12AudioManager16GetAudioListenerEv
rmg:_MonoField_get_FieldType_m598011426
xff:_Collection_1_System_Collections_IList_get_IsFixedSize_m1624702704_gshared
q2i:_Rigidbody2D_AddForce_m4059537452
CKg:__ZL48Camera_t189460977_CustomAttributesCacheGeneratorP21CustomAttributesCache
p0b:__ZNSt3__26vectorI11CameraStackNS_9allocatorIS1_EEE8__appendEj
tsj:__ZNSt3__212basic_stringIcNS_11char_traitsIcEENS_9allocatorIcEEE6__initINS_11__wrap_iterIPcEEEENS_9enable_ifIXsr21__is_forward_iteratorIT_EE5valueEvE4typeESB_SB_
LKc:__ZNK11Rigidbody2D20GetAttachedCollidersER13dynamic_arrayIP10Collider2DLj4EE
JMd:_InputField_OnDisable_m1865339380
K9f:_UInt32_System_IConvertible_ToType_m747769316
Vx:__ZN7mecanim9animation12GetHumanPoseERKNS0_18ClipMuscleConstantEPKNS0_10ValueDeltaERNS_5human9HumanPoseE
ave:_Array_InternalArray__get_Item_TisInt16_t4041245914_m2533263979_gshared
Kz:__ZN22AnimationMixerPlayable17ProcessRootMotionEP35AnimationPlayableEvaluationConstantP32AnimationPlayableEvaluationInputP33AnimationPlayableEvaluationOutput
OCb:__Z29Transfer_Blittable_ArrayFieldI19StreamedBinaryWriteILb0EEjEvRT_R9ArrayInfoRK23StaticTransferFieldInfo
K9:__Z13GetFileSystemv
bba:__ZNK5Unity4Type21FindAllDerivedClassesER13dynamic_arrayIPKS0_Lj4EENS0_17TypeFilterOptionsE
Iba:__ZN13RuntimeStaticI15GUIEventManagerLb0EE16StaticInitializeEPv
tbb:__ZN14SafeBinaryRead8TransferIfEEvRT_PKc17TransferMetaFlags
uHb:__ZL12InvokeMethodI18StreamedBinaryReadILb0EEEvRK29SerializationCommandArgumentsR31RuntimeSerializationCommandInfo
oHe:_DaylightTime_get_Delta_m2316831491
SMc:__ZNSt3__27__sort5IR24RayHitsByDepthComparitorP12RaycastHit2DEEjT0_S5_S5_S5_S5_T_
qhe:_Array_InternalArray__ICollection_Contains_TisUILineInfo_t3621277874_m1175659630_gshared
dkh:__Z70RuntimeInvoker_Boolean_t3825574718_Color_t2020392075_Color_t2020392075PFvvEPK10MethodInfoPvPS4_
A5f:_WaitHandle_WaitOne_m370363697
PYg:__ZL114PointerEventData_t1599784723_CustomAttributesCacheGenerator_PointerEventData_set_pointerCurrentRaycast_m2431897513P21CustomAttributesCache
cPf:_FactoryCache_Lookup_m1681894361
p8d:_DateTime_Subtract_m698282245_AdjustorThunk
Aab:__ZThn32_N14SpriteRenderer15AddAsRenderNodeER15RenderNodeQueueRK20DeprecatedSourceData
D5h:_DefaultComparer__ctor_m2470932885_gshared
bme:_Array_InternalArray__IndexOf_TisResourceCacheItem_t333236149_m761772858_gshared
wlf:_Collection_1_InsertItem_m724820684_gshared
hGg:__ZL79Convert_t2607082565_CustomAttributesCacheGenerator_Convert_ToUInt64_m1896191125P21CustomAttributesCache
tRb:__ZN19ShaderPropertySheet9SetMatrixEN9ShaderLab16FastPropertyNameERK10Matrix4x4fNS_8SetFlagsE
Fld:_RIPEMD160Managed_Initialize_m3365407578
K0a:__Z29GetTextureSizeAllowedMultiple13TextureFormat
SIf:_IPAddress_HostToNetworkOrder_m1092199707
gje:_SetPropertyUtility_SetStruct_TisSpriteState_t1353336012_m2898060836_gshared
iPb:__ZZ23InitPlayerLoopCallbacksvEN52InitializationAsyncUploadTimeSlicedUpdateRegistrator7ForwardEv
Npd:_SecurityAttribute__ctor_m3425755778
Odc:__ZN21IntermediateRenderers3AddEP20IntermediateRenderer
Xej:_il2cpp_array_element_size
Zf:_glCheckFramebufferStatus
pTg:__ZL55TextGenerator_t647235000_CustomAttributesCacheGeneratorP21CustomAttributesCache
zke:_Array_compare_TisInt32_t2071877448_m840310202_gshared
Byh:_Enumerator_System_Collections_IEnumerator_get_Current_m229223308_AdjustorThunk
Jwj:__ZN15dense_hashtableINSt3__24pairIK10KeyWrapperINS1_IPKcS4_EEEiEES6_24NamespaceAndNamePairHashN14dense_hash_mapIS6_iS9_NS6_14EqualsComparerI26NamespaceAndNamePairEqualsEENS0_9allocatorIS8_EEE9SelectKeyESD_SF_E12resize_deltaEjj
I4h:_InternalEnumerator_1_System_Collections_IEnumerator_get_Current_m442726479_AdjustorThunk
C$:__ZN19CloudServiceHandler20StartEventDispatcherERKN11UnityEngine15CloudWebService18CloudServiceConfigERNS1_23WebRequestRestHeaderMapE
Q2h:_InternalEnumerator_1_System_Collections_IEnumerator_get_Current_m790514740_AdjustorThunk
qGc:__ZNK15b2DistanceJoint17GetReactionTorqueEf
yph:__Z78RuntimeInvoker_Boolean_t3825574718_TransitionU26_t3012618447_Int32_t2071877448PFvvEPK10MethodInfoPvPS4_
Pwe:__Z37il2cpp_codegen_get_executing_assemblyPK10MethodInfo
Zpb:__ZN9Transform23VirtualRedirectTransferER17RemapPPtrTransfer
pjh:__Z72RuntimeInvoker_Boolean_t3825574718_Bounds_t3033363703_Bounds_t3033363703PFvvEPK10MethodInfoPvPS4_
iui:_PKCS12_get_Keys_m1312614820
eJ:__ZN15SerializeTraitsINSt3__24pairI8StateKey10StateRangeEEE8TransferI24GenerateTypeTreeTransferEEvRS4_RT_
KJ:__ZN15SerializeTraitsI9OffsetPtrIN7mecanim12statemachine21SelectorStateConstantEEE8TransferI18StreamedBinaryReadILb0EEEEvRS4_RT_
Ble:_Array_InternalArray__IndexOf_TisByte_t3683104436_m3605266236_gshared
flf:_Collection_1_System_Collections_IList_Insert_m435904526_gshared
tQc:__ZN15dense_hashtableINSt3__24pairIKNS1_IPK10Collider2DS4_EE11Collision2DEES5_NS2_23ColliderPairHashFunctorEN14dense_hash_mapIS5_S7_S9_NS0_8equal_toIS5_EE13stl_allocatorIS8_L18MemLabelIdentifier67ELi16EEE9SelectKeyESC_SF_E13set_empty_keyERKS8_
VNh:_RaycastAllCallback_Invoke_m981876639
w0f:_UnicodeEncoding__ctor_m72484327
qCi:_Texture_INTERNAL_get_texelSize_m3335010007
lvj:__ZN14dense_hash_mapI10KeyWrapperIP14Il2CppIUnknownEjN6il2cpp5utils11PointerHashIS1_EENS3_14EqualsComparerINSt3__28equal_toIS2_EEEENS9_9allocatorINS9_4pairIKS3_jEEEEE15set_deleted_keyERSF_
qba:__ZN22BuiltinResourceManager16StaticInitializeEPv
Cv:__ZN7mecanim4hand8HandPose8TransferI19StreamedBinaryWriteILb0EEEEvRT_
JLe:_NumberFormatter_ScaleOrder_m1915154678
srj:__ZN6il2cpp2gc9AllocatorIP12Il2CppThreadE10deallocateEPvj
xnj:__ZN13Il2CppHashMapIPK14Il2CppAssemblyPK22Il2CppMonoAssemblyNameN6il2cpp5utils11PointerHashIS1_EENSt3__28equal_toIS2_EENSA_9allocatorINSA_4pairIK10KeyWrapperIS2_ES5_EEEEEC2EjRKS9_RKSC_
sAf:_ClientSessionInfo_SetContext_m2649357891
pxi:_PropertyAttribute__ctor_m1714388149
wMe:_Int32_System_IConvertible_ToInt64_m3790029067_AdjustorThunk
eDc:__ZN13BoxCollider2D13PrepareShapesER13dynamic_arrayIP7b2ShapeLj4EERK10Matrix4x4f
fs:__ZN14AnimationEvent8TransferI14SafeBinaryReadEEvRT_
wxd:_RaycasterManager_GetRaycasters_m1154876874
FFf:_SslStreamBase_InternalReadCallback_m2524917586
P8:__ZN8Remapper6RemoveEi
f4e:_List_1_CheckCollection_m2608305187_gshared
jJa:__ZN10MemoryFile4ReadEyPvPy
Y7f:_Type_get_ContainsGenericParameters_m505913180
Ajc:__ZN9Scripting27CreateArgumentNullExceptionEPKc
vVc:__ZL36CleanupTextRenderingScriptingClassesv
f7g:__Z52RuntimeInvoker_UInt32_t2149682021_Decimal_t724701077PFvvEPK10MethodInfoPvPS4_
yof:_ReadOnlyCollection_1__ctor_m3532148437_gshared
UQd:_Array_BinarySearch_m3270245097
ioc:__Z34Mesh_CUSTOM_SetArrayForChannelImplP12Il2CppObject30InternalScriptingShaderChannel34InternalScriptingVertexChannelTypeiP11Il2CppArrayi
kQe:_MonoIO_DeleteFile_m3273821223
Lye:_BigInteger_GenerateRandom_m2507308768
S6d:_DateTime_System_IConvertible_ToDouble_m1431748426_AdjustorThunk
bhe:_Array_InternalArray__ICollection_Contains_TisUInt16_t986882611_m510319131_gshared
Ype:_Array_InternalArray__Insert_TisRaycastHit2D_t4063908774_m3174907903_gshared
Lae:_Decimal_ToString_m541380585
RPf:_RepeatContext_get_Previous_m808449037
fnh:__Z46RuntimeInvoker_CharacterValidation_t3437478890PFvvEPK10MethodInfoPvPS4_
Tkg:_MemberFilter__ctor_m1775909550
nfj:_il2cpp_class_is_valuetype
RK:__ZN11UnityEngine9Animation28GenericAnimationBindingCache25RegisterIAnimationBindingEPKN5Unity4TypeEiP17IAnimationBinding
uad:__Z70RectTransformUtility_CUSTOM_INTERNAL_CALL_RectangleContainsScreenPointP12Il2CppObjectRK13Vector2fIcallS0_
zde:_Enum_ToObject_m2601523252
aUj:dynCall_viiffiii
eFf:_InternalAsyncResult_get_FromWrite_m2893408424
B4i:__ZN6il2cpp2vm5Class15GetElementClassEP11Il2CppClass
iPd:_U3CDelayedSetDirtyU3Ec__Iterator0_System_Collections_IEnumerator_get_Current_m851854792
g$b:__Z40ProcessCameraIndexListIsNodeVisibleInOutRK22SceneCullingParametersPK9SceneNodePK4AABBR9IndexList
Mqi:_Mathf_Sqrt_m3274009347
SSa:__ZN16GraphicsSettings8TransferI17RemapPPtrTransferEEvRT_
luf:_BigInteger_op_LessThanOrEqual_m3528380540
pTe:_StreamReader__ctor_m2654332332
Y7c:__ZN2UI6Canvas13UpdateBatchesEb
Gwi:_Playable__cctor_m3745623656
PC:__ZNK23AnimationPlayableOutput11DerivesFromE17ScriptingClassPtr
J$a:__ZN7Texture19SupportsAsyncUploadI19StreamedBinaryWriteILb0EEEEbRT_
Pli:_Color_op_Implicit_m3487763211
l2e:_List_1_CheckCollection_m3968030679_gshared
s$i:_Predicate_1_BeginInvoke_m3556950370_gshared
q1f:_StringBuilder_ToString_m617673931
Eha:__ZNK13GfxDeviceGLES12GetWireframeEv
p3f:_UTF8Encoding_GetString_m1836344205
spf:_ReadOnlyCollection_1_System_Collections_ICollection_get_IsSynchronized_m3127987432_gshared
idd:__ZN11UnityEngine7Connect13ConfigHandler12GetListenersERKN4core12basic_stringIcNS2_20StringStorageDefaultIcEEEE
uUg:__ZL110AudioSource_t1135106623_CustomAttributesCacheGenerator_AudioSource_INTERNAL_CALL_ReadExtensionName_m3515549821P21CustomAttributesCache
hja:__ZN9GfxDevice18AllocRenderSurfaceEb
KNh:_GetRayIntersectionAllNonAllocCallback_BeginInvoke_m273046189
A6b:__ZN10TagManager32GetSortingLayerUniqueIDFromValueEi
Agi:_AnchorInfo_get_IsComplete_m1247624133
EGd:_Dropdown_Show_m324374589
N5:__ZL27CleanupCoreScriptingClassesv
p9g:__Z68RuntimeInvoker_RuntimeObject_RuntimeObject_DSAParameters_t1872138834PFvvEPK10MethodInfoPvPS4_
g2h:_InternalEnumerator_1_get_Current_m4290564662_AdjustorThunk
Fmf:_ReadOnlyCollection_1_System_Collections_ICollection_get_SyncRoot_m769863805_gshared
goh:__Z101RuntimeInvoker_Void_t1841601450_RuntimeObject_Int32_t2071877448_Single_t2076509932_Single_t2076509932PFvvEPK10MethodInfoPvPS4_
Rzd:_RaycastResult_get_isValid_m2482925612
boc:__Z26AnimationCurve_CUSTOM_InitP12Il2CppObjectP11Il2CppArray
G$j:_glUniform1uiv__wrapper
tDc:__ZNK14b2PolygonShape5CloneEP16b2BlockAllocator
inj:__ZN6il2cpp2vm10Reflection7IsEventEP12Il2CppObject
sNj:__ZNSt3__26__treeINS_12__value_typeIPFvvEPK10MethodInfoEENS_19__map_value_compareIS3_S7_NS_4lessIS3_EELb1EEENS_9allocatorIS7_EEE16__insert_node_atEPNS_16__tree_node_baseIPvEERSI_SI_
W6:__ZN17PersistentManager26GetStreamNameSpaceInternalEi
yyi:_Rect_set_y_m3273335367
YQc:__Z40Rigidbody2D_CUSTOM_INTERNAL_get_positionP12Il2CppObjectP13Vector2fIcall
hN:__ZN4FMOD6System11createSoundEPKcjP22FMOD_CREATESOUNDEXINFOPPNS_5SoundE
Quh:__Z72RuntimeInvoker_Int32_t2071877448_Vector2_t2243707579_Vector2_t2243707579PFvvEPK10MethodInfoPvPS4_
Thf:__ZN23InterfaceActionInvoker2Ii22UICharInfo_t3056636800E6InvokeEjP11Il2CppClassP12Il2CppObjectiS0_
$n:FUNCTION_TABLE_iiifiiii
Bij:__ZN6il2cpp2vm4Type14IsSystemDBNullEPK10Il2CppType
U4:__ZN9ShaderLab19CommonPropertyNames13StaticCleanupEPv
f8:__Z31scripting_method_get_returntype18ScriptingMethodPtr
_Ph:_ScrollRect_UpdateBounds_m3266596336
Z1a:__ZN15SerializeTraitsI12LightmapDataE8TransferI24GenerateTypeTreeTransferEEvRS0_RT_
zDi:_Transform_INTERNAL_set_localScale_m1610244689
hEd:_ColorBlock_GetHashCode_m649325222
eYj:_glStencilOpSeparate__wrapper
mgc:__ZN4Mesh5SetUvEiPKfjj
u4a:__ZN7Texture13SetAnisoLimitENS_20AnisotropicFilteringE
ihb:__ZN28LightProbeProxyVolumeManager25UpdateSHCoeffsTextureDataER21LightProbeProxyVolume
FJa:__Z18CreateDecompressor15CompressionType18MemLabelIdentifier
TU:__ZN11AudioModule16SetListenerPauseEb
Sh:_emscripten_glCompressedTexSubImage2D
Jva:__ZN13GfxDeviceGLES22MemoryBarrierImmediateEyN2gl17MemoryBarrierTypeE
Vfa:__ZZN18SpriteAtlasManagerC1EvEN46EarlyUpdateSpriteAtlasManagerUpdateRegistrator7ForwardEv
pta:__ZN6prcoreL26RemapGenericFloatToIntegerI18TexFormatARGBFloat17TexFormatARGB8888EEvPKNS_9InnerInfoE
Wic:__Z46GetShaderModelNumericValueFromRequirementsMask18ShaderRequirements
a2c:_cff_ps_has_glyph_names
sAh:_Transform_1_EndInvoke_m1025924012_gshared
oqf:_ReadOnlyCollection_1_System_Collections_Generic_ICollectionU3CTU3E_get_IsReadOnly_m2873538493_gshared
oei:_PatternCompiler_EmitPosition_m3013268572
AOf:_X509SubjectKeyIdentifierExtension__ctor_m1109455121
zVi:__ZL24UnresolvedVirtualCall_45P12Il2CppObject19DateTime_t693205669PK10MethodInfo
QId:_Graphic_CreateColorFromAlpha_m2614574534
c2f:_UnicodeEncoding_GetHashCode_m2443440683
Yuc:__Z44Register_UnityEngine_GUIStyle_SetDefaultFontv
xhg:_GenericTypeParameterBuilder_GetPropertyImpl_m3566422383
mDb:__Z18Transfer_BlittableI18StreamedBinaryReadILb1EELb1EiEvRK29SerializationCommandArgumentsR31RuntimeSerializationCommandInfo
HE:__ZN9BlobWrite8TransferI22OffsetPtrArrayTransferIKN4math7_float3EEEEvRT_PKc17TransferMetaFlags
Jod:_TripleDES_IsWeakKey_m483013953
PLf:_X509Certificate2_get_PrivateKey_m2662162956
BBh:_Enumerator__ctor_m3819430617_AdjustorThunk
Zlj:__ZN15dense_hashtableINSt3__24pairIK10KeyWrapperINS1_IPK12PropertyInfoP11Il2CppClassEEEjEES9_17ReflectionMapHashIS8_EN14dense_hash_mapIS9_jSD_NS9_14EqualsComparerINS0_8equal_toIS8_EEEENS0_9allocatorISB_EEE9SelectKeyESI_SK_E12maybe_shrinkEv
Ffh:__Z75RuntimeInvoker_RuntimeObject_RuntimeObject_Single_t2076509932_RuntimeObjectPFvvEPK10MethodInfoPvPS4_
NDb:__Z18Transfer_BlittableI18StreamedBinaryReadILb1EELb1EsEvRK29SerializationCommandArgumentsR31RuntimeSerializationCommandInfo
Gnh:__Z54RuntimeInvoker_Void_t1841601450_ColorBlock_t2652774230PFvvEPK10MethodInfoPvPS4_
isd:_Single_System_IConvertible_ToSByte_m3757385387
rDi:_Vector3_get_forward_m1316319684
iRe:_StreamAsyncResult_SetComplete_m2141125667
y4a:__ZL21SetAnisoLimitEnumImplN7Texture20AnisotropicFilteringEb
ybd:__ZN22BaseUnityConnectClient17OnEnterStateReadyEv
g6:__Z21GetManagerFromContexti
gRa:__ZN14GrowableBufferD2Ev
LMi:_GUIStyle_get_stretchWidth_m813991504
pnc:__Z29Input_CUSTOM_GetMouseButtonUpi
Vdj:__ZN6il2cpp6icalls8mscorlib6System8MonoType16InternalGetEventEP20Il2CppReflectionTypeP12Il2CppStringi
O9f:_UInt32_System_IConvertible_ToUInt32_m1257480358_AdjustorThunk
cuh:__Z55RuntimeInvoker_CustomAttributeTypedArgument_t1498197914PFvvEPK10MethodInfoPvPS4_
Q3f:_Interlocked_CompareExchange_m3339239614
UXc:_UNITY_tt_face_load_maxp
Dnc:__Z46Input_CUSTOM_INTERNAL_set_compositionCursorPosRK13Vector2fIcall
Yw:__ZN7mecanim5human12FullBodyMaskEv
aEg:__ZL98Activator_t1850728717_CustomAttributesCacheGenerator_Activator_CreateInstance_m1465989661____args1P21CustomAttributesCache
eDi:_Transform_set_position_m2942701431
bbb:__ZN19ShaderPropertySheet11ComputeHashEv
m8i:__ZN30dense_hashtable_const_iteratorI10KeyWrapperIPK19Il2CppGenericMethodES4_N6il2cpp8metadata23Il2CppGenericMethodHashEN14dense_hash_setIS4_S7_NS4_14EqualsComparerINS6_26Il2CppGenericMethodCompareEEENSt3__29allocatorIS4_EEE8IdentityESB_SE_EppEv
$Lc:__ZN12b2EPCollider24ComputePolygonSeparationEv
JEb:__ZN4PPtrI6ObjectE8TransferI18StreamedBinaryReadILb1EEEEvRT_
b_:__ZN11UnityEngine15CloudWebService20WebRequestRestClient6IsDoneEv
DEd:_ColorTween_get_tweenMode_m2919867230_AdjustorThunk
Oi:_llvm_fabs_f32
lDd:_CanvasScaler_HandleScaleWithScreenSize_m80056230
EAh:_Transform_1_EndInvoke_m687617772_gshared
GZ:__ZN11UnityEngine15CloudWebService16SessionContainer16GetJsonDataBlockEjRKN4core12basic_stringIcNS2_20StringStorageDefaultIcEEEERS6_PjSA_
yZf:_SByte_System_IConvertible_ToUInt64_m2174352876_AdjustorThunk
ts:__ZN7mecanim9animation18ClipMuscleConstant8TransferI14SafeBinaryReadEEvRT_
Khg:_GenericTypeParameterBuilder_get_AssemblyQualifiedName_m902593295
Vnj:__ZN15dense_hashtableINSt3__24pairIK10KeyWrapperIPK14Il2CppAssemblyEPK22Il2CppMonoAssemblyNameEES6_N6il2cpp5utils11PointerHashIS4_EEN14dense_hash_mapIS6_SA_SF_NS6_14EqualsComparerINS0_8equal_toIS5_EEEENS0_9allocatorISB_EEE9SelectKeyESK_SM_E13set_empty_keyERKSB_
B2f:_UTF7Encoding_InternalGetBytes_m2772055844
HKh:_EqualityComparer_1__ctor_m831468288_gshared
VDh:_Dictionary_2_System_Collections_IDictionary_set_Item_m2290664072_gshared
wbh:__Z76RuntimeInvoker_Void_t1841601450_Int64_t909078037_ResourceInfoU26_t3126209420PFvvEPK10MethodInfoPvPS4_
lxe:_SimpleCollator__cctor_m2693747668
Eae:_Decimal_CompareTo_m2454501434_AdjustorThunk
k7:__ZN14SafeBinaryReadD2Ev
v8f:_UInt16_System_IConvertible_ToChar_m4055364664
X7b:__Z13RegisterClassI7TextureEvv
Ehi:_ExpressionCollection_OnValidate_m1703610065
Sve:_Component_GetComponentInChildren_TisRuntimeObject_m2461586036_gshared
bFb:__ZN8Gradient8TransferI18StreamedBinaryReadILb1EEEEvRT_
QAh:_Enumerator_Dispose_m2369319718_AdjustorThunk
DFg:__ZL79Convert_t2607082565_CustomAttributesCacheGenerator_Convert_ToUInt16_m3991499696P21CustomAttributesCache
aag:_UInt32_ToString_m554020223_AdjustorThunk
Rcf:_Enumerator_Dispose_m1520016780_AdjustorThunk
npi:_GameObject_SendMessage_m3423113156
zuj:__ZN6il2cpp6icalls8mscorlib6System4Type15MakeGenericTypeEP20Il2CppReflectionTypeP11Il2CppArray
nj:_SDL_PauseAudio
sfj:_il2cpp_class_from_type
ARd:_Array_Sort_m2323017822
COh:_Scrollbar_UpdateDrag_m3839695926
T4:__ZN9ShaderLab19CommonPropertyNames16StaticInitializeEPv
VVe:_MissingMemberException__ctor_m3710131950
uib:__ZN13MemoryManager31DisallowAllocationsOnThisThreadEv
kyi:_Ray_get_direction_m4136268940_AdjustorThunk
JG:__ZN7mecanim9animation18CreateAvatarOutputEPKNS0_14AvatarConstantEbbRNS_6memory9AllocatorE
vgh:__Z91RuntimeInvoker_Void_t1841601450_RuntimeObject_Int32_t2071877448_RuntimeObject_RuntimeObjectPFvvEPK10MethodInfoPvPS4_
x_f:_CspParameters__ctor_m2546931874
TS:__ZN11AudioSource23VirtualRedirectTransferER24GenerateTypeTreeTransfer
Tfc:__ZN7Texture11SetWrapModeE15TextureWrapMode
U6a:__ZN14Texture2DArray23VirtualRedirectTransferER14SafeBinaryRead
iWb:__ZNK6Camera21CalculateCanDoShadowsEv
GGh:_Dictionary_2_make_pair_m2631942124_gshared
UId:_Graphic__cctor_m1643894470
lDj:__ZN6il2cpp2os6Thread12SetStackSizeEj
R5g:__Z99RuntimeInvoker_Void_t1841601450_Int32_t2071877448_RuntimeObject_Int32_t2071877448_Int32_t2071877448PFvvEPK10MethodInfoPvPS4_
jMf:_X509ChainElementEnumerator_get_Current_m2232618221
lni:_DebugLogHandler_LogFormat_m2866699703
qbh:__Z54RuntimeInvoker_CallingConventions_t1097349142_IntPtr_tPFvvEPK10MethodInfoPvPS4_
JCd:_U3COnFinishSubmitU3Ec__Iterator0_Reset_m2080388334
Mfc:__ZNK8Renderer16IsVisibleInSceneEv
UPh:_ScrollRect_set_onValueChanged_m3957749575
X2:__Z13VFormatBufferPciPKcz
iGb:__Z18Transfer_BlittableI18StreamedBinaryReadILb0EELb1EhEvRK29SerializationCommandArgumentsR31RuntimeSerializationCommandInfo
X_i:_U3CCreateWhereIteratorU3Ec__Iterator1D_1_Dispose_m1879652802_gshared
byg:__ZL90SafeHandle_t2733794115_CustomAttributesCacheGenerator_SafeHandle_get_IsInvalid_m3910183075P21CustomAttributesCache
NKd:_Image_GenerateSimpleSprite_m4275440988
k9f:_UInt16_ToString_m3280699191
tta:__ZN6prcoreL27StretchGenericFloatBilinearI15TexFormatRFloatEEvPKNS_9InnerInfoE
azg:__ZL62IDynamicMessageSink_t3056162262_CustomAttributesCacheGeneratorP21CustomAttributesCache
lje:_Array_InternalArray__IEnumerable_GetEnumerator_TisBoolean_t3825574718_m798244337_gshared
J8e:_List_1_CopyTo_m158925060_gshared
Nz:__Z24ProcessAnimationMixBeginP35AnimationPlayableEvaluationConstantP32AnimationPlayableEvaluationInputP33AnimationPlayableEvaluationOutput
mle:_Array_IndexOf_TisCustomAttributeNamedArgument_t94157543_m745056346_gshared
wqa:__Z14PadImageBorderR14ImageReferenceii
Ckj:__ZN15dense_hashtableINSt3__24pairIK10KeyWrapperINS1_IPK10MethodInfoP11Il2CppClassEEEjEES9_17ReflectionMapHashIS8_EN14dense_hash_mapIS9_jSD_NS9_14EqualsComparerINS0_8equal_toIS8_EEEENS0_9allocatorISB_EEE9SelectKeyESI_SK_E4findERSA_
qbj:__ZN6il2cpp2vm13MetadataCache28GetFieldDefaultValueForFieldEPK9FieldInfo
uVh:_ArrayReadOnlyList_1_ReadOnlyError_m2289309720_gshared
pA:__ZN27AnimationLayerMixerPlayableD2Ev
hej:__ZN6il2cpp2vm8basepathEPKc
rIh:_DefaultComparer_GetHashCode_m320514092_gshared
owf:_PKCS1_Verify_v15_m478274703
VMg:__ZL99Input_t1785128008_CustomAttributesCacheGenerator_Input_INTERNAL_set_compositionCursorPos_m144787813P21CustomAttributesCache
mP:__ZN12AudioManager39HandlePendingAudioConfigurationCallbackEv
Q8g:__Z119RuntimeInvoker_Int32_t2071877448_RuntimeObject_RuntimeObject_Int32_t2071877448_Int32_t2071877448_BooleanU26_t3168250738PFvvEPK10MethodInfoPvPS4_
jk:_emscripten_glIsFramebuffer
MNa:__ZN12_GLOBAL__N_16qAtan2Eff
c5d:_Convert_ToInt64_m954367741
zXi:__ZL25UnresolvedVirtualCall_153P12Il2CppObject40CustomAttributeTypedArgument_t1498197914S1_PK10MethodInfo
nk:_JS_Sound_SetLoopPoints
zWd:_ArrayList__ctor_m1467563650
dU:__ZN12AudioManager17ShouldSourcePauseEb
eLj:__ZN6il2cpp2vm26MetadataAllocGenericMethodEv
Zya:__ZN19ConstantBuffersGLES12RecordRenderEv
syc:__ZN9JSONWrite8TransferI10RectOffsetEEvRT_PKc17TransferMetaFlags
bqa:__ZN4crnd12symbol_codec11decode_bitsEj
Mvi:_X509Crl_get_Extensions_m1795830276
mMc:__ZN15b2CircleContact8EvaluateEP10b2ManifoldRK11b2TransformS4_
Dse:_Array_Sort_TisRaycastResult_t21186376_TisRaycastResult_t21186376_m38820193_gshared
xdc:__ZN21FixedBehaviourManagerD0Ev
oMg:__ZL84RectOffset_t3387826427_CustomAttributesCacheGenerator_RectOffset_set_top_m1587840032P21CustomAttributesCache
aTg:__ZL55RaycastHit2D_t4063908774_CustomAttributesCacheGeneratorP21CustomAttributesCache
vui:_PKCS12_EncryptedContentInfo_m938119256
uQe:_StreamReader__ctor_m3454466728
qP:__ZN4FMOD6System12createReverbEPPNS_6ReverbE
Pzi:_RectTransform_get_anchorMin_m3466802567
gA:__ZN7mecanim19ValueArrayBlendNodeILb1EEEvRKNS_10ValueArrayERKNS_14ValueArrayMaskERS1_RS4_RNS_16ValueArrayWeightEf
wib:__Z16MarkDependenciesR27GarbageCollectorThreadStatej
bOf:_X509ChainElementEnumerator_Reset_m3832280427
MXg:__ZL75EventSystem_t3466835263_CustomAttributesCacheGenerator_U3CU3Ef__mgU24cache0P21CustomAttributesCache
$Xe:_MulticastDelegate_RemoveImpl_m2024746777
vDd:_CanvasUpdateRegistry_ParentCount_m2367607495
VXe:_MulticastDelegate_Equals_m3064081489
uGe:_Activator_CreateInstance_m1465989661
Rga:__ZNK9Transform11GetPositionEv
$hi:_PositionAssertion_GetWidth_m2294218483
UTa:__ZN23SharedMeshRenderingData18UnloadVertexStreamEi
Ndc:__ZN31CanvasBatchIntermediateRenderer11AddSubBatchERK16DrawBuffersRangePK19ShaderPropertySheet
N7g:__Z99RuntimeInvoker_Void_t1841601450_RuntimeObject_Int32_t2071877448_Int32_t2071877448_Int32_t2071877448PFvvEPK10MethodInfoPvPS4_
vcc:__ZN19RenderEventsContextC2Ei
UX:__Z6simd4fRKf
Moe:_Array_InternalArray__ICollection_CopyTo_TisColor32_t874517518_m379086718_gshared
sSh:_Slider_ClampValue_m2851810895
Rk:_emscripten_glEnable
azj:__ZN6il2cpp2gc16GarbageCollector29RegisterFinalizerForNewObjectEP12Il2CppObject
nMa:__ZN10TagManager23VirtualRedirectTransferER14SafeBinaryRead
Y8h:_MarshalAsAttribute__ctor_m1892084128
bSi:_U3CDelayedSelfDestroyU3Ec__Iterator0_System_Collections_IEnumerator_get_Current_m1857996667
oXc:_UNITY_FT_Init_Class_ft_grays_raster
Gda:__ZN14PlayableOutput26ClearInvalidSourcePlayableEv
XYb:__Z15InitLightMeshesv
YDg:__ZL97WaitHandle_t677569169_CustomAttributesCacheGenerator_WaitHandle_t677569169____Handle_PropertyInfoP21CustomAttributesCache
tZe:_KeyValuePair_2_ToString_m1391611625_AdjustorThunk
Dn:FUNCTION_TABLE_iifiii
b7e:_List_1_Sort_m4156683373_gshared
g4d:_Double_Parse_m1617409931
r_i:_Comparison_1_BeginInvoke_m4056757384_gshared
p4a:__ZN15QualitySettings8TransferI19StreamedBinaryWriteILb0EEEEvRT_
z3e:_List_1_System_Collections_Generic_IEnumerableU3CTU3E_GetEnumerator_m1503548298_gshared
zBb:__Z18Transfer_BlittableI19StreamedBinaryWriteILb0EELb1E8Vector2fEvRK29SerializationCommandArgumentsR31RuntimeSerializationCommandInfo
e0c:_cf2_arrstack_init
Hxg:__ZL65ClassInterfaceAttribute_t910653559_CustomAttributesCacheGeneratorP21CustomAttributesCache
Qij:__ZN15dense_hashtableINSt3__24pairIK10KeyWrapperINS1_IPK14Il2CppAssemblyP11Il2CppClassEEEjEES9_17ReflectionMapHashIS8_EN14dense_hash_mapIS9_jSD_NS9_14EqualsComparerINS0_8equal_toIS8_EEEENS0_9allocatorISB_EEE9SelectKeyESI_SK_E15insert_noresizeERKSB_
O1:__Z15CleanLogHandler7LogTypePKcz
Nmb:__ZN9ShaderLab19SerializedSubShader8TransferI19StreamedBinaryWriteILb0EEEEvRT_
MO:__ZN14AudioBehaviour15ThreadedCleanupEv
g2f:_UTF32Encoding_GetBytes_m2290150495
tJb:__ZN6Camera17RemoveImageFilterERK11ImageFilter
Xua:__ZNSt3__218__insertion_sort_3IR25ValueParameterArraySorterPN20GpuProgramParameters14ValueParameterEEEvT0_S6_T_
bHc:__ZN10ClipperLib7Clipper27ProcessEdgesAtTopOfScanbeamEx
okh:__Z74RuntimeInvoker_Boolean_t3825574718_HitInfo_t1761367055_HitInfo_t1761367055PFvvEPK10MethodInfoPvPS4_
P8c:__ZZN2UI11CanvasGroup15InitializeClassEvEN38FunctorImpl_117kTransformParentChanged4CallEPviR11MessageData
hLh:_LayoutUtility_GetLayoutProperty_m4052007472
Rxa:__ZNSt3__214__split_bufferI20ComputeShaderVariantRNS_9allocatorIS1_EEED2Ev
xWi:__ZL24UnresolvedVirtualCall_97P12Il2CppObjectS0_iS0_iPK10MethodInfo
EGb:__Z18Transfer_BlittableI18StreamedBinaryReadILb0EELb1E9BoundsIntEvRK29SerializationCommandArgumentsR31RuntimeSerializationCommandInfo
QAf:_Context_set_WriteSequenceNumber_m3356252710
kGj:__ZN6il2cpp2vm13ManagedObject7GetIidsEPjPP10Il2CppGuid
D8c:__ZN2UI26InitializeDeviceForOverlayEi
yJe:_Guid_Equals_m2389236871
N3:__Z27LogRepeatingStringWithFlagsRKN4core12basic_stringIcNS_20StringStorageDefaultIcEEEE15LogMessageFlagsi
i0e:_Enumerator_MoveNext_m3483405135_gshared
yx:__ZN17AnimationPlayable28ComputeNeedsBindingRebuildedEv
Ew:__ZN17AnimationPlayable23RequestAllocateBindingsEv
o5h:_DefaultComparer__ctor_m2859550749_gshared
qne:_Array_InternalArray__ICollection_Add_TisMonoResource_t3127387157_m2070096275_gshared
n1e:_List_1_CheckIndex_m3609163576_gshared
IOg:__ZL62PlayableOutputHandle_t551742311_CustomAttributesCacheGeneratorP21CustomAttributesCache
$Rb:__ZNSt3__227__insertion_sort_incompleteIRPFbP10GUIElementS2_EPS2_EEbT0_S7_T_
LLf:_X509ExtensionCollection__ctor_m1324282194
sed:__ZN18UnityConnectClient33OnPlayerSessionStateChangedStaticEPS_jyy
ZL:__ZN25RuntimeAnimatorController12CleanupClassEv
Btg:__ZL74CaseInsensitiveHashCodeProvider_t2307530285_CustomAttributesCacheGeneratorP21CustomAttributesCache
bbg:_UIntPtr__ctor_m3900568171_AdjustorThunk
TWg:__ZL103UISystemProfilerApi_t845863050_CustomAttributesCacheGenerator_UISystemProfilerApi_EndSample_m3264820872P21CustomAttributesCache
L_:__ZNK11UnityEngine15CloudWebService23WebRequestUploadHandler11GetProgressEv
$ma:__ZN7ApiGLES4LoadE16GfxDeviceLevelGL
l2a:__ZN18StreamedBinaryReadILb0EE21TransferSTLStyleArrayI13dynamic_arrayI31EnlightenSystemAtlasInformationLj8EEEEvRT_17TransferMetaFlags
Wpa:__ZN4crnd12crn_unpacker22decode_color_endpointsEv
hyj:__ZN15dense_hashtableI10KeyWrapperIP18Il2CppGenericClassES3_N6il2cpp8metadata22Il2CppGenericClassHashEN14dense_hash_setIS3_S6_NS3_14EqualsComparerINS5_25Il2CppGenericClassCompareEEENSt3__29allocatorIS3_EEE8IdentityESA_SD_E15insert_noresizeERKS3_
Enf:_ReadOnlyCollection_1_System_Collections_IList_Clear_m3006875897_gshared
Cbc:__ZZL31RegisterOtherRendererPropertiesR22GenericPropertyBindingEN30Wrapper_RendererReceiveShadows13GetFloatValueEPv
VLg:__ZL80GameObject_t1756533147_CustomAttributesCacheGenerator_GameObject_Find_m279709565P21CustomAttributesCache
D9g:__Z130RuntimeInvoker_Void_t1841601450_RuntimeObject_Int32U26_t455636984_ByteU26_t1147306860_Int32U26_t455636984_ByteU5BU5DU26_t790777611PFvvEPK10MethodInfoPvPS4_
A0e:_Enumerator_System_Collections_IEnumerator_get_Current_m3866069145_gshared
yye:_PreviousInfo_t581002487_marshal_pinvoke_cleanup
FMb:__ZN8Material11SetPassFastEPN9ShaderLab4PassER17ShaderPassContextP6Shaderib
O4a:__ZNK13ScreenManager13GetLockCursorEv
qed:__ZN11UnityEngine7Connect20BasePersistentValues10SaveValuesER9JSONWrite
XTi:_AudioListener_AddExtension_m2954727157
wyd:_ExecuteEvents_get_pointerDownHandler_m1172742772
RMc:__ZNSt3__27__sort4IR24RayHitsByDepthComparitorP12RaycastHit2DEEjT0_S5_S5_S5_T_
$gc:__Z14ScaleCurveTimeR17AnimationCurveTplIfEf
Oba:__ZN22VirtualJoystickManagerC2Ev
eTb:__Z12SetupLODFadeR9GfxDeviceR17ShaderPassContextf
z_a:__ZNK14PlayableOutput7GetTypeEv
yLc:__ZN26b2PolygonAndCapsuleContact6CreateEP9b2FixtureiS1_iP16b2BlockAllocator
W8g:__Z203RuntimeInvoker_Boolean_t3825574718_RuntimeObject_Int32U26_t455636984_Int32_t2071877448_Int32_t2071877448_RuntimeObject_SByte_t454417549_Int32_t2071877448_ContractionU26_t2019974048_ContextU26_t3131521781PFvvEPK10MethodInfoPvPS4_
Bui:_X501_ToString_m3328169518
KYb:__ZL24CollectForwardObjectsJobP27CollectForwardObjectsHeader
Lwh:_Enumerator_System_Collections_IDictionaryEnumerator_get_Entry_m345330700_gshared
Jaj:__ZNK15dense_hashtableINSt3__24pairIK10KeyWrapperIPK11Il2CppClassEPKcEES6_N6il2cpp5utils11PointerHashIS3_EEN14dense_hash_mapIS6_S9_SE_NS6_14EqualsComparerINS0_8equal_toIS5_EEEENS0_9allocatorISA_EEE9SelectKeyESJ_SL_E12test_deletedERK24dense_hashtable_iteratorISA_S6_SE_SN_SJ_SL_E
jBg:__ZL53HMACSHA256_t2622794722_CustomAttributesCacheGeneratorP21CustomAttributesCache
h0b:__ZNK25CameraStackRenderingState24ResolveTempToEyeTexturesEv
H_b:__Z13IsNodeVisibleRK9SceneNodeRK4AABBRK22SceneCullingParameters
Ckg:_EventInfo__ctor_m1190141300
mXh:_InternalEnumerator_1_MoveNext_m3585886944_gshared
wad:__Z57RectTransformUtility_CUSTOM_INTERNAL_CALL_PixelAdjustRectP12Il2CppObjectS0_R5RectTIfE
F$b:__Z24ScheduleCullingAllGroupsR8JobFenceRK22SceneCullingParametersiRK13CullingOutputRK13dynamic_arrayIP12CullingGroupLj4EERKS_
fWf:_DelayedFixupRecord_FixupImpl_m4249966635
C1j:_emscripten_glStencilMask__wrapper
c8i:__ZN15dense_hashtableI10KeyWrapperIPK19Il2CppGenericMethodES4_N6il2cpp8metadata23Il2CppGenericMethodHashEN14dense_hash_setIS4_S7_NS4_14EqualsComparerINS6_26Il2CppGenericMethodCompareEEENSt3__29allocatorIS4_EEE8IdentityESB_SE_EC2ERKSH_j
Xye:_BigInteger_ToString_m3837784224
Cae:_Decimal_decimalCompare_m26009298
sHa:__ZNK17ArchiveFileSystem8PositionERK13FileEntryData
ARc:__ZN16NovodexAllocator8allocateEjPKcS1_i
Qbe:_DllNotFoundException__ctor_m267198482
jYb:__Z17PrepareShadowMapsRK11CullResultsRK11ActiveLightRK10MinMaxAABB
d0g:__ZL81U3CMouseDragOutsideRectU3Ec__Iterator1_t2599668326_CustomAttributesCacheGeneratorP21CustomAttributesCache
D3f:_NativeEventCalls_CreateEvent_internal_m1605829321
f2e:_List_1_GetIndex_m3409004147_gshared
fQg:__ZL73RuntimePlatform_t1869584967_CustomAttributesCacheGenerator_MetroPlayerX64P21CustomAttributesCache
VUi:__ZL24UnresolvedVirtualCall_13P12Il2CppObjectaPK10MethodInfo
e$h:_InternalEnumerator_1_System_Collections_IEnumerator_get_Current_m3239681450_AdjustorThunk
Ckb:__ZNSt3__26vectorIN9ShaderLab20SerializedSubProgram15VectorParameterENS_9allocatorIS3_EEEC2ERKS6_
HYb:__ZN9ShaderLab10GrabPassesD2Ev
d7a:__ZN14Texture2DArray13UploadTextureEv
wrd:_SecurityFrame_t1002202659_marshal_pinvoke
DZc:_tt_cmap14_done
ngb:__ZN18AwakeFromLoadQueue25RegisterObjectInstanceIDsEv
QKg:__ZL75Camera_t189460977_CustomAttributesCacheGenerator_Camera_get_main_m881971336P21CustomAttributesCache
STd:_Buffer_BlockCopy_m1586717258
JAg:__ZL93X509Certificate_t283079845_CustomAttributesCacheGenerator_X509Certificate_GetName_m2354987368P21CustomAttributesCache
uA:__ZNK27AnimationLayerMixerPlayable11DerivesFromE17ScriptingClassPtr
ETc:__ZN20TextRenderingPrivate19NativeTextGenerator15InsertCharacterEiPj
iZh:_InternalEnumerator_1__ctor_m3589241961_AdjustorThunk
ffe:_CompareInfo_GetSortKey_m3691382873
xXh:_InternalEnumerator_1_MoveNext_m1791963761_AdjustorThunk
KEc:__ZN11b2RopeJoint24SolveVelocityConstraintsERK12b2SolverData
y9d:_DBNull_ToString_m3228904745
XJf:_WebHeaderCollection_AddWithoutValidate_m1479880592
J1i:_Physics2D_Raycast_m608778191
knd:_SHA1Managed_HashCore_m2658295635
bz:__ZN17AnimationPlayableD0Ev
Fwf:_RC4_get_IV_m506011366
Jvi:_X509Crl__ctor_m2469408229
rCb:__Z18Transfer_BlittableI19StreamedBinaryWriteILb0EELb0EyEvRK29SerializationCommandArgumentsR31RuntimeSerializationCommandInfo
Vxg:__ZL82SafeHandle_t2733794115_CustomAttributesCacheGenerator_SafeHandle_Close_m1146946803P21CustomAttributesCache
Ywh:_Enumerator_get_CurrentValue_m3562053380_AdjustorThunk
aYi:__ZL25UnresolvedVirtualCall_182P12Il2CppObject6Guid_tPK10MethodInfo
GOf:_X509SubjectKeyIdentifierExtension_CopyFrom_m136762226
VRg:__ZL86Logger_t3328995178_CustomAttributesCacheGenerator_Logger_get_filterLogType_m3137240955P21CustomAttributesCache
I_e:_Enumerator_System_Collections_IEnumerator_Reset_m610822832_AdjustorThunk
yVc:__ZN20TextRenderingPrivate15DynamicFontData21GetFontMetricsForFaceERK13dynamic_arrayIN4core17string_with_labelILi35EEELj4EEiRKS1_I4PPtrIN13TextRendering4FontEELj4EEPfSF_
yUc:_UNITY_FT_Open_Face
tZj:_glGenRenderbuffers__wrapper
Sze:_BigInteger_op_Division_m1581119694
tXf:_CallbackHandler_Invoke_m1498072969
Hid:_DSACryptoServiceProvider__ctor_m701823690
Hsh:__Z74RuntimeInvoker_Void_t1841601450_Int32_t2071877448_ResourceInfo_t3933049236PFvvEPK10MethodInfoPvPS4_
Rdg:_CustomAttributeData_GetCustomAttributes_m2421330738
aEf:_SecurityParameters_set_ClientWriteMAC_m1970377285
HZi:_TextGenerator_GetVerticesInternal_m514005870
Xwj:__ZN30dense_hashtable_const_iteratorINSt3__24pairIK10KeyWrapperINS1_IPKcS4_EEEiEES6_24NamespaceAndNamePairHashN14dense_hash_mapIS6_iS9_NS6_14EqualsComparerI26NamespaceAndNamePairEqualsEENS0_9allocatorIS8_EEE9SelectKeyESD_SF_EppEv
f7f:_Type_get_IsEnum_m313908919
Clc:__Z44Register_UnityEngine_Component_get_transformv
W8e:_List_1_Reverse_m3395936565_gshared
_ff:_Collection_1_System_Collections_ICollection_CopyTo_m1335644572_gshared
LF:__ZN12_GLOBAL__N_120ProcessPlayableGraphERN8Animator11AnimatorJobER35AnimationPlayableEvaluationConstantR32AnimationPlayableEvaluationInputR33AnimationPlayableEvaluationOutputPFvS4_R17AnimationPlayableEPFvS4_S6_S8_EPFvS8_S4_S6_S8_fESE_MS9_FvPS3_PS5_PS7_E
R6e:_List_1_CheckMatch_m2830747427_gshared
ROb:__ZN17ArchiveFileSystem12MountArchiveEPKcS1_
Bbe:_StackFrame_GetMethod_m72881026
xxc:__Z18Transfer_BlittableI9JSONWriteLb1E8Vector4fEvRK29SerializationCommandArgumentsR31RuntimeSerializationCommandInfo
zn:FUNCTION_TABLE_viififiii
eNa:__Z30GetScriptableCullingParametersR6CameraR27ScriptableCullingParameters
Gxh:_Enumerator_System_Collections_IEnumerator_Reset_m70453843_gshared
T2a:__ZThn32_NK8Renderer14GetSubsetIndexEi
Bbh:__Z58RuntimeInvoker_Byte_t3683104436_IntPtr_t_Int32_t2071877448PFvvEPK10MethodInfoPvPS4_
Nte:_Dictionary_2_Do_CopyTo_TisKeyValuePair_2_t1174980068_TisRuntimeObject_m3279061992_gshared
z1g:__ZL59Slider_t297367283_CustomAttributesCacheGenerator_m_MinValueP21CustomAttributesCache
nac:__ZN13ProduceHelperI15ResourceManagerLb0EE7ProduceE18MemLabelIdentifier18ObjectCreationMode
aka:__ZN9GfxDevice15ImmediateVertexEfff
E7b:__Z13RegisterClassI8MaterialEvv
cCg:__ZL51Evidence_t1407710183_CustomAttributesCacheGeneratorP21CustomAttributesCache
A1a:__ZNK16LightmapSettings22GetTypeVirtualInternalEv
lMi:_WindowFunction_BeginInvoke_m87819360
CRa:__ZN16GraphicsSettings13AwakeFromLoadE17AwakeFromLoadMode
mee:_FieldAccessException__ctor_m3893881490
YBc:__ZN8JSONRead21TransferSTLStyleArrayI13dynamic_arrayItLj2EEEEvRT_17TransferMetaFlags
Zp:__ZN6Object13AwakeFromLoadE17AwakeFromLoadMode
xha:__ZN13GfxDeviceGLES15SetStencilStateEPK18DeviceStencilStatei
$ih:__Z107RuntimeInvoker_Void_t1841601450_Single_t2076509932_Single_t2076509932_Single_t2076509932_Single_t2076509932PFvvEPK10MethodInfoPvPS4_
FPj:_cycle
ZHg:__ZL72PKCS12_t1362584795_CustomAttributesCacheGenerator_U3CU3Ef__switchU24map5P21CustomAttributesCache
Hd:_emscripten_glUniform1iv
PTh:_Text_get_preferredHeight_m452532789
cLc:__ZN15b2DistanceProxy3SetEPK7b2Shapei
btd:_String_System_IConvertible_ToDouble_m3860911722
Vrb:__ZN16MemoryFileSystemD2Ev
Q3h:_InternalEnumerator_1_get_Current_m3732458101_AdjustorThunk
QEh:_Dictionary_2_System_Collections_Generic_ICollectionU3CSystem_Collections_Generic_KeyValuePairU3CTKeyU2CTValueU3EU3E_Contains_m842343255_gshared
Zuf:_ARC4Managed__ctor_m2922048522
PTc:__Z17dynamic_pptr_castIP9Texture2D7TextureET_RK4PPtrIT0_E
rof:_ReadOnlyCollection_1_System_Collections_IList_set_Item_m1272038804_gshared
yWh:_InternalEnumerator_1_System_Collections_IEnumerator_get_Current_m1931522460_AdjustorThunk
Jpd:_SecurityPermission_IsEmpty_m1869313067
rNf:_X509CertificateCollection__ctor_m3709509050
jlc:__Z37Register_UnityEngine_Camera_get_depthv
dDe:_EncryptedPrivateKeyInfo_get_Salt_m2734354394
kBi:_UsedByNativeCodeAttribute__ctor_m3185822159
nqf:_ReadOnlyCollection_1_System_Collections_Generic_IListU3CTU3E_set_Item_m1918537449_gshared
nff:_Collection_1_System_Collections_ICollection_CopyTo_m3896480607_gshared
czd:_PointerEventData_set_position_m794507622
Foi:_UnityEvent_GetDelegate_m1261032859
d7b:__ZN15ApplicationInfo16GetInstallerNameEv
_4b:__Z23ConvertIntegerToTypePtrItEbPvR14SafeBinaryRead
nG:__ZN7mecanim5human29HumanGetGoalOrientationOffsetENS0_4GoalE
Yd:_emscripten_glStencilFunc
pYd:_SynchronizedArrayListWrapper_get_Capacity_m2541698837
OUi:__ZL23UnresolvedVirtualCall_6P12Il2CppObjectiPK10MethodInfo
rHh:_DefaultComparer_GetHashCode_m3315096533_gshared
gng:_MonoMethod_MakeGenericMethod_impl_m2063853616
xrd:__Z46il2cpp_codegen_get_marshal_directive_exceptionPKc
Ynb:__ZN9ShaderLab20SerializedSubProgram14AddMatrixParamEPKcii15ShaderParamTypei
ce:_glGetActiveUniformBlockName
HHd:_FontData_set_verticalOverflow_m4211463083
Nf:_emscripten_glUniform1fv
GJe:_Guid_AppendByte_m2890893073
cVd:_Char_System_IConvertible_ToType_m3106771703_AdjustorThunk
JQf:_Interval_Intersects_m3480157390_AdjustorThunk
Wnc:__Z39Quaternion_CUSTOM_INTERNAL_CALL_InverseRK11QuaternionfRS_
I8h:_GCHandle_Alloc_m1063472408
kQ:__ZN4FMOD7Channel20set3DConeOrientationEP11FMOD_VECTOR
yZg:__ZL86StandaloneInputModule_t70867863_CustomAttributesCacheGenerator_m_InputActionsPerSecondP21CustomAttributesCache
qn:FUNCTION_TABLE_iiifii
QTg:__ZL54SkeletonBone_t345082847_CustomAttributesCacheGeneratorP21CustomAttributesCache
k_f:_CryptoConfig_CreateFromName_m391442950
a1i:_RectTransformUtility_INTERNAL_CALL_PixelAdjustRect_m3338747528
lAj:__ZN6il2cpp2vm12GenericClass11SetupEventsEP11Il2CppClass
y3c:_tt_delta_interpolate
wZc:_tt_cmap12_get_info
cHd:_U3CDelayedDestroyDropdownListU3Ec__Iterator0_Dispose_m3973609370
Ovj:__ZN6il2cpp2vm15ReboxIReferenceEP14Il2CppIUnknownP11Il2CppClass
UTe:_StreamWriter_LowLevelWrite_m4205372900
D2i:__ZN6il2cpp6icalls8mscorlib6System7Decimal14decimalCompareEP19il2cpp_decimal_reprS5_
oGj:__ZThn4_N6il2cpp2vm13CachedCCWBaseINS0_13ManagedObjectEE7ReleaseEv
vlg:_Module__ctor_m3853650010
HZd:_CollectionBase_System_Collections_IList_get_Item_m2370387510
Zzg:__ZL59RemotingException_t109604560_CustomAttributesCacheGeneratorP21CustomAttributesCache
vse:_Array_Sort_TisCustomAttributeNamedArgument_t94157543_m3436077809_gshared
F_j:_glCopyTexImage2D__wrapper
qOd:_LayoutElement__ctor_m789941073
VPc:__ZN16PhysicsManager2D11CreateWorldERK8Vector2f
kxg:__ZL68TargetInvocationException_t4098620458_CustomAttributesCacheGeneratorP21CustomAttributesCache
dHg:__ZL56RankException_t1539875949_CustomAttributesCacheGeneratorP21CustomAttributesCache
o2:__GLOBAL__sub_I_runtime_graphics_billboard_0_cpp
MMb:__Z18ClearByDrawingQuad13GfxClearFlagsRK10ColorRGBAffjR17ShaderPassContext
tbi:_DynamicPropertyCollection_FindProperty_m1233265924
Ssa:__ZN6prcoreL17RemapGenericFloatI14TexFormatRHalf15TexFormatRFloatEEvPKNS_9InnerInfoE
VSb:__Z16ShouldUseShadowsb
zda:__ZN15DirectorManager21RebuildStageCallbacksEv
ZMb:__ZN19RuntimeSceneManager9LoadSceneERKN4core12basic_stringIcNS0_20StringStorageDefaultIcEEEES6_S6_RK9UnityGUIDiNS_11LoadingModeE
lVi:__ZL24UnresolvedVirtualCall_31P12Il2CppObjectiS0_S0_PK10MethodInfo
aXg:__ZL115CanvasRenderer_t261436805_CustomAttributesCacheGenerator_CanvasRenderer_INTERNAL_CALL_EnableRectClipping_m610385697P21CustomAttributesCache
aua:__ZN7ApiGLES10DrawArraysE16GfxPrimitiveTypejjj
GRi:_AudioManager_hit_m597918907
KN:__ZN10SampleClip13LoadBaseSoundEv
Bzi:_RectOffset_get_left_m1496351507
Pbh:__Z49RuntimeInvoker_TimeSpan_t3430258949_RuntimeObjectPFvvEPK10MethodInfoPvPS4_
aX:__Z57AudioSource_CUSTOM_INTERNAL_CALL_ClearExtensionPropertiesP12Il2CppObjectRK12PropertyName
wv:__ZN7mecanim9animation4Clip8TransferI19StreamedBinaryWriteILb0EEEEvRT_
ozj:__ZN15dense_hashtableINSt3__24pairIK10KeyWrapperIP12Il2CppObjectEN6il2cpp2gc9CachedCCWEEES5_NS7_5utils11PointerHashIS3_EEN14dense_hash_mapIS5_S9_SD_NS5_14EqualsComparerINS0_8equal_toIS4_EEEENS0_9allocatorISA_EEE9SelectKeyESI_SK_E15insert_noresizeERKSA_
ijf:_Collection_1_Contains_m643401393_gshared
WZa:__ZN22DeviceMVPMatricesStateC2ER9GfxDevice
vOg:__ZL111Object_t1021602117_CustomAttributesCacheGenerator_Object_DestroyImmediate_m3250094537____allowDestroyingAssets1P21CustomAttributesCache
Vsd:_String__ctor_m372528291
$m:FUNCTION_TABLE_iifii
x5a:__ZNSt3__26vectorI13dynamic_arrayI8Vector2fLj4EENS_9allocatorIS3_EEE6assignINS_11__wrap_iterIPS3_EEEENS_9enable_ifIXaasr21__is_forward_iteratorIT_EE5valuesr16is_constructibleIS3_NS_15iterator_traitsISC_E9referenceEEE5valueEvE4typeESC_SC_
H1a:__ZN21EnlightenSceneMapping8TransferI14SafeBinaryReadEEvRT_
X$f:_Encoding_SetFallbackInternal_m1682842442
Hoi:_UnityEvent_FindMethod_Impl_m947332673
cGa:__ZNSt3__26__treeIiNS_4lessIiEE13stl_allocatorIiL18MemLabelIdentifier1ELi16EEE7destroyEPNS_11__tree_nodeIiPvEE
lc:invoke_viiifi
JPg:__ZL139AttributeHelperEngine_t958797062_CustomAttributesCacheGenerator_AttributeHelperEngine_GetParentTypeDisallowingMultipleInclusion_m3087158272P21CustomAttributesCache
SWe:_LongComparer_Compare_m3981323622
dej:__ZNSt3__214__split_bufferIP11Il2CppClassRNS_9allocatorIS2_EEEC2EjjS5_
kEd:_ContentSizeFitter_get_horizontalFit_m892469688
o3g:__ZL109LayoutUtility_t4076838048_CustomAttributesCacheGenerator_LayoutUtility_U3CGetFlexibleHeightU3Em__7_m947156537P21CustomAttributesCache
tCe:__ZN23InterfaceActionInvoker2IP8String_tP12Il2CppObjectE6InvokeEjP11Il2CppClassS3_S1_S3_
xJh:_EqualityComparer_1__cctor_m3033994022_gshared
dGa:__ZNK11AssetBundle14GetPreloadDataEiR13dynamic_arrayIiLj4EE
lEe:_EncryptedData_get_EncryptedContent_m2732115576
hOg:__ZL70Time_t31991979_CustomAttributesCacheGenerator_Time_get_time_m518788937P21CustomAttributesCache
OEi:_Vector3__ctor_m2761639014
mf:_JS_Sound_SetPosition
Efi:_Assertion_set_FalseExpression_m1781616372
COf:_X509SubjectKeyIdentifierExtension_FromHexChars_m2515150420
dWa:__ZN19RenderBufferManager13GetTempBufferEii17DepthBufferFormat19RenderTextureFormatj22RenderTextureReadWrite14VRTextureUsagei23RenderTextureMemoryless
Saj:__ZL13GetSharedInstPK17Il2CppGenericInst
nsg:__ZL51IReflect_t3412036974_CustomAttributesCacheGeneratorP21CustomAttributesCache
cBd:_StandaloneInputModule_SendSubmitEventToSelectedObject_m3421155293
zPc:__ZN13ProduceHelperI10Collider2DLb1EE7ProduceE18MemLabelIdentifier18ObjectCreationMode
Yxi:_Quaternion_Equals_m798965363_AdjustorThunk
e_b:__Z17PrepareSceneNodesP11CullResults
b0i:_Canvas_get_sortingLayerID_m137448982
fdi:_CallContextRemotingData_Clone_m2226242476
J6:__Z63ThreadAndSerializationSafeCheckSetMonoBehaviourBeingTransferredP13MonoBehaviour
NYb:__Z24SetupActiveLightsContextR21ActiveLightingContextRK12ActiveLightsRK11CullResultsP14ShadowMapCacheRK10MinMaxAABB
FFh:_Dictionary_2_System_Collections_Generic_ICollectionU3CSystem_Collections_Generic_KeyValuePairU3CTKeyU2CTValueU3EU3E_Contains_m3400497673_gshared
Cpc:__Z38Sprite_CUSTOM_INTERNAL_get_textureRectP12Il2CppObjectP5RectTIfE
v9d:_DBNull_System_IConvertible_ToUInt32_m2681284284
Xt:__ZNSt3__26vectorIN13AnimationClip15QuaternionCurveE13stl_allocatorIS2_L18MemLabelIdentifier26ELi16EEE7reserveEj
Tic:__ZN9TextAsset7SetTextERKN4core12basic_stringIcNS0_20StringStorageDefaultIcEEEE
WPa:__ZN6Camera8TransferI24GenerateTypeTreeTransferEEvRT_
jKh:_EqualityComparer_1__cctor_m416314417_gshared
Ja:invoke_iiiiiiif
Fa:invoke_iiiiiiii
VMf:_X509ChainElementCollection_Contains_m3599995067
e0b:__ZN8Renderer17PendingAddToSceneEv
x2j:b123
w2j:b122
z2j:b125
y2j:b124
B2j:b127
A2j:b126
D2j:b129
Soc:__Z52Register_UnityEngine_RectTransform_INTERNAL_get_rectv
A5:__Z21PostprocessStacktracePKcRN4core12basic_stringIcNS1_20StringStorageDefaultIcEEEE
a8e:_List_1_ToArray_m2390522926_gshared
cyg:__ZL70TypeLibImportClassAttribute_t2390314680_CustomAttributesCacheGeneratorP21CustomAttributesCache
$db:__ZN18StreamedBinaryReadILb0EE21TransferSTLStyleArrayI13dynamic_arrayI16SplashScreenLogoLj4EEEEvRT_17TransferMetaFlags
snb:__ZNSt3__26vectorIPN9ShaderLab9SubShaderENS_9allocatorIS3_EEE21__push_back_slow_pathIKS3_EEvRT_
die:_Array_InternalArray__ICollection_Remove_TisX509ChainStatus_t4278378721_m4127982424_gshared
vlc:__Z47Register_UnityEngine_Camera_get_allCamerasCountv
PWg:__ZL92Canvas_t209405766_CustomAttributesCacheGenerator_Canvas_GetDefaultCanvasMaterial_m4265316988P21CustomAttributesCache
Fid:___clang_call_terminate
TB:__ZThn148_NK26AnimatorControllerPlayable24HasStateMachineBehaviourEv
Jbd:__ZN22BaseUnityConnectClient20StartEventDispatcherEv
qgc:__ZNSt3__26vectorIj13stl_allocatorIjL18MemLabelIdentifier1ELi16EEE6assignIPKtEENS_9enable_ifIXaasr21__is_forward_iteratorIT_EE5valuesr16is_constructibleIjNS_15iterator_traitsIS9_E9referenceEEE5valueEvE4typeES9_S9_
bF:__ZN7mecanim9animation16EvaluateAvatarIKEPKNS0_14AvatarConstantEPKNS0_11AvatarInputEPNS0_12AvatarOutputEPNS0_12AvatarMemoryEPNS0_15AvatarWorkspaceEb
Aua:__ZL25ProgramUniformMatrix4x3fvPK7ApiGLESjiihPKv
r4b:__Z29StdTemplateConversionFunctionIsiEbPvR14SafeBinaryRead
cQb:__ZN12InputManager13InputEndFrameEv
MFc:__ZN15b2RevoluteJointC2EPK18b2RevoluteJointDef
qdj:__ZNSt3__26__treeIP11Il2CppClassNS_4lessIS2_EENS_9allocatorIS2_EEE25__emplace_unique_key_argsIS2_JRKS2_EEENS_4pairINS_15__tree_iteratorIS2_PNS_11__tree_nodeIS2_PvEEiEEbEERKT_DpOT0_
vrj:__ZN6il2cpp2vm6Thread5SetupEP12Il2CppThread
Crf:_ReadOnlyCollection_1_System_Collections_IList_Remove_m2200089035_gshared
iff:_Collection_1_CheckWritable_m2756357359_gshared
KQj:___munmap
LLd:_InputField_get_characterLimit_m2386380888
k_g:__ZL68ColorBlock_t2652774230_CustomAttributesCacheGenerator_m_PressedColorP21CustomAttributesCache
Q4d:_Convert_ToInt64_m1722087499
dg:_localtime_r
dEg:__ZL81AppDomain_t2719102437_CustomAttributesCacheGenerator_assembly_resolve_in_progressP21CustomAttributesCache
Qxg:__ZL65InterfaceTypeAttribute_t4113096249_CustomAttributesCacheGeneratorP21CustomAttributesCache
gg:_strftime
Swa:__ZN7Texture33SetStoredColorSpaceNoDirtyNoApplyE17TextureColorSpace
iaa:__ZN12FileAccessorD2Ev
ZPa:__ZN10ColorRGBAf8TransferI18StreamedBinaryReadILb0EEEEvRT_
gUa:__ZN14VertexDataInfoC2Ev
ACj:__ZN6il2cpp2gc16GarbageCollector14CollectALittleEv
PZh:_InternalEnumerator_1_get_Current_m2415979394_gshared
AEb:__ZL17Transfer_GUIStyleI18StreamedBinaryReadILb1EELb1EEvRK29SerializationCommandArgumentsR31RuntimeSerializationCommandInfo
EPh:_ScrollRect_SetDirtyCaching_m1491302821
Ldj:__ZN6il2cpp6icalls8mscorlib6SystemL9IsPrivateEPK12PropertyInfo
OSg:__ZL100Physics2D_t2540166467_CustomAttributesCacheGenerator_Physics2D_GetRigidbodyFromInstanceID_m299234688P21CustomAttributesCache
iUg:__ZL122AudioListener_t1996719162_CustomAttributesCacheGenerator_AudioListener_INTERNAL_CALL_ReadExtensionPropertyName_m3421262708P21CustomAttributesCache
Tdg:_CustomAttributeData_GetCustomAttributes_m3258419955
iri:_Matrix4x4_GetColumn_m83396621
Q4:__ZN9shadertag10InitializeEv
gTb:__ZN13BatchRenderer20RenderSingleWithPassER17ShaderPassContextPK18SharedMaterialDataP6ShaderPN9ShaderLab4PassEiPKNS7_10GrabPassesEjib15BatchBreakCause
Dth:__Z71RuntimeInvoker_CustomAttributeNamedArgument_t94157543_Int32_t2071877448PFvvEPK10MethodInfoPvPS4_
l$f:_EncoderFallback__ctor_m1639180960
c5h:_InternalEnumerator_1_MoveNext_m1441038493_gshared
m4a:__ZN15QualitySettings14QualitySetting8TransferI24GenerateTypeTreeTransferEEvRT_
yoe:_Array_InternalArray__ICollection_CopyTo_TisParameterModifier_t1820634920_m4127516211_gshared
a$f:_DecoderReplacementFallback__ctor_m2344783488
iZe:_OutOfMemoryException__ctor_m239206850
GBi:_Sprite_get_rect_m3985037234
eId:_GraphicRegistry_UnregisterGraphicForCanvas_m820096873
$4c:__Z28Font_Get_Custom_PropMaterialP12Il2CppObject
QXg:__ZL65EventTrigger_t1967201810_CustomAttributesCacheGenerator_delegatesP21CustomAttributesCache
xgf:_Collection_1_Remove_m4136193368_gshared
Qxd:_EventTrigger_OnPointerUp_m2791622548
tth:__Z60RuntimeInvoker_DictionaryEntry_t3048875398_Int32_t2071877448PFvvEPK10MethodInfoPvPS4_
NRh:_Shadow_set_useGraphicAlpha_m141905402
mfc:__ZN22BlockMemoryCacheWriter14LockCacheBlockEjPPhS1_
mDj:__ZN6il2cpp2os6Thread10RunWrapperEPv
ptc:__ZNSt3__218__insertion_sort_3IRPFbPKN5IMGUI9GUIWindowES4_EPPS2_EEvT0_SA_T_
MQi:_GenericEqualityComparer_1_Equals_m1109000020_gshared
QVg:__ZL61GUISkin_t1436893342_CustomAttributesCacheGenerator_m_textAreaP21CustomAttributesCache
yhg:_GenericTypeParameterBuilder_HasElementTypeImpl_m2592272488
hBc:__Z22TransferField_NonArrayI8JSONRead27Converter_SimpleNativeClassI8GUIStyleEEvRK23StaticTransferFieldInfoR31RuntimeSerializationCommandInfoRT0_
e8i:__ZN15dense_hashtableI10KeyWrapperIPK19Il2CppGenericMethodES4_N6il2cpp8metadata23Il2CppGenericMethodHashEN14dense_hash_setIS4_S7_NS4_14EqualsComparerINS6_26Il2CppGenericMethodCompareEEENSt3__29allocatorIS4_EEE8IdentityESB_SE_E16reset_thresholdsEv
Y1e:__ZN23InterfaceActionInvoker2IP24ObjectU5BU5D_t3614634134iE6InvokeEjP11Il2CppClassP12Il2CppObjectS1_i
Mg:_llvm_eh_typeid_for
v7b:__Z13RegisterClassI10GameObjectEvv
j9i:__ZNK15dense_hashtableINSt3__24pairIK10KeyWrapperIN6il2cpp5utils13dynamic_arrayIPK10Il2CppTypeLj4EEEEPFvvEEESA_NS3_8metadata19Il2CppSignatureHashEN14dense_hash_mapISA_SD_SG_NSA_14EqualsComparerINSF_22Il2CppSignatureCompareEEENS0_9allocatorISE_EEE9SelectKeyESK_SM_E5beginEv
Rtg:__ZL53HashValues_t2390200547_CustomAttributesCacheGeneratorP21CustomAttributesCache
FLf:_X509BasicConstraintsExtension_get_PathLengthConstraint_m3004531343
OC:__ZNK23AnimationPlayableOutput7GetTypeEv
Bvg:__ZL125GenericTypeParameterBuilder_t1370236603_CustomAttributesCacheGenerator_GenericTypeParameterBuilder_GetConstructors_m103067670P21CustomAttributesCache
NNi:_GUIUtility_BeginGUI_m2381890998
$Ve:_MissingMemberException__ctor_m4277447068
d2e:_List_1_Find_m1881447651_gshared
OHf:_NameValueCollection__ctor_m1767369537
PGb:__Z18Transfer_BlittableI18StreamedBinaryReadILb0EELb1E8Vector4fEvRK29SerializationCommandArgumentsR31RuntimeSerializationCommandInfo
UPi:_EqualityComparer_1__ctor_m3155445483_gshared
KBj:__ZN6il2cpp2vm6Method8GetParamEPK10MethodInfoj
JNe:_Int64_CompareTo_m1953686218
hQi:_GenericComparer_1__ctor_m221205314_gshared
vnh:__Z31RuntimeInvoker_Axis_t2427050347PFvvEPK10MethodInfoPvPS4_
c1j:_glBindVertexArray__wrapper
uid:_DSA_Create_m3450041777
iYa:__ZN8Material8TransferI14SafeBinaryReadEEvRT_
h$a:__ZN12CubemapArray17UploadToGfxDeviceEv
eQh:_ScrollRect_AdjustBounds_m1033723448
W2b:__ZN18ScreenManagerWebGL13SetShowCursorEb
ekf:_Collection_1_get_Item_m3791221403_gshared
tBg:__ZL54PaddingMode_t3032142640_CustomAttributesCacheGeneratorP21CustomAttributesCache
frj:__ZN24dense_hashtable_iteratorINSt3__24pairIK10KeyWrapperIP11Il2CppClassES4_EES5_N6il2cpp8metadata16SZArrayClassHashEN14dense_hash_mapIS5_S4_SA_NS5_14EqualsComparerINS9_19SZArrayClassCompareEEENS0_9allocatorIS7_EEE9SelectKeyESE_SG_E30advance_past_empty_and_deletedEv
vba:__ZN13RuntimeStaticI21AssetReferenceStorageLb0EE16StaticInitializeEPv
lca:__ZN15dense_hashtableINSt3__24pairIKiiEEi21InstanceIDHashFunctorN14dense_hash_mapIiiS4_NS0_8equal_toIiEE13stl_allocatorIS3_L18MemLabelIdentifier67ELi16EEE9SelectKeyES7_SA_E14squash_deletedEv
rMf:_X509Chain_CheckRevocationOnChain_m2441901351
hGj:__ZN6il2cpp2vm13ManagedObject14QueryInterfaceERK10Il2CppGuidPPv
Lt:__ZNSt3__26vectorI24CompressedAnimationCurve13stl_allocatorIS1_L18MemLabelIdentifier26ELi16EEE6assignINS_11__wrap_iterIPS1_EEEENS_9enable_ifIXaasr21__is_forward_iteratorIT_EE5valuesr16is_constructibleIS1_NS_15iterator_traitsISB_E9referenceEEE5valueEvE4typeESB_SB_
J7f:_Type_GetMethod_m3650909507
gO:__ZN11AudioSource4StopEb
lPj:_frexp
uwb:__ZN14SafeBinaryRead21TransferSTLStyleArrayI13dynamic_arrayI10Matrix4x4fLj4EEEEvRT_17TransferMetaFlags
jkf:_Collection_1_CheckWritable_m732350052_gshared
LQa:__ZN15LODGroupManager26CollectAllLODGroupManagersERK16CoreCameraValuesR13dynamic_arrayIPS_Lj4EEb
dUd:_Byte_System_IConvertible_ToDecimal_m1036493607
WDg:__ZL47Timer_t791717973_CustomAttributesCacheGeneratorP21CustomAttributesCache
uMb:__Z25GetSplashScreenBackgroundRK5RectTIfE
WXh:_InternalEnumerator_1_System_Collections_IEnumerator_get_Current_m1679297177_gshared
r$g:__ZL65Image_t2042527209_CustomAttributesCacheGenerator_m_PreserveAspectP21CustomAttributesCache
A5h:_DefaultComparer_Compare_m1247109616_gshared
$6h:_ResourceManager__ctor_m498829021
Gza:__ZN18GlslGpuProgramGLESD2Ev
u2b:__ZN13RenderTexture14SetVolumeDepthEi
Cqh:__Z88RuntimeInvoker_Int32_t2071877448_UIVertex_t1204258818_UIVertex_t1204258818_RuntimeObjectPFvvEPK10MethodInfoPvPS4_
uXf:_SerializationCallbacks__ctor_m722356782
NBc:__ZN10Matrix4x4f8TransferI8JSONReadEEvRT_
CSc:__ZN14SafeBinaryRead21TransferSTLStyleArrayI13dynamic_arrayIN4core17string_with_labelILi35EEELj4EEEEvRT_17TransferMetaFlags
Pyi:_Rect_set_width_m2294291744
hKc:__ZThn4_N16PhysicsManager2D9PostSolveEP9b2ContactPK16b2ContactImpulse
Rxg:__ZL49Marshal_t785896760_CustomAttributesCacheGeneratorP21CustomAttributesCache
x6:__ZN17PersistentManager18ReadObjectThreadedEi
Sla:__ZN25TransformFeedbackSkinning31CleanupTransformFeedbackShadersEv
AQa:__Z22scripting_object_unbox18ScriptingObjectPtr
GTc:__ZNK20TextRenderingPrivate8FontImpl19GetCharacterAdvanceEjijfPj
oMj:__ZN6il2cpp6icalls8mscorlib4Mono8Security12Cryptography18KeyPairPersistence16_IsUserProtectedEP12Il2CppString
ypf:_ReadOnlyCollection_1_Contains_m3936562733_gshared
dIf:_DefaultUriParser__ctor_m4218024811
qfg:_DerivedType_GetField_m3960169619
X9d:_Decimal_System_IConvertible_ToInt16_m3159038792_AdjustorThunk
_4g:__Z59RuntimeInvoker_Int64_t909078037_RuntimeObject_RuntimeObjectPFvvEPK10MethodInfoPvPS4_
iuh:__Z41RuntimeInvoker_KeyValuePair_2_t3716250094PFvvEPK10MethodInfoPvPS4_
a6a:__ZN10VertexData8TransferI18StreamedBinaryReadILb0EEEEvRT_
Kkh:__Z73RuntimeInvoker_Single_t2076509932_Vector4_t2243707581_Vector4_t2243707581PFvvEPK10MethodInfoPvPS4_
QEe:_PKCS12_GetExistingParameters_m2413397265
b$i:_Nullable_1_get_Value_m1743067844_gshared
wif:_Collection_1_ClearItems_m4268731177_gshared
Zfb:__ZN14PreloadManager16UpdatePreloadingEv
QMa:__ZN12BaseRendererD2Ev
yti:_X509CertificateCollection__ctor_m858704242
w0e:_Enumerator__ctor_m425576865_AdjustorThunk
zrf:_ReadOnlyCollection_1_System_Collections_IList_Contains_m1545447998_gshared
FDj:__ZN14dense_hash_mapI10KeyWrapperIPK19Il2CppGenericMethodEP10MethodInfoN6il2cpp8metadata23Il2CppGenericMethodHashENS4_14EqualsComparerINS8_26Il2CppGenericMethodCompareEEENSt3__29allocatorINSD_4pairIKS4_S6_EEEEEC2EjRKS9_RKSC_
bmi:_Color32_op_Implicit_m3337994915
B0:__ZNK21UnityDefaultAllocatorI17LowLevelAllocatorE8ContainsEPKv
acj:__ZNSt3__213__vector_baseI6pollfdNS_9allocatorIS1_EEED2Ev
lAf:_ClientSessionInfo_get_Id_m3046630969
Wh:_emscripten_get_main_loop_timing
aQe:_DirectoryInfo__ctor_m3750996792
tCd:_BaseMeshEffect_ModifyMesh_m2134816219
Gre:_Array_qsort_TisVector2_t2243707579_m3527759534_gshared
l4a:__ZN24GenerateTypeTreeTransfer21TransferSTLStyleArrayINSt3__26vectorIN15QualitySettings14QualitySettingENS1_9allocatorIS4_EEEEEEvRT_17TransferMetaFlags
RAi:_ResourceRequest_t2560315377_marshal_pinvoke_cleanup
k8e:_List_1_System_Collections_Generic_IEnumerableU3CTU3E_GetEnumerator_m166627113_gshared
dcb:__ZNSt3__26vectorI9InputAxisNS_9allocatorIS1_EEE6resizeEj
Wke:__ZN21InterfaceFuncInvoker2Ii19Vector2_t2243707579S0_E6InvokeEjP11Il2CppClassP12Il2CppObjectS0_S0_
nTb:__ZN13BatchRendererC2ER15RenderLoopStatsRK15RenderNodeQueuebbb
Qpd:_SecurityElement_IsValidAttributeValue_m483287146
yBi:_FormerlySerializedAsAttribute__ctor_m3044655632
mpb:__ZNK2UI13RectTransform22GetTypeVirtualInternalEv
hEg:__ZL56AppDomainSetup_t611332832_CustomAttributesCacheGeneratorP21CustomAttributesCache
jp:getTempRet0
LPd:_ArithmeticException__ctor_m104771799
pph:__Z79RuntimeInvoker_Boolean_t3825574718_ContentTypeU26_t1802785839_Int32_t2071877448PFvvEPK10MethodInfoPvPS4_
jdg:_AssemblyTitleAttribute__ctor_m1696431446
ZIi:_UnityEvent_1_RemoveListener_m2146288709_gshared
VKd:_Image_AddQuad_m1603575622
jEj:__ZN24dense_hashtable_iteratorINSt3__24pairIK10KeyWrapperIPK19Il2CppGenericMethodEP10MethodInfoEES6_N6il2cpp8metadata23Il2CppGenericMethodHashEN14dense_hash_mapIS6_S9_SD_NS6_14EqualsComparerINSC_26Il2CppGenericMethodCompareEEENS0_9allocatorISA_EEE9SelectKeyESH_SJ_E30advance_past_empty_and_deletedEv
Awf:_PrivateKeyInfo_RemoveLeadingZero_m3396807048
Slf:_ReadOnlyCollection_1_System_Collections_Generic_ICollectionU3CTU3E_get_IsReadOnly_m1251192075_gshared
W1e:_List_1_GrowIfNeeded_m185971996_gshared
Usj:__ZN6il2cpp6icalls8mscorlib6System9ThreadingL21lookup_cached_cultureEP12Il2CppThreadi
GZb:__ZN18DeferredRenderLoopD2Ev
vhg:_GenericTypeParameterBuilder_GetMethods_m1243855818
vCa:__ZNK16TypeTreeIterator4NameEv
pTi:_PCMReaderCallback_Invoke_m877950113
ERg:__ZL90PlayableBinding_t2498078091_CustomAttributesCacheGenerator_U3CstreamTypeU3Ek__BackingFieldP21CustomAttributesCache
I9:__ZN15FileSystemEntry3SetEPKc
bgj:_il2cpp_method_has_attribute
D4h:_InternalEnumerator_1__ctor_m2808001655_gshared
okd:_MACTripleDES__ctor_m884945242
MAi:_RenderTexture_get_height_m428170183
_Mi:_GUILayoutGroup_SetHorizontal_m4089360220
VP:__ZN20SoundChannelInstance15ParameterBuffer5ApplyEPN4FMOD7ChannelE
GVi:__ZL24UnresolvedVirtualCall_52P12Il2CppObjectPK10MethodInfo
DTc:__ZN20TextRenderingPrivate19NativeTextGenerator9InsertTabEv
Bqg:__ZL73Enum_t2459695545_CustomAttributesCacheGenerator_Enum_ToObject_m1688724857P21CustomAttributesCache
ps:__ZN15SerializeTraitsI13dynamic_arrayIN11UnityEngine9Animation14GenericBindingELj4EEE19ResizeSTLStyleArrayERS4_i
s8a:__ZN14SafeBinaryRead21TransferSTLStyleArrayI13dynamic_arrayI16BlendShapeVertexLj4EEEEvRT_17TransferMetaFlags
icd:__ZN11UnityEngine15PlatformWrapper24GetRuntimePlatformStringEv
Fi:_glIsEnabled
Yib:__ZN15CacheWriterBaseD2Ev
C1g:__ZL56Slider_t297367283_CustomAttributesCacheGenerator_m_ValueP21CustomAttributesCache
kvb:__Z25scripting_class_get_image17ScriptingClassPtr
Mwi:_PlayableAsset_Internal_CreatePlayable_m2166162235
Hfb:__ZNSt3__26vectorIN4core12basic_stringIcNS1_20StringStorageDefaultIcEEEE13stl_allocatorIS5_L18MemLabelIdentifier13ELi16EEEC2INS_11__wrap_iterIPS5_EEEET_SE_RKS8_PNS_9enable_ifIXaasr21__is_forward_iteratorISE_EE5valuesr16is_constructibleIS5_NS_15iterator_traitsISE_E9referenceEEE5valueEvE4typeE
Ji:_emscripten_glDrawElementsInstanced
EB:__ZN26AnimatorControllerPlayable27SetupStateMachineBehavioursEv
avf:_ARC4Managed_Dispose_m4102232694
uvf:_HMAC_Initialize_m3052649104
nSa:__ZN18JobBatchDispatcherD2Ev
hpb:__ZN9Transform17MainThreadCleanupEv
rRg:__ZL143UnitySynchronizationContext_t1205147244_CustomAttributesCacheGenerator_UnitySynchronizationContext_InitializeSynchronizationContext_m2786500889P21CustomAttributesCache
MIj:_GC_clear_hdr_marks
bYj:_glScissor__wrapper
_1j:_emscripten_glCreateShader__wrapper
xLd:_InputField_get_caretSelectPositionInternal_m3523572533
K$c:_cff_fd_select_get
vxg:__ZL73CompilationRelaxationsAttribute_t238494011_CustomAttributesCacheGeneratorP21CustomAttributesCache
ENg:__ZL86Material_t193706927_CustomAttributesCacheGenerator_Material_GetTextureImpl_m2799453342P21CustomAttributesCache
$K:__Z13RegisterClassI18AnimatorControllerEvv
OTh:_Text_get_minHeight_m1562513104
Rwe:_MSCompatUnicodeTable_GetTailoringInfo_m2792223347
tHf:_NameObjectCollectionBase_get_Keys_m446053925
Ui:_emscripten_glGetShaderiv
lAh:_Transform_1__ctor_m353209818_gshared
Onh:__Z30RuntimeInvoker_Axis_t375128448PFvvEPK10MethodInfoPvPS4_
VQ:__ZN4FMOD6System10getVersionEPj
eme:_Array_InternalArray__IndexOf_TisSByte_t454417549_m1427585061_gshared
L5c:__ZN2UI6Canvas23VirtualRedirectTransferER24GenerateTypeTreeTransfer
L1d:_Decimal_u64_m3991988111
VFi:_YieldInstruction_t3462875981_marshal_pinvoke
E$i:_Predicate_1_BeginInvoke_m2959352225_gshared
Sti:_X509Certificate_Parse_m1764345628
Mcc:__ZN8GUILayer17RemoveFromManagerEv
pzc:__ZN9JSONWrite8TransferIN4math12int2_storageEEEvRT_PKc17TransferMetaFlags
oSc:__ZN13TextRendering4Font13AwakeFromLoadE17AwakeFromLoadMode
Sqi:_Mathf_Pow_m1117712374
Tkh:__Z70RuntimeInvoker_Void_t1841601450_Guid_t_RuntimeObject_Int32_t2071877448PFvvEPK10MethodInfoPvPS4_
Hia:__ZN9GfxDevice21ReleaseSharedMeshDataEP14SharedMeshData
cGe:_SmallXmlParser_Peek_m2814840810
Ucb:__ZNSt3__27__sort5IRNS_6__lessINS_4pairIPKN5Unity4TypeE7Hash128EES8_EEPS8_EEjT0_SC_SC_SC_SC_T_
qhf:_Collection_1_ConvertItem_m3168406667_gshared
THj:_GC_unreachable_finalize_mark_proc
TFi:_WaitForSecondsRealtime_get_keepWaiting_m4138104467
eoh:__Z70RuntimeInvoker_Single_t2076509932_Int32_t2071877448_Single_t2076509932PFvvEPK10MethodInfoPvPS4_
rph:__Z77RuntimeInvoker_Boolean_t3825574718_InputTypeU26_t4050577942_Int32_t2071877448PFvvEPK10MethodInfoPvPS4_
hgf:_Collection_1_System_Collections_ICollection_get_SyncRoot_m2547259708_gshared
Koc:__Z43RectTransform_CUSTOM_INTERNAL_get_anchorMaxP12Il2CppObjectP13Vector2fIcall
G6g:__Z50RuntimeInvoker_Void_t1841601450_Single_t2076509932PFvvEPK10MethodInfoPvPS4_
W8d:_DateTimeOffset_get_DateTime_m229084964_AdjustorThunk
s1a:__ZN8Material28UpdateHashesOnPropertyChangeEN9ShaderLab16FastPropertyNameE
upc:__Z53Register_UnityEngine_SortingLayer_GetLayerValueFromIDv
wPe:_DirectoryInfo_get_Parent_m1198766078
cLh:_EqualityComparer_1_System_Collections_IEqualityComparer_Equals_m349194518_gshared
lZd:_CaseInsensitiveComparer_Compare_m1192858479
cub:__Z18Transfer_BlittableI14SafeBinaryReadLb1E8Vector4fEvRK29SerializationCommandArgumentsR31RuntimeSerializationCommandInfo
hTe:_StreamAsyncResult_set_Done_m4272090534
oPd:_LayoutRebuilder_Clear_m2390054824
Chf:_Collection_1_System_Collections_IList_Insert_m2968289909_gshared
Tka:__ZN13GfxDeviceGLES20SetComputeBufferDataE15ComputeBufferIDPKvjj
Ddg:_Default_SelectMethod_m622251293
XS:__ZN11AudioSource12AddToManagerEv
fyd:_ExecuteEvents_Execute_m1429058057
Xci:_AsyncResult_get_NextSink_m1172723924
jD:__ZN11UnityEngine9Animation32CreateAnimatorGenericBindingsOptERKNS0_20AnimationSetBindingsER9TransformPKN7mecanim9animation14AvatarConstantEPKNS0_21AvatarBindingConstantEbRNS6_6memory9AllocatorER8Animator
uwj:__ZN6il2cpp2vm5Image13ClassFromNameEPK11Il2CppImagePKcS6_
fUj:dynCall_vdddddd
vtf:_BigInteger_op_Inequality_m744282323
o5:__ZL32MarkLevelGameManagerDependenciesR27GarbageCollectorThreadState
_ka:__ZNK13GfxDeviceGLES26HasActiveRandomWriteTargetEv
UYj:_glGetActiveUniformsiv__wrapper
rpc:__Z43Register_UnityEngine_Material_EnableKeywordv
F7:__ZN13MonoBehaviour19SetupScriptingCacheE17ScriptingClassPtrP10MonoScript
tcj:__ZNSt3__214__split_bufferIP12Il2CppThreadRNS_9allocatorIS2_EEED2Ev
tr:__Z20AnimationEventToMonoRK14AnimationEventR18MonoAnimationEvent
i6:__ZNK15dense_hashtableINSt3__24pairIKiiEEi21InstanceIDHashFunctorN14dense_hash_mapIiiS4_NS0_8equal_toIiEE13stl_allocatorIS3_L18MemLabelIdentifier1ELi16EEE9SelectKeyES7_SA_E13find_positionERS2_
V6:__ZN17PersistentManager29ReadAndActivateObjectThreadedEiRK26SerializedObjectIdentifierP14SerializedFilebb
gzh:_ShimEnumerator_get_Current_m3610131784_gshared
Obf:_List_1_Sort_m2158253314_gshared
jRg:__ZL74UnityEventBase_t828812576_CustomAttributesCacheGenerator_m_PersistentCallsP21CustomAttributesCache
aea:__ZZN15DirectorManager15InitializeClassEvEN52PreLateUpdateDirectorUpdateAnimationBeginRegistrator7ForwardEv
kHh:_DefaultComparer__ctor_m2265472997_gshared
Suj:__ZN6il2cpp2vm13LivenessState18ShouldProcessValueEP12Il2CppObjectP11Il2CppClass
$Da:__ZN4PPtrI6SpriteE8TransferI14SafeBinaryReadEEvRT_
Pvh:__Z49RuntimeInvoker_UIVertex_t1204258818_RuntimeObjectPFvvEPK10MethodInfoPvPS4_
PJ:__ZN7mecanim12statemachine13StateConstant8TransferI18StreamedBinaryReadILb0EEEEvRT_
lqj:__ZN15dense_hashtableINSt3__24pairIK10KeyWrapperIP11Il2CppClassES4_EES5_N6il2cpp8metadata16SZArrayClassHashEN14dense_hash_mapIS5_S4_SA_NS5_14EqualsComparerINS9_19SZArrayClassCompareEEENS0_9allocatorIS7_EEE9SelectKeyESE_SG_E16reset_thresholdsEv
hri:_Matrix4x4_GetHashCode_m375571566
SGi:_InvokableCall_1__ctor_m1584932671_gshared
ulb:__ZNSt3__26vectorIN9ShaderLab14SerializedPassENS_9allocatorIS2_EEE8__appendEj
Lkb:__ZNSt3__26vectorIN9ShaderLab20SerializedSubProgram13BufferBindingENS_9allocatorIS3_EEEC2INS_11__wrap_iterIPS3_EEEET_SB_RKS5_PNS_9enable_ifIXaasr21__is_forward_iteratorISB_EE5valuesr16is_constructibleIS3_NS_15iterator_traitsISB_E9referenceEEE5valueEvE4typeE
ZJc:__ZNK16PhysicsManager2D21GetAutoSyncTransformsEv
ali:_Camera__ctor_m2624089815
a5a:__ZNK13ScreenManager21IsMultiDisplayEnabledEv
rFc:__ZN12b2WheelJoint24SolveVelocityConstraintsERK12b2SolverData
moh:__Z133RuntimeInvoker_RuntimeObject_Vector2_t2243707579_Vector2_t2243707579_Single_t2076509932_Int32_t2071877448_RuntimeObject_RuntimeObjectPFvvEPK10MethodInfoPvPS4_
$0a:__ZN9Texture2D23VirtualRedirectTransferER18StreamedBinaryReadILb0EE
jIc:__ZN10Collider2D8TransferI24GenerateTypeTreeTransferEEvRT_
oce:_Double_System_IConvertible_ToUInt16_m286326038_AdjustorThunk
CVf:_TypeInfo__ctor_m1475908211
_6i:__ZN30dense_hashtable_const_iteratorINSt3__24pairIK10KeyWrapperIPKcEP11Il2CppClassEES5_N6il2cpp5utils11StringUtils12StringHasherIS4_EEN14dense_hash_mapIS5_S8_SE_NS5_14EqualsComparerINSB_13VmStringUtils21CaseSensitiveComparerEEENS0_9allocatorIS9_EEE9SelectKeyESJ_SL_E30advance_past_empty_and_deletedEv
bTg:__ZL73g_UnityEngine_TextRenderingModule_Assembly_CustomAttributesCacheGeneratorP21CustomAttributesCache
m8:__ZN16ScriptingManager27NativeTypeForScriptingClassE17ScriptingClassPtr
sMf:_X509Chain_WrapUp_m1072032285
lvi:_X509CertificateEnumerator_System_Collections_IEnumerator_MoveNext_m1448966539
QYc:_get_sfnt_table
Wff:_Collection_1_IsSynchronized_m3261594010_gshared
ezd:_PointerEventData_set_pressPosition_m2094137883
G2a:__ZN8Renderer20RendererAddedToSceneEv
I_f:_DES_get_Key_m2584608215
$_b:__ZL22ScheduleSceneNodesJobsP25ScheduleSceneNodesJobDataj
Ik:_emscripten_set_canvas_size
E_d:_Hashtable__ctor_m741952536
blb:__ZNSt3__26vectorIN9ShaderLab20SerializedSubProgramENS_9allocatorIS2_EEE8__appendEj
j1:__ZN20DynamicHeapAllocatorI17LowLevelAllocatorE8AllocateEji
OTb:__ZN20DynamicPropertySheet15SetVectorQueuedERKN9ShaderLab16FastPropertyNameERK8Vector4fN19ShaderPropertySheet8SetFlagsE
Bud:_String_Format_m1263743648
urg:__ZL69RuntimeArray_CustomAttributesCacheGenerator_Array_Reverse_m3883292526P21CustomAttributesCache
kpf:_ReadOnlyCollection_1_System_Collections_IEnumerable_GetEnumerator_m4248982967_gshared
lE:__ZN7mecanim9animation22EvaluateAvatarRetargetEPKNS0_14AvatarConstantEPKNS0_11AvatarInputEPNS0_12AvatarOutputEPNS0_12AvatarMemoryEPNS0_15AvatarWorkspaceEb
zPd:_LayoutRebuilder_GetHashCode_m2745108660
dVa:__ZN14RenderSettings23VirtualRedirectTransferER19StreamedBinaryWriteILb0EE
Oxc:__ZL26Transfer_SimpleNativeClassI9JSONWrite10RectOffsetLb0EEvRK29SerializationCommandArgumentsR31RuntimeSerializationCommandInfo
e8a:__ZN14SafeBinaryRead21TransferSTLStyleArrayI13dynamic_arrayI12BoneWeights4Lj16EEEEvRT_17TransferMetaFlags
lIj:_GC_push_conditional
$oa:__ZN17GenericDynamicVBO10AllocateVBEjR21DynamicVBOChunkHandle
u3e:_List_1_get_Item_m1547593893_gshared
NPe:_Path_GetPathRoot_m1269357080
Vxj:__ZN30dense_hashtable_const_iteratorI10KeyWrapperIP18Il2CppGenericClassES3_N6il2cpp8metadata22Il2CppGenericClassHashEN14dense_hash_setIS3_S6_NS3_14EqualsComparerINS5_25Il2CppGenericClassCompareEEENSt3__29allocatorIS3_EEE8IdentityESA_SD_EppEv
k_d:_KeyNotFoundException__ctor_m264393096
txd:_EventSystem_SetSelectedGameObject_m2211816110
xAh:_Transform_1__ctor_m4161450529_gshared
gl:_glMapBufferRange
T0a:__ZN9Texture2D8TransferI18StreamedBinaryReadILb0EEEEvRT_
onc:__Z31Input_CUSTOM_GetMouseButtonDowni
zgh:__Z41RuntimeInvoker_HandshakeState_t1820731088PFvvEPK10MethodInfoPvPS4_
Doc:__Z75Register_UnityEngine_Playables_PlayableHandle_INTERNAL_CALL_IsValidInternalv
gec:__ZN13PlayableGraph4PlayEv
GLa:__ZNK9Transform16GetLocalPositionEv
aQd:_Array_System_Collections_ICollection_get_Count_m2897196527
zFa:__ZN13LoadOperation19IntegrateTimeSlicedEi
hVh:_ArrayReadOnlyList_1_get_Item_m176001975_gshared
gQf:_InterpreterFactory__ctor_m3331468903
vFe:_X501__cctor_m3795360380
jla:__ZN13GfxDeviceGLES22DispatchComputeProgramE12ObjectHandleI18ComputeProgram_TagPvE15ComputeBufferIDj
COb:__ZN20DefaultGfxDeviceImpl32InitStereoGlobalsBuffersPlatformEiijPKv
Mr:__ZNK13AnimationClip15GetAverageSpeedEv
J4d:_Convert_ToInt32_m2297793940
whb:__Z17TransformAABBSlowRK4AABBRK10Matrix4x4fRS_
fpj:__ZN13Il2CppHashMapINSt3__24pairIPK9FieldInfoP11Il2CppClassEEj17ReflectionMapHashIS7_ENS0_8equal_toIS7_EENS0_9allocatorINS1_IK10KeyWrapperIS7_EjEEEEEC2EjRKS9_RKSB_
Mjb:__ZN9ShaderLab21SerializedShaderState8TransferI14SafeBinaryReadEEvRT_
rRj:_ftruncate
Tmd:_RSAPKCS1SignatureFormatter_SetKey_m2365816458
zKe:_Int16_GetHashCode_m304503362_AdjustorThunk
F0c:_cf2_stack_pushInt
yH:__ZN7mecanim9animation20DestroyLayerConstantEPNS0_13LayerConstantERNS_6memory9AllocatorE
sxi:_PropertyName__ctor_m4147171238_AdjustorThunk
s3f:_CompressedStack__ctor_m276924800
Iyd:_ExecuteEvents_get_cancelHandler_m1964324668
XYa:__ZN15SerializeTraitsINSt3__24pairIN4core12basic_stringIcNS2_20StringStorageDefaultIcEEEES6_EEE8TransferI24GenerateTypeTreeTransferEEvRS7_RT_
l$j:b89
k$j:b88
Kqi:_Mathf_Sin_m712860563
bVg:__ZL70GUISettings_t622856320_CustomAttributesCacheGenerator_m_SelectionColorP21CustomAttributesCache
swi:_Vector3_Dot_m827632793
K_j:b81
D_j:b80
gxa:__ZN7ApiGLES19CreateSparseTextureEjj14GraphicsFormatiiiiRiS1_S1_
Y8:__ZN18ResourceImageGroup7CleanupEv
__j:b85
T_j:b84
j$j:b87
$_j:b86
Fp:__ZN11Quaternionf8TransferI24GenerateTypeTreeTransferEEvRT_
wsh:__Z68RuntimeInvoker_Void_t1841601450_Int32_t2071877448_Double_t4078015681PFvvEPK10MethodInfoPvPS4_
mcc:__ZN13ProduceHelperI4MeshLb0EE7ProduceE18MemLabelIdentifier18ObjectCreationMode
ywf:_PrivateKeyInfo_Decode_m1053025782
YNf:_X509ChainElementCollection_System_Collections_ICollection_CopyTo_m1467895312
yEe:_PKCS12_Decrypt_m2457743414
n_a:__ZN8Playable19SetOutputConnectionEPS_i
p6i:__ZN15dense_hashtableINSt3__24pairIK10KeyWrapperIPK11Il2CppClassEPKcEES6_N6il2cpp5utils11PointerHashIS3_EEN14dense_hash_mapIS6_S9_SE_NS6_14EqualsComparerINS0_8equal_toIS5_EEEENS0_9allocatorISA_EEE9SelectKeyESJ_SL_EC2ERKSO_j
Vl:_glDeleteShader
lNg:__ZL88Mesh_t1356156583_CustomAttributesCacheGenerator_Mesh_Internal_Create_m384282753____mono0P21CustomAttributesCache
eee:_Exception_GetType_m3898489832
_sa:__ZN6prcoreL17RemapGenericFloatI15TexFormatRGHalf16TexFormatRGFloatEEvPKNS_9InnerInfoE
$cf:_Stack_1_Peek_m1548778538_gshared
YMi:_GUILayoutUtility_get_spaceStyle_m4248899869
KRh:_Shadow_set_effectColor_m3110056844
Zic:__Z27scripting_add_internal_callPKcPKv
Qpe:_Array_InternalArray__Insert_TisUriScheme_t1876590943_m2728325409_gshared
VVg:__ZL72GUISkin_t1436893342_CustomAttributesCacheGenerator_m_verticalSliderThumbP21CustomAttributesCache
Roj:__ZN13Il2CppHashMapINSt3__24pairIPK9EventInfoP11Il2CppClassEEj17ReflectionMapHashIS7_ENS0_8equal_toIS7_EENS0_9allocatorINS1_IK10KeyWrapperIS7_EjEEEEEC2EjRKS9_RKSB_
Rqi:_Mathf_Max_m2902748112
Ywa:__Z17GetPlayerSettingsv
mlb:__ZNSt3__26vectorIN9ShaderLab20SerializedSubProgram16SamplerParameterENS_9allocatorIS3_EEE6assignIPS3_EENS_9enable_ifIXaasr21__is_forward_iteratorIT_EE5valuesr16is_constructibleIS3_NS_15iterator_traitsISA_E9referenceEEE5valueEvE4typeESA_SA_
ME:__ZN34BlobWriteTransferSTLStyleArrayImplI22OffsetPtrArrayTransferIiEEclERS1_17TransferMetaFlagsR9BlobWrite
yvi:_X509Store_CheckStore_m1027496478
Bji:_AddComponentMenu__ctor_m686408932
Rwg:__ZL82MethodBase_t904190842_CustomAttributesCacheGenerator_MethodBase_Invoke_m1075809207P21CustomAttributesCache
Hw:__ZN26AnimatorControllerPlayable18SetLayerAutoWeightEv
bbd:__Z44Register_UnityEngine_Canvas_get_pixelPerfectv
kud:_String_Contains_m4017059963
cte:_Array_swap_TisCustomAttributeNamedArgument_t94157543_TisCustomAttributeNamedArgument_t94157543_m3600072996_gshared
g5h:_DefaultComparer_Compare_m1606207039_gshared
o8c:__ZN2UI14CanvasRenderer12SyncMaterialENS0_8SyncFlagE
gMj:__ZN6il2cpp2vm9Parameter30GetDefaultParameterValueObjectEPK10MethodInfoPK13ParameterInfoPb
n2i:_Rigidbody2D_set_velocity_m2161463521
yOi:_Action_EndInvoke_m4281032350
Fqe:_Array_InternalArray__set_Item_TisLabelData_t3712112744_m2253365137_gshared
Olg:_MonoCMethod_get_Attributes_m3914742834
Veg:_ConstructorBuilder_get_DeclaringType_m4264602248
$Te:_StringReader__ctor_m643998729
WIf:_IPv6Address_TryParse_m2220524278
vTi:_PCMReaderCallback_EndInvoke_m4163012370
hPd:_U3CDelayedSetDirtyU3Ec__Iterator0_System_Collections_Generic_IEnumeratorU3CobjectU3E_get_Current_m2210283424
rv:__ZN14AnimationEvent8TransferI19StreamedBinaryWriteILb0EEEEvRT_
YDa:__ZN4PPtrI9Texture2DE8TransferI14SafeBinaryReadEEvRT_
GYc:_UNITY_tt_face_done_kern
kbi:_Context_get_DefaultContext_m2211922324
Pdg:_CustomAttributeData_get_NamedArguments_m708818174
I8a:__ZN12BoneWeights48TransferI24GenerateTypeTreeTransferEEvRT_
Pwf:_RSAManaged_GetPaddedValue_m2972141669
tQh:_ScrollRect_OnDrag_m1424848249
fCf:_TlsServerCertificate_ProcessAsSsl3_m277089231
Wje:_Array_InternalArray__IEnumerable_GetEnumerator_TisUInt16_t986882611_m3665860884_gshared
PLb:__Z19scripting_gc_enablev
jPb:__ZZ23InitPlayerLoopCallbacksvEN41InitializationPlayerUpdateTimeRegistrator7ForwardEv
vgi:_AnchorInfo__ctor_m617409099
W3b:__Z29StdTemplateConversionFunctionIihEbPvR14SafeBinaryRead
whg:_GenericTypeParameterBuilder_GetMethodImpl_m528545634
cad:__Z55Register_UnityEngine_CanvasRenderer_DisableRectClippingv
NQf:_Interval_CompareTo_m2909556284_AdjustorThunk
f8a:__ZN14SafeBinaryRead21TransferSTLStyleArrayI13dynamic_arrayI11ColorRGBA32Lj4EEEEvRT_17TransferMetaFlags
RAa:__ZN9GfxDevice22UploadTextureCubeArrayE9TextureIDPKhjii14GraphicsFormati18TextureUploadFlags
arg:__ZL87RuntimeArray_CustomAttributesCacheGenerator_Array_CreateInstance_m679102425____lengths1P21CustomAttributesCache
uMh:_Navigation_t1571958496_marshal_pinvoke
EPf:_Interpreter_GetLastDefined_m2450713313
Ofi:_Parser_ParseAssertionType_m3316669790
Hnb:__ZN9ShaderLab7Program27CreateFromSerializedProgramERKNS_17SerializedProgramE10ShaderTypeiP16PropertyNamesSetPK6Shader
lRh:_Selectable_get_isPointerDown_m774209881
Fqg:__ZL73Enum_t2459695545_CustomAttributesCacheGenerator_Enum_ToObject_m2460371738P21CustomAttributesCache
bpb:__ZNSt3__27__sort4IRNS_6__lessIN4core12basic_stringIcNS2_20StringStorageDefaultIcEEEES6_EEPS6_EEjT0_SA_SA_SA_T_
MUj:dynCall_viiiifii
MVf:_TypeInfo__ctor_m1219583114
tnj:__ZN6il2cpp2gc19AppendOnlyGCHashMapINSt3__24pairIPK11Il2CppImageP11Il2CppClassEEP22Il2CppReflectionModule17ReflectionMapHashIS9_ENS2_8equal_toIS9_EEEC2Ev
PJj:_GC_is_disabled
u6:__Z20GetPersistentManagerv
K3c:_UNITY_TT_Set_Var_Design
jbi:_Context_Finalize_m1386439645
$2:__ZN21SystemInfoStringCache16StaticInitializeEPv
kyf:_TlsStream__ctor_m4117943603
gkj:__ZN15dense_hashtableINSt3__24pairIK10KeyWrapperIPK10Il2CppTypeEjEES6_N6il2cpp8metadata14Il2CppTypeHashEN14dense_hash_mapIS6_jSB_NS6_14EqualsComparerINSA_26Il2CppTypeEqualityComparerEEENS0_9allocatorIS8_EEE9SelectKeyESF_SH_E12maybe_shrinkEv
aTh:_Text_FontTextureChanged_m4236993972
KCj:__ZN6il2cpp2gc16GarbageCollector23MakeDescriptorForObjectEPji
Gyj:__ZNK10KeyWrapperIP12Il2CppObjectE14EqualsComparerINSt3__28equal_toIS1_EEEclERKS2_S9_
log:_ParameterModifier_t1820634920_marshal_pinvoke
bJb:__ZNK13MonoBehaviour7GetNameEv
Cib:__ZN19ScriptingInvocation28AdjustArgumentsToMatchMethodEv
fyj:__ZN15dense_hashtableI10KeyWrapperIP18Il2CppGenericClassES3_N6il2cpp8metadata22Il2CppGenericClassHashEN14dense_hash_setIS3_S6_NS3_14EqualsComparerINS5_25Il2CppGenericClassCompareEEENSt3__29allocatorIS3_EEE8IdentityESA_SD_E6insertERKS3_
JN:__Z15_CheckFMODError11FMOD_RESULTPKciS1_
Uvd:_AbstractEventData_Use_m1797212290
sTa:__Z20RenderMultipleMeshesRK15RenderNodeQueueRK18RenderMultipleData17ShaderChannelMask
L_g:__ZL150U3CDelayedDestroyDropdownListU3Ec__Iterator0_t3461999471_CustomAttributesCacheGenerator_U3CDelayedDestroyDropdownListU3Ec__Iterator0_Reset_m3485957852P21CustomAttributesCache
H5g:__Z199RuntimeInvoker_Void_t1841601450_ByteU2AU26_t3544685828_ByteU2AU26_t3544685828_DoubleU2AU26_t3349029_UInt16U2AU26_t1636670495_UInt16U2AU26_t1636670495_UInt16U2AU26_t1636670495_UInt16U2AU26_t1636670495PFvvEPK10MethodInfoPvPS4_
oij:__ZN6il2cpp2vm4Type19GetGenericParameterEPK10Il2CppType
E9c:__Z51Register_UnityEngine_CanvasGroup_get_blocksRaycastsv
B3h:_InternalEnumerator_1_get_Current_m2826780083_gshared
The:_Array_InternalArray__ICollection_Remove_TisCustomAttributeNamedArgument_t94157543_m2838387005_gshared
l3g:__ZL105LayoutUtility_t4076838048_CustomAttributesCacheGenerator_LayoutUtility_U3CGetMinHeightU3Em__4_m1769295917P21CustomAttributesCache
VGh:_Dictionary_2_GetEnumerator_m1752238884_gshared
O4h:_InternalEnumerator_1__ctor_m2782443954_AdjustorThunk
wd:_glBeginQuery
xcg:_Assembly_GetCustomAttributes_m95309865
aJ:__ZN18AnimatorController19TransferRuntimeDataI24GenerateTypeTreeTransferEEvRT_
aQc:__ZN10Effector2D25CheckEffectorColliderMaskEP10Collider2DS1_
HQb:__ZN6Camera12RenderStereoENS_10RenderFlagE8CullFlagPNS_24PerformEyeRenderFunctionE
D2g:__ZL73LayoutElement_t2808691390_CustomAttributesCacheGenerator_m_FlexibleHeightP21CustomAttributesCache
qrb:__ZN20LocalFileSystemPosix10ToAbsoluteEPKc
fTa:__ZN20TierGraphicsSettings8TransferI19StreamedBinaryWriteILb0EEEEvRT_
u2:__GLOBAL__sub_I_runtime_input_0_cpp
A1d:_Convert_ToBoolean_m48997236
xde:_Enum_ToObject_m275924358
Cm:f0
IDa:__ZN9BehaviourD0Ev
rXd:_ArrayListWrapper_set_Capacity_m2792463350
CSa:__Z32TransferEnumWithNameForceIntSizeI14SafeBinaryRead7HDRModeEvRT_RT0_PKc17TransferMetaFlags
gQj:_getcwd
w1f:_StringBuilder_Append_m1128243247
uLc:__ZN16b2CapsuleContact6CreateEP9b2FixtureiS1_iP16b2BlockAllocator
wgi:_AnchorInfo_get_Offset_m142119297
JEa:__ZN25ThreadsafeLinearAllocatorD2Ev
x6d:_DateTime_get_Year_m1985210972
Rgb:__Z21SendMessageToEveryoneRK17MessageIdentifier11MessageData
kIi:_UnityAction_1_EndInvoke_m902670333_gshared
dca:__ZN21BillboardBatchManager16StaticInitializeEPv
s4:__ZN12_GLOBAL__N_138ArchiveRedirectFileSystemStaticDestroyEPv
Xde:_EventHandler_Invoke_m1137722757
e$a:__ZN12CubemapArray34UpdateFileTextureUploadInstructionEP26FileAssetUploadInstructionj
wXe:_MonoType_IsSubclassOf_m2211166238
Dog:_TypeFilter_EndInvoke_m997625354
Lgf:_Collection_1_System_Collections_ICollection_CopyTo_m2859266050_gshared
fxa:__Z23CreateSparseTextureGLES9TextureIDii14GraphicsFormati
X5h:_Comparer_1__ctor_m2876014041_gshared
WIj:_GC_continue_reclaim
JOe:_InvalidCastException__ctor_m2730571470
ZNf:_X509ChainElementCollection_System_Collections_IEnumerable_GetEnumerator_m2559704689
THg:__ZL86BigInteger_t925946153_CustomAttributesCacheGenerator_BigInteger_op_Implicit_m622924526P21CustomAttributesCache
u_g:__ZL59Dropdown_t1985816271_CustomAttributesCacheGenerator_m_ValueP21CustomAttributesCache
kQf:_InterpreterFactory_set_Gap_m2761943153
nLf:_PublicKey_get_Key_m126090744
wUc:__ZNSt3__23mapIN20TextRenderingPrivate7FontRefEP11FT_FaceRec_NS_4lessIS2_EENS_9allocatorINS_4pairIKS2_S4_EEEEEixERS9_
YGa:__ZN17ArchiveFileSystem10AddStorageEP20ArchiveStorageReader
EWi:__ZL25UnresolvedVirtualCall_104P12Il2CppObjectS0_S0_S0_iPK10MethodInfo
Ksi:_Object_INTERNAL_CALL_Internal_InstantiateSingle_m846595043
s5d:_Convert_ToSingle_m690748777
rEc:__ZNK12b2MotorJoint16GetReactionForceEf
sbj:__ZN6il2cpp2vm13MetadataCache37GetParameterDefaultValueDataFromIndexEi
b6e:_List_1_RemoveAll_m4125997475_gshared
jJh:_EqualityComparer_1_System_Collections_IEqualityComparer_GetHashCode_m1203798961_gshared
C4i:__ZN6il2cpp2vm5Class15GetEnumBaseTypeEP11Il2CppClass
ZPe:_DirectoryNotFoundException__ctor_m3713860966
h0a:__ZNK9Texture2D16GetNpotTexelSizeEv
PYh:_InternalEnumerator_1__ctor_m245588437_gshared
POf:_Capture_get_Text_m3472127896
zLh:_Mask_get_rectTransform_m3304369086
Ukh:__Z78RuntimeInvoker_Void_t1841601450_ScriptableRenderContext_t4271526_RuntimeObjectPFvvEPK10MethodInfoPvPS4_
epa:__ZN9GfxDevice22GetDefaultVertexBufferE26GfxDefaultVertexBufferTypej
QBi:_SpriteRenderer_set_sprite_m3307887080
NMg:__ZL83Input_t1785128008_CustomAttributesCacheGenerator_Input_get_mousePresent_m1100327283P21CustomAttributesCache
Hof:_ReadOnlyCollection_1_System_Collections_ICollection_CopyTo_m1129689124_gshared
yQj:___fseeko_unlocked
N_j:_glGetActiveUniform__wrapper
qQj:_sscanf
Vjf:_Collection_1_Contains_m1999290510_gshared
u8a:__ZN14SafeBinaryRead21TransferSTLStyleArrayINSt3__26vectorI17BlendShapeChannelNS1_9allocatorIS3_EEEEEEvRT_17TransferMetaFlags
PMb:__Z17BeginSplashScreenv
Lmb:__ZN9ShaderLab16SerializedShader8TransferI19StreamedBinaryWriteILb0EEEEvRT_
c9f:_UInt32_Parse_m2400360707
GG:__ZN7mecanim9animation18CreateAvatarMemoryEPKNS0_14AvatarConstantERNS_6memory9AllocatorE
Y0d:_Stack_Pop_m3788808882
$wh:_Enumerator_VerifyCurrent_m4246196125_AdjustorThunk
TFh:_Dictionary_2_pick_value_m3484897877_gshared
Kni:_ArgumentCache__ctor_m1191928438
w8d:_DateTime_op_Equality_m1867073872
vF:__ZN7mecanim8skeleton16SkeletonPoseCopyIN4math4trsXENS2_7affineXEEEvPKNS0_13SkeletonPoseTIT_EEPNS5_IT0_EE
lCb:__Z18Transfer_BlittableI19StreamedBinaryWriteILb0EELb0EaEvRK29SerializationCommandArgumentsR31RuntimeSerializationCommandInfo
Loa:__ZN18GfxFramebufferGLES18GetFramebufferNameERK20GfxRenderTargetSetup
duc:__Z30Event_Get_Custom_PropCharacterP12Il2CppObject
vda:__ZN13PlayableGraph27SchedulePlayableDestructionERK9HPlayable
XXj:_glGetFramebufferAttachmentParameteriv__wrapper
ggd:__Z13RegisterClassI20UnityConnectSettingsEvv
hvb:__Z22scripting_array_length17ScriptingArrayPtr
Mpd:_SecurityElement_GetAttribute_m4288291176
nji:_UriParser_get_DefaultPort_m1377931533
TJi:_IndexedSet_1_get_Count_m2839545138_gshared
s$a:__ZN14SafeBinaryRead20TransferTypelessDataEjPvi
yxg:__ZL66StringFreezingAttribute_t2691375565_CustomAttributesCacheGeneratorP21CustomAttributesCache
xab:__ZN14SpriteRenderer18UpdateCachedSpriteEb
E7e:_List_1_AddCollection_m3284813601_gshared
o_c:_Horizontal_Sweep_Init
T1g:__ZL102ToggleGroup_t1030026315_CustomAttributesCacheGenerator_ToggleGroup_U3CActiveTogglesU3Em__1_m4052653494P21CustomAttributesCache
mU:__ZN13dynamic_arrayI12SoundChannelLj4EE9push_backERKS0_
Gwa:__Z19GetActiveColorSpacev
CJh:_EqualityComparer_1__cctor_m1672307556_gshared
_Tf:_SoapTypeAttribute_get_IsInteropXmlElement_m2941294827
ZXc:_UNITY_tt_face_load_kern
e0e:_Enumerator_System_Collections_IEnumerator_get_Current_m3542273247_gshared
IVd:_Char_System_IConvertible_ToUInt32_m1557991717_AdjustorThunk
B0f:_Encoding_get_UTF8Unmarked_m628720656
BLe:_NumberFormatter_RoundBits_m1545255255
M3:__Z6StrCmpPKcS0_
y2h:_InternalEnumerator_1_MoveNext_m2906956792_gshared
cch:__Z119RuntimeInvoker_Void_t1841601450_RuntimeObject_Int64U26_t763825331_ObjectU26_t597476745_SerializationInfoU26_t4051840202PFvvEPK10MethodInfoPvPS4_
pob:__Z21CheckGpuProgramUsable20ShaderGpuProgramType
mdg:_Binder__cctor_m3736115807
TBj:__ZN6il2cpp2os9Directory20GetFileSystemEntriesERKNSt3__212basic_stringIcNS2_11char_traitsIcEENS2_9allocatorIcEEEESA_iiPi
yqh:__Z84RuntimeInvoker_Int32_t2071877448_Color32_t874517518_Color32_t874517518_RuntimeObjectPFvvEPK10MethodInfoPvPS4_
OGh:_Dictionary_2_OnDeserialization_m2160537783_gshared
bSd:_Attribute_GetHashCode_m2653962112
vTc:__ZN20TextRenderingPrivate19NativeTextGenerator5SetupEv
Zci:_AsyncResult_GetReplyMessage_m262842621
mYb:__ZNK15SharedLightData24GetFinalShadowResolutionEv
F_e:_Enumerator__ctor_m3021143890_AdjustorThunk
Ydb:__ZN12AspectRatios8TransferI18StreamedBinaryReadILb0EEEEvRT_
itg:__ZL66X509ExtensionCollection_t1640144839_CustomAttributesCacheGeneratorP21CustomAttributesCache
Hdc:__ZN10GameObject14CopyPropertiesERS_
NXi:__ZL25UnresolvedVirtualCall_167P12Il2CppObject19Vector3_t2243707580S1_PK10MethodInfo
Tuc:__Z44Register_UnityEngine_GUIStyle_get_fixedWidthv
rmd:_RSACryptoServiceProvider_Common_m2581564813
_ti:_X509CertificateEnumerator_MoveNext_m4060814498
sAi:_Vector2_Scale_m2260641886
$Re:_MemoryStream_CheckIfClosedThrowDisposed_m2253054610
FVh:_ArrayReadOnlyList_1_GetEnumerator_m634288642_gshared
_4a:__ZNK13ScreenManager12IsFullScreenEv
TQj:_rand
yYj:_emscripten_glFramebufferRenderbuffer__wrapper
pkh:__Z72RuntimeInvoker_Boolean_t3825574718_Ray_t2469606224_SingleU26_t4173844468PFvvEPK10MethodInfoPvPS4_
sCj:__ZN6il2cpp5utils9PathUtils7CombineIcEENSt3__212basic_stringIT_NS3_11char_traitsIS5_EENS3_9allocatorIS5_EEEERKNS0_10StringViewIS5_EERKSA_
Mrf:_ReadOnlyCollection_1_GetEnumerator_m2481390116_gshared
w9g:__Z77RuntimeInvoker_Void_t1841601450_RuntimeObject_Int32_t2071877448_RuntimeObjectPFvvEPK10MethodInfoPvPS4_
dwb:__ZN14SafeBinaryRead21TransferSTLStyleArrayINSt3__26vectorI17AnimationCurveTplIfE13stl_allocatorIS4_L18MemLabelIdentifier1ELi16EEEEEEvRT_17TransferMetaFlags
Alj:__ZN15dense_hashtableINSt3__24pairIK10KeyWrapperINS1_IPK11Il2CppImageP11Il2CppClassEEEjEES9_17ReflectionMapHashIS8_EN14dense_hash_mapIS9_jSD_NS9_14EqualsComparerINS0_8equal_toIS8_EEEENS0_9allocatorISB_EEE9SelectKeyESI_SK_E12expand_arrayEjN21dense_hash_map_traits17integral_constantIbLb0EEE
QWf:_ObjectManager_RegisterObject_m872610295
K_b:__Z22PrepareOptimizedPlanesPK5PlaneiPKN4math7_float4E
uzi:_RectOffset_t3387826427_marshal_pinvoke
$Hd:_Graphic_SetVerticesDirty_m1607014370
Z$:__ZN11UnityEngine15CloudWebService17WebFileDownloaderINS0_20WebRequestRestClientENS0_23WebRequestRestHeaderMapEE10InitializeERKN4core12basic_stringIcNS5_20StringStorageDefaultIcEEEE
bca:__ZN17UniqueIDGenerator15CreatePureIndexEv
xvf:_MD2__ctor_m3133818738
_v:__ZN11UnityEngine9Animation28GenericAnimationBindingCache15DidReloadDomainEv
IGe:_AppDomain_InternalGetProcessGuid_m1278588156
oNd:_InputField_MoveRight_m386206014
w$d:_HashValues_get_Count_m234926373
Neb:__ZNSt3__26vectorIN15ResourceManager10DependencyE13stl_allocatorIS2_L18MemLabelIdentifier52ELi16EEE6assignINS_11__wrap_iterIPS2_EEEENS_9enable_ifIXaasr21__is_forward_iteratorIT_EE5valuesr16is_constructibleIS2_NS_15iterator_traitsISC_E9referenceEEE5valueEvE4typeESC_SC_
rK:__ZN19StreamedBinaryWriteILb0EE8TransferIN7mecanim9animation23BlendDirectDataConstantEEEvRT_PKc17TransferMetaFlags
F7g:__Z116RuntimeInvoker_Boolean_t3825574718_RuntimeObject_Int32_t2071877448_RuntimeObject_Int32_t2071877448_Int32_t2071877448PFvvEPK10MethodInfoPvPS4_
dPe:_BinaryReader_ReadBoolean_m2892291883
S3i:__ZN15dense_hashtableINSt3__24pairIK10KeyWrapperIPK22Il2CppGenericParameterEP11Il2CppClassEES6_N6il2cpp5utils11PointerHashIS4_EEN14dense_hash_mapIS6_S9_SE_NS6_14EqualsComparerINS0_8equal_toIS5_EEEENS0_9allocatorISA_EEE9SelectKeyESJ_SL_E14squash_deletedEv
gGc:__ZNK12b2MouseJoint17GetReactionTorqueEf
dBg:__ZL66DSASignatureDeformatter_t2187578719_CustomAttributesCacheGeneratorP21CustomAttributesCache
MWg:__ZL85Canvas_t209405766_CustomAttributesCacheGenerator_Canvas_get_sortingLayerID_m137448982P21CustomAttributesCache
nsc:__Z14GUIClipTextureP9Texture2DPhiiii
Vt:__ZN14SafeBinaryRead21TransferSTLStyleArrayI13dynamic_arrayI11KeyframeTplI11QuaternionfELj4EEEEvRT_17TransferMetaFlags
lXh:_InternalEnumerator_1_Dispose_m1064404287_AdjustorThunk
Gua:__ZNSt3__26vectorI27ComputeShaderBuiltinSamplerNS_9allocatorIS1_EEE21__push_back_slow_pathIKS1_EEvRT_
o3i:_AnimatorControllerPlayable__ctor_m4080566273
iCf:_TlsServerCertificate_validateCertificates_m1988583701
ysg:__ZL61DllImportAttribute_t3000813225_CustomAttributesCacheGeneratorP21CustomAttributesCache
o6g:__Z66RuntimeInvoker_Int32_t2071877448_RuntimeObject_Int32U26_t455636984PFvvEPK10MethodInfoPvPS4_
pXi:__ZL25UnresolvedVirtualCall_143P12Il2CppObjectaaPK10MethodInfo
uNa:__ZNK9Transform18TransformDirectionERK8Vector3f
UHa:__ZNK17ArchiveFileSystem12GetAssetGUIDERK13FileEntryData
gob:__ZNSt3__26vectorIN9ShaderLab20SerializedSubProgram15MatrixParameterENS_9allocatorIS3_EEE21__push_back_slow_pathIKS3_EEvRT_
A1j:_emscripten_glClearStencil__wrapper
Xrh:__Z60RuntimeInvoker_Void_t1841601450_ResourceCacheItem_t333236149PFvvEPK10MethodInfoPvPS4_
ZJh:_EqualityComparer_1_get_Default_m1852501307_gshared
daj:__ZN15dense_hashtableINSt3__24pairIK10KeyWrapperIPK11Il2CppClassEPKcEES6_N6il2cpp5utils11PointerHashIS3_EEN14dense_hash_mapIS6_S9_SE_NS6_14EqualsComparerINS0_8equal_toIS5_EEEENS0_9allocatorISA_EEE9SelectKeyESJ_SL_E12resize_deltaEjj
ESj:__ZNK10__cxxabiv120__si_class_type_info27has_unambiguous_public_baseEPNS_19__dynamic_cast_infoEPvi
ZHe:_NumberFormatInfo_get_PercentNegativePattern_m1162448153
Stg:__ZL56SyncHashtable_t1343674558_CustomAttributesCacheGeneratorP21CustomAttributesCache
jWj:_glTexSubImage3D__wrapper
$Of:_FactoryCache_Add_m2602974721
dpa:__Z30AddDefaultStreamsToMeshBuffersR9GfxDeviceR11MeshBuffersj17ShaderChannelMaskS3_
W3:__ZL16GetInterfaceImpl18UnityInterfaceGUID
kIe:_RegionInfo_construct_internal_region_from_name_m3316088619
V4i:__ZN6il2cpp2vmL17SetupFieldOffsetsENS0_15FieldLayoutKindEP11Il2CppClassjRKNSt3__26vectorIjNS4_9allocatorIjEEEE
T1e:_List_1_System_Collections_IList_get_Item_m936612973_gshared
dFj:__ZN6il2cpp6icalls8mscorlib6System15MonoCustomAttrs27GetCustomAttributesInternalEP12Il2CppObjectP20Il2CppReflectionTypeb
R3c:_UNITY_TT_Set_MM_Blend
x2:__GLOBAL__sub_I_runtime_math_random_0_cpp
_Wf:_ObjectReader_ReadAssembly_m869834280
MBi:_Sprite_INTERNAL_get_textureRect_m127050026
_Mb:__ZN14PreloadManager35WaitForAllAsyncOperationsToCompleteEv
erf:_ReadOnlyCollection_1_System_Collections_IList_get_Item_m1831743662_gshared
Xkf:_Collection_1_IsSynchronized_m971497175_gshared
E5:__ZNK18ScriptingObjectPtr17ToScriptingStringEv
syd:_ExecuteEvents_Execute_m1617536317
ZSh:_Text_get_cachedTextGeneratorForLayout_m1357670532
oP:__ZL31InitializeAudioScriptingClassesv
XRb:__Z14SortGUIByDepthP10GUIElementS0_
dMe:_NumberFormatter_NumberToString_m126384393
$Zj:_emscripten_glVertexAttrib4fv__wrapper
r3:__ZN13RuntimeStaticI13dynamic_arrayIPK31TransferFunctionScriptingTraitsLj4EELb0EE16StaticInitializeEPv
DRf:_LogicalCallContext__ctor_m3173272863
dG:__ZN12_GLOBAL__N_120ProcessRootMotionMixER33AnimationPlayableEvaluationOutputR35AnimationPlayableEvaluationConstantR32AnimationPlayableEvaluationInputS1_f
hWe:_MonoCustomAttrs__cctor_m2608447972
LKe:_Int32_FindSign_m3803672540
xMg:__ZL98TouchScreenKeyboard_t601950206_CustomAttributesCacheGenerator_TouchScreenKeyboard_Open_m4126304679P21CustomAttributesCache
aah:__Z92RuntimeInvoker_Void_t1841601450_DateTime_t693205669_DateTime_t693205669_TimeSpan_t3430258949PFvvEPK10MethodInfoPvPS4_
Aoh:__Z95RuntimeInvoker_Void_t1841601450_ObjectU5BU5DU26_t3223402458_Int32_t2071877448_Int32_t2071877448PFvvEPK10MethodInfoPvPS4_
Srb:__ZNK20LocalFileSystemPosix21GetAvailableDiskSpaceEPKcRy
d3:__ZNSt3__26__treeIiNS_4lessIiEENS_9allocatorIiEEE7destroyEPNS_11__tree_nodeIiPvEE
uGi:_Predicate_1__ctor_m2995226103_gshared
ayf:_CipherSuite_InitializeCipher_m229247572
ILf:_X509Certificate2__ctor_m1095336775
Uha:__ZNK9GfxDevice14GetWorldMatrixEv
Cng:_MonoProperty_GetGetMethod_m1100580870
uFh:_Dictionary_2__ctor_m1950568359_gshared
_Dj:__ZN15dense_hashtableINSt3__24pairIK10KeyWrapperIPK19Il2CppGenericMethodEP10MethodInfoEES6_N6il2cpp8metadata23Il2CppGenericMethodHashEN14dense_hash_mapIS6_S9_SD_NS6_14EqualsComparerINSC_26Il2CppGenericMethodCompareEEENS0_9allocatorISA_EEE9SelectKeyESH_SJ_E13set_empty_keyERKSA_
gqb:__Z19scripting_array_new17ScriptingClassPtrjj
aU:__ZN11SoundHandle13CreateChannelEb
zbh:__Z90RuntimeInvoker_Void_t1841601450_IntPtr_t_Int32_t2071877448_RuntimeObject_Int32_t2071877448PFvvEPK10MethodInfoPvPS4_
J1a:__ZN14SafeBinaryRead21TransferSTLStyleArrayI13dynamic_arrayI12LightmapDataLj4EEEEvRT_17TransferMetaFlags
$Ge:_ArgumentException__ctor_m3312963299
ilb:__ZNSt3__26vectorIN9ShaderLab20SerializedSubProgram16TextureParameterENS_9allocatorIS3_EEE6assignIPS3_EENS_9enable_ifIXaasr21__is_forward_iteratorIT_EE5valuesr16is_constructibleIS3_NS_15iterator_traitsISA_E9referenceEEE5valueEvE4typeESA_SA_
fqf:_ReadOnlyCollection_1_get_Item_m1696267180_gshared
J8i:__ZN13Il2CppHashMapIN6il2cpp5utils13dynamic_arrayIPK10Il2CppTypeLj4EEEPFvvENS0_8metadata19Il2CppSignatureHashENS9_22Il2CppSignatureCompareENSt3__29allocatorINSC_4pairIK10KeyWrapperIS6_ES8_EEEEEC2EjRKSA_RKSB_
Xnc:__Z51Quaternion_CUSTOM_INTERNAL_CALL_Internal_ToEulerRadRK11QuaternionfR8Vector3f
$nj:__ZN15dense_hashtableINSt3__24pairIK10KeyWrapperIPK22Il2CppGenericParameterEPK24MonoGenericParameterInfoEES6_N6il2cpp5utils11PointerHashIS4_EEN14dense_hash_mapIS6_SA_SF_NS6_14EqualsComparerINS0_8equal_toIS5_EEEENS0_9allocatorISB_EEE9SelectKeyESK_SM_E15set_deleted_keyERKSB_
DZh:_InternalEnumerator_1_System_Collections_IEnumerator_Reset_m2726857860_AdjustorThunk
d6b:__ZN6prcoreL11inner_clearILj2EEEvPhjjj
EOf:_X509SubjectKeyIdentifierExtension__ctor_m3887138480
x_e:_Enumerator_System_Collections_IEnumerator_get_Current_m2853089017_AdjustorThunk
sFc:__ZN12b2WheelJoint24SolvePositionConstraintsERK12b2SolverData
Kg:_emscripten_exit_fullscreen
mLd:_InputField_get_mesh_m3276583786
L8h:_GCHandle_Free_m1639542352_AdjustorThunk
PXc:_sfnt_done_face
bBj:__ZN6il2cpp6icalls8mscorlib6System6String19InternalAllocateStrEi
nCc:__Z29Transfer_Blittable_ArrayFieldI8JSONRead11QuaternionfEvRT_R9ArrayInfoRK23StaticTransferFieldInfo
Ezg:__ZL65SoapParameterAttribute_t2780084514_CustomAttributesCacheGeneratorP21CustomAttributesCache
zrb:__ZN20LocalFileSystemPosix8SetFlagsER13FileEntryDatajj
plc:__Z45Register_UnityEngine_Camera_get_targetDisplayv
Ubc:__ZNK24RendererAnimationBinding15GenerateBindingERKN4core12basic_stringIcNS0_20StringStorageDefaultIcEEEEbRN11UnityEngine9Animation14GenericBindingE
XRa:__Z15GetFlareManagerv
b7b:__ZN15ApplicationInfo24GetApplicationIdentifierEv
Rpf:_ReadOnlyCollection_1_System_Collections_IList_Contains_m927375828_gshared
WCa:__ZN9Behaviour8TransferI18StreamedBinaryReadILb0EEEEvRT_
Udi:_Enumerator_System_Collections_IEnumerator_get_Current_m1429268283
Smf:_ReadOnlyCollection_1_System_Collections_Generic_ICollectionU3CTU3E_Clear_m388357963_gshared
SOj:___toread
gLb:__ZNSt3__26vectorI10vector_mapIiiNS_4lessIiEE13stl_allocatorINS_4pairIiiEEL18MemLabelIdentifier38ELi16EEES4_IS9_LS7_38ELi16EEE26__swap_out_circular_bufferERNS_14__split_bufferIS9_RSA_EE
fTj:___cxa_is_pointer_type
Cud:_String_Concat_m56707527
fG:__ZN7mecanim9animation16EvaluateAvatarDXEPKNS0_14AvatarConstantEPKNS0_11AvatarInputEPNS0_12AvatarMemoryEPNS0_15AvatarWorkspaceEPNS0_12AvatarOutputE
Wva:__ZN4gles20DestroyRenderSurfaceEP7ApiGLESP17RenderSurfaceGLES
w_e:_Enumerator_System_Collections_IEnumerator_get_Current_m2853089017_gshared
Qqc:__Z34Transform_CUSTOM_SetAsFirstSiblingP12Il2CppObject
Vij:__ZNK15dense_hashtableINSt3__24pairIK10KeyWrapperINS1_IPK14Il2CppAssemblyP11Il2CppClassEEEjEES9_17ReflectionMapHashIS8_EN14dense_hash_mapIS9_jSD_NS9_14EqualsComparerINS0_8equal_toIS8_EEEENS0_9allocatorISB_EEE9SelectKeyESI_SK_E10test_emptyEj
v0e:_Enumerator_get_Current_m827571811_AdjustorThunk
eTg:__ZL62Font_t4239498691_CustomAttributesCacheGenerator_textureRebuiltP21CustomAttributesCache
jDa:__ZN17PersistentManager40GlobalToLocalSerializedFileIndexInternalERK26SerializedObjectIdentifier
_Y:__ZN11UnityEngine15CloudWebService17SessionEventQueue14ParseEventDataERKN4core12basic_stringIcNS2_20StringStorageDefaultIcEEEE
cwd:_BaseEventData_get_selectedObject_m3551206992
Pxe:_SimpleCollator_CompareOrdinal_m2176988387
EQg:__ZL47Rect_t3681755626_CustomAttributesCacheGeneratorP21CustomAttributesCache
Hee:_CCGregorianCalendar_GetYear_m1289900195
bMe:_Int16_ToString_m2592645088
hLg:__ZL90CullingGroup_t1091689465_CustomAttributesCacheGenerator_CullingGroup_SendEvents_m386073533P21CustomAttributesCache
bna:__ZN13TranslateGLES4InitERK12GraphicsCaps16GfxDeviceLevelGL
kIb:__Z29Transfer_Blittable_ArrayFieldI18StreamedBinaryReadILb0EE10ColorRGBAfEvRT_R9ArrayInfoRK23StaticTransferFieldInfo
tYf:_SerializationInfoEnumerator_Reset_m2206466680
sEi:_Vector2_Normalize_m2269900634_AdjustorThunk
wYj:_emscripten_glGetShaderPrecisionFormat__wrapper
SQi:_GenericEqualityComparer_1_Equals_m1934771410_gshared
cug:__ZL57DebuggingModes_t2073970606_CustomAttributesCacheGeneratorP21CustomAttributesCache
hMj:__ZN6il2cpp5utils9Exception26FormatInvalidCastExceptionEPK11Il2CppClassS4_
Ghf:_Collection_1_System_Collections_IList_get_IsFixedSize_m993584401_gshared
M9b:__ZN13ProduceHelperI10TagManagerLb0EE7ProduceE18MemLabelIdentifier18ObjectCreationMode
MMj:__ZN6il2cpp2os6Memory12AlignedAllocEjj
v1h:_InternalEnumerator_1__ctor_m691972083_gshared
BGj:__ZN6il2cpp8metadataL7CompareEPK10Il2CppTypeS3_
cyb:__Z18Transfer_BlittableI17RemapPPtrTransferLb0E11ColorRGBA32EvRK29SerializationCommandArgumentsR31RuntimeSerializationCommandInfo
Neg:_TypeBuilder_get_is_created_m736553860
Hwf:_RSAManaged__ctor_m1370411656
AGb:__Z18Transfer_BlittableI18StreamedBinaryReadILb0EELb1E10ColorRGBAfEvRK29SerializationCommandArgumentsR31RuntimeSerializationCommandInfo
Y_a:__ZN12CubemapArray23VirtualRedirectTransferER17RemapPPtrTransfer
vxi:_PropertyName_op_Equality_m112228798
djc:__ZL27GetComponentsImplementationILb0ELi0EEbR10GameObjectbRK17CompareParametersRK39GetComponentsImplementation_ReturnValue
f2h:_InternalEnumerator_1_MoveNext_m3103009949_AdjustorThunk
OJb:__ZN9Scripting36IsSystemCollectionsGenericDictionaryE17ScriptingClassPtr
TNh:_Raycast3DCallback_EndInvoke_m3234280377
Mlh:__Z34RuntimeInvoker_KeyCode_t2283395152PFvvEPK10MethodInfoPvPS4_
Ewi:_PlayableHandle_op_Equality_m2854547329
PEd:_ColorTweenCallback__ctor_m3619686788
C9:__ZL16ReadTypeTreeImplILb0EEbR8TypeTreeRK16TypeTreeIteratorRPKhS6_i
yK:__ZN25RuntimeAnimatorControllerD2Ev
fC:__ZN27AnimationLayerMixerPlayable16SetLayerMaskCopyEjRKN7mecanim6bitsetILj70EEEPKNS0_8skeleton12SkeletonMaskE
uVa:__ZNK22BuiltinResourceManager21GetResourceInstanceIDEPKN5Unity4TypeERKN4core12basic_stringIcNS4_20StringStorageDefaultIcEEEE
fnc:__Z42Register_UnityEngine_RectOffset_set_bottomv
BXd:_ArrayListWrapper_IndexOf_m3574835167
Cuc:__Z28GUIStyleState_CUSTOM_CleanupP12Il2CppObject
aUb:__ZN28LightProbeProxyVolumeContext8CopyFromERKS_
GCd:_U3COnFinishSubmitU3Ec__Iterator0_System_Collections_Generic_IEnumeratorU3CobjectU3E_get_Current_m1823105495
YLa:__ZN23TransformChangeDispatch32QueueTransformChangeIfHasChangedER18TransformHierarchy
kod:_SymmetricAlgorithm_get_FeedbackSize_m544664262
Xva:__ZN7ApiGLES18DeleteRenderbufferERj
Bua:__ZL23ProgramUniformMatrix4fvPK7ApiGLESjiihPKv
hwa:__ZN7ApiGLES13CreateTextureEjj14GraphicsFormatiiiii
Jnh:__Z41RuntimeInvoker_SelectionState_t3187567897PFvvEPK10MethodInfoPvPS4_
W1h:_InternalEnumerator_1_MoveNext_m3629145604_gshared
Skb:__ZN9ShaderLab20SerializedSubProgram15MatrixParameter8TransferI14SafeBinaryReadEEvRT_
u6g:__Z51RuntimeInvoker_Int32_t2071877448_Single_t2076509932PFvvEPK10MethodInfoPvPS4_
oSd:_BitConverter_AmILittleEndian_m2716658112
fjc:__ZL27GetComponentsImplementationILb0ELi1EEbR10GameObjectbRK17CompareParametersRK39GetComponentsImplementation_ReturnValue
Y2c:_Round_Down_To_Grid
k3f:_UTF8Decoder__ctor_m1460357288
hma:__ZN13RenderTexture7ReleaseEv
Mzc:__Z18Transfer_BlittableI8JSONReadLb1EN4math12int3_storageEEvRK29SerializationCommandArgumentsR31RuntimeSerializationCommandInfo
D9a:__ZN10MeshFilter23VirtualRedirectTransferER14SafeBinaryRead
Aoi:_UnityAction_BeginInvoke_m1146054769
R1d:_Convert_ToByte_m1201588964
N9a:__ZN12MeshRenderer17MainThreadCleanupEv
sza:__ZN22CreateGpuProgramOutput12CreateParamsEv
yQ:__ZN10ObjectPoolIN4FMOD7ChannelENS0_8ChannelIEE7GetFreeEi
xvg:__ZL55EventBuilder_t2927243889_CustomAttributesCacheGeneratorP21CustomAttributesCache
QYf:_RuntimeMethodHandle_GetHashCode_m2682236001_AdjustorThunk
fUi:_AudioListenerExtension_get_audioListener_m2614481031
hsh:__Z54RuntimeInvoker_Void_t1841601450_UILineInfo_t3621277874PFvvEPK10MethodInfoPvPS4_
Ehj:__ZNSt3__26vectorIiNS_9allocatorIiEEE21__push_back_slow_pathIiEEvOT_
Mmh:__Z45RuntimeInvoker_HorizontalWrapMode_t2027154177PFvvEPK10MethodInfoPvPS4_
Tma:__ZNK14GfxContextGLES13GetDefaultFBOEv
cie:_Array_InternalArray__ICollection_Remove_TisSByte_t454417549_m2474211570_gshared
hqd:_Evidence_get_IsSynchronized_m1427392003
rMb:__ZN14GraphicsHelper5ClearE13GfxClearFlagsRK10ColorRGBAffjR17ShaderPassContext
Vzi:_RectTransform_set_anchorMax_m1168582032
Efc:__Z13GetImagePixelI10ColorRGBAfET_PKhii13TextureFormat15TextureWrapModeS5_ii
vfj:_il2cpp_class_is_enum
Brj:__ZN6il2cpp2vm6Thread49CheckCurrentThreadForInterruptAndThrowIfNecessaryEv
ePa:__ZNSt3__23mapIN9ShaderLab16FastPropertyNameEN18UnityPropertySheet11UnityTexEnvENS_4lessIS2_EENS_9allocatorINS_4pairIKS2_S4_EEEEEixERS9_
lva:__ZNK13TranslateGLES25GetTextureTargetDimensionEj
jqe:_Array_InternalArray__set_Item_TisByte_t3683104436_m1694926640_gshared
jif:_Collection_1_System_Collections_IList_Contains_m1897568526_gshared
ahg:_FieldBuilder_get_FieldType_m2267463269
LRd:_SimpleEnumerator_Clone_m3032847657
Hei:_PatternCompiler_EmitInfo_m597931026
Ytf:_ModulusRing_Multiply_m3113924743
bqc:__Z47Texture2D_CUSTOM_INTERNAL_CALL_GetPixelBilinearP12Il2CppObjectffR10ColorRGBAf
v5:__ZN9Scripting12LogExceptionE21ScriptingExceptionPtriPKcb
HAf:_Context_get_ServerSettings_m225713600
Ki:_emscripten_glVertexAttrib4f
wmf:_ReadOnlyCollection_1_System_Collections_IEnumerable_GetEnumerator_m531171980_gshared
Qnb:__ZNSt3__26vectorIN20GpuProgramParameters14ConstantBufferENS_9allocatorIS2_EEE8__appendEj
zzi:_RectOffset__ctor_m976836251
Nse:_Array_Sort_TisUILineInfo_t3621277874_m3105833015_gshared
RXe:_MonoType_GetGenericArguments_m2708198481
mVb:__ZN11HaloManager21ReleaseGeometryJobMemEP25DynamicVBOGeometryJobData
Z1e:_List_1_AddEnumerable_m2489692396_gshared
Qmh:__Z51RuntimeInvoker_Color_t2020392075_Single_t2076509932PFvvEPK10MethodInfoPvPS4_
kQi:_GenericEqualityComparer_1_GetHashCode_m3450627064_gshared
C3f:_WaitHandle__ctor_m1256161634
Nsh:__Z67RuntimeInvoker_Void_t1841601450_Int32_t2071877448_Color_t2020392075PFvvEPK10MethodInfoPvPS4_
gB:__ZN7mecanim12statemachine24CreateStateMachineMemoryEPKNS0_20StateMachineConstantERNS_6memory9AllocatorE
dBh:_Enumerator_get_Current_m419581838_AdjustorThunk
vka:__ZN9GfxDevice18SetGlobalDepthBiasEff
Kcj:__ZN6il2cpp6icalls8mscorlib6System8MonoType12get_AssemblyEP20Il2CppReflectionType
nyf:_TlsStream_Write_m3425460533
hyi:_Vector3_get_normalized_m1057036856
CHd:_FontData_get_richText_m2013560754
qrd:_SecurityException_get_PermissionType_m3543350822
Yi:_emscripten_glGetPointerv
VF:__ZN8Animator22ApplyBuiltinRootMotionEv
Pxj:__ZN15dense_hashtableI10KeyWrapperIP18Il2CppGenericClassES3_N6il2cpp8metadata22Il2CppGenericClassHashEN14dense_hash_setIS3_S6_NS3_14EqualsComparerINS5_25Il2CppGenericClassCompareEEENSt3__29allocatorIS3_EEE8IdentityESA_SD_E5clearEv
GMb:__Z26ApplyMaterialPassWithCacheRK18SharedMaterialDataR17ShaderPassContextP6ShaderPN9ShaderLab4PassEibPKNS6_10GrabPassesEPNS6_11SubProgramsEPK22DeviceRenderStateBlock
k2i:_Rigidbody2D_INTERNAL_get_position_m2092247005
Ghe:_Array_InternalArray__ICollection_Remove_TisKeyValuePair_2_t3716250094_m2566517826_gshared
zvj:__ZN30dense_hashtable_const_iteratorINSt3__24pairIK10KeyWrapperIP14Il2CppIUnknownEjEES5_N6il2cpp5utils11PointerHashIS3_EEN14dense_hash_mapIS5_jSB_NS5_14EqualsComparerINS0_8equal_toIS4_EEEENS0_9allocatorIS7_EEE9SelectKeyESG_SI_EppEv
N3a:__ZN8Renderer23VirtualRedirectTransferER14SafeBinaryRead
Rfg:_DerivedType_get_UnderlyingSystemType_m3904230233
nzd:_PointerEventData_get_rawPointerPress_m448871540
TTa:__Z27ConvertSubMeshesToTrianglesR13dynamic_arrayI7SubMeshLj4EERS_ItLj2EE
Q4i:__ZN6il2cpp2vmL15GetBitmapNoInitEP11Il2CppClassPjRjj
s5b:__ZL13MotionHandleriPK27EmscriptenDeviceMotionEventPv
gNf:_X509Certificate2Collection__ctor_m819526826
WO:__ZN12AudioManager5ResetEv
rwh:__Z75RuntimeInvoker_RuntimeObject_Single_t2076509932_RuntimeObject_RuntimeObjectPFvvEPK10MethodInfoPvPS4_
jvf:_KeyBuilder_Key_m3814433741
aHe:_ArgumentException__ctor_m158205422
Yke:_Array_compare_TisVector3_t2243707580_m3709184876_gshared
RJd:_HorizontalLayoutGroup_SetLayoutHorizontal_m3237355818
kta:__ZN6prcoreL17RemapGenericFloatI17TexFormatRGBAHalf15TexFormatRGHalfEEvPKNS_9InnerInfoE
Onj:__ZNK15dense_hashtableINSt3__24pairIK10KeyWrapperIPK14Il2CppAssemblyEPK22Il2CppMonoAssemblyNameEES6_N6il2cpp5utils11PointerHashIS4_EEN14dense_hash_mapIS6_SA_SF_NS6_14EqualsComparerINS0_8equal_toIS5_EEEENS0_9allocatorISB_EEE9SelectKeyESK_SM_E10test_emptyEj
pCj:__ZN6il2cpp6icalls8mscorlib6System11Environment20GetWindowsFolderPathEi
U1g:__ZL60AspectRatioFitter_t3114550109_CustomAttributesCacheGeneratorP21CustomAttributesCache
Wz:__ZN7mecanim5human18HumanPoseBlendNodeERNS0_9HumanPoseEPS1_f
aWc:_UNITY_FT_RoundFix
Znb:__ZN9ShaderLab20SerializedSubProgram15AddTextureParamEPKcii16TextureDimension
kY:__ZN23CloudWebServicesManager23VirtualRedirectTransferER17RemapPPtrTransfer
Ft:__Z14resize_trimmedINSt3__26vectorI24CompressedAnimationCurve13stl_allocatorIS2_L18MemLabelIdentifier26ELi16EEEEEvRT_j
Gii:_Uri_get_Parser_m2250631932
P9a:__ZNK12MeshRenderer22GetTypeVirtualInternalEv
JCi:_Touch_get_type_m1491424279_AdjustorThunk
UHd:_Graphic_set_color_m646149893
pGh:_Dictionary_2_System_Collections_ICollection_get_IsSynchronized_m960517203_gshared
jYa:__ZN14SafeBinaryRead19TransferSTLStyleMapINSt3__23mapIN4core12basic_stringIcNS3_20StringStorageDefaultIcEEEES7_NS1_4lessIS7_EE13stl_allocatorINS1_4pairIKS7_S7_EEL18MemLabelIdentifier1ELi16EEEEEEvRT_17TransferMetaFlags
h8f:_Type_MakeByRefType_m1323101575
S7c:__ZN2UI6Canvas27UpdateEventIndexesRecursiveERi
Dy:__ZN7mecanim9animation18EvaluateRootMotionERKNS0_18ClipMuscleConstantERKNS0_15ClipMuscleInputEPKfS8_RNS0_12MotionOutputEb
eZ:__ZN11UnityEngine15CloudWebService16SessionContainer21PrepareDataErrorEventERN4core12basic_stringIcNS2_20StringStorageDefaultIcEEEE
CWc:_UNITY_FT_Outline_New
SUg:__ZL98Event_t3028476042_CustomAttributesCacheGenerator_Event_Internal_MakeMasterEventCurrent_m3691313142P21CustomAttributesCache
YDj:__ZNSt3__218uninitialized_copyIPNS_4pairIK10KeyWrapperIPK19Il2CppGenericMethodEP10MethodInfoEESB_EET0_T_SD_SC_
HCb:__Z19TransferField_ArrayI19StreamedBinaryWriteILb0EE27Converter_SimpleNativeClassI8GUIStyleEEvRK23StaticTransferFieldInfoR31RuntimeSerializationCommandInfoRT0_
dPh:_Scrollbar_SetDirection_m3264558284
LVc:__ZN20TextRenderingPrivate8TextMesh23VirtualRedirectTransferER18StreamedBinaryReadILb0EE
J_j:_emscripten_glCopyTexSubImage2D__wrapper
U4a:__ZNK13ScreenManager12GetIsFocusedEv
pJj:_maybe_finalize
olh:__Z69RuntimeInvoker_Void_t1841601450_Vector2_t2243707579_Int32_t2071877448PFvvEPK10MethodInfoPvPS4_
rVf:_RemotingServices_RegisterInternalChannels_m1827304423
Azc:__Z35Transfer_Blittable_FixedBufferFieldI8JSONReadiEvRK29SerializationCommandArgumentsR31RuntimeSerializationCommandInfo
Nbj:__ZNSt3__213__vector_baseIN6il2cpp2os19SocketHandleWrapperENS_9allocatorIS3_EEED2Ev
tAe:_ASN1_get_Length_m3359111015
vjh:__Z66RuntimeInvoker_InternalShaderChannel_t3331827198_Int32_t2071877448PFvvEPK10MethodInfoPvPS4_
Ygh:__Z77RuntimeInvoker_RuntimeObject_Int32_t2071877448_RuntimeObject_SByte_t454417549PFvvEPK10MethodInfoPvPS4_
gc:invoke_viiffi
iIe:_RegionInfo_GetByTerritory_m3452395101
j3b:__ZN13sorted_vectorINSt3__24pairIN4core12basic_stringIcNS2_20StringStorageDefaultIcEEEEPK17MessageIdentifierEEN10vector_mapIS6_S9_NS0_4lessIS6_EENS0_9allocatorISA_EEE13value_compareESF_E10insert_oneERKSA_
UF:__ZNSt3__227__insertion_sort_incompleteIRPFbPKN8Animator11AnimatorJobES4_EPS4_EEbT0_S9_T_
RY:__ZNSt3__26__treeINS_12__value_typeIN4core12basic_stringIcNS2_20StringStorageDefaultIcEEEEjEENS_19__map_value_compareIS6_S7_NS_4lessIS6_EELb1EEE13stl_allocatorIS7_L18MemLabelIdentifier88ELi16EEE4findIS6_EENS_15__tree_iteratorIS7_PNS_11__tree_nodeIS7_PvEEiEERKT_
w4f:_Thread_GetCachedCurrentUICulture_m5590127
mjh:__Z36RuntimeInvoker_Matrix4x4_t2933234003PFvvEPK10MethodInfoPvPS4_
V_a:__ZNK12CubemapArray20GetRuntimeMemorySizeEv
BMi:_GUILayoutEntry_get_margin_m3913640621
sai:_CrossAppDomainSink_get_TargetDomainId_m775204051
Klb:__Z14resize_trimmedINSt3__26vectorIN9ShaderLab18SerializedPropertyENS0_9allocatorIS3_EEEEEvRT_j
Faf:_List_1_CheckMatch_m4018158235_gshared
zxb:__Z18Transfer_BlittableI17RemapPPtrTransferLb0EN4math12int3_storageEEvRK29SerializationCommandArgumentsR31RuntimeSerializationCommandInfo
qye:_Context_t2636657155_marshal_pinvoke_back
N9i:__ZN6il2cpp2vm13MetadataCache38GetMethodInfoFromMethodDefinitionIndexEi
bUd:_Byte_System_IConvertible_ToDateTime_m1583041031
WVi:__ZL24UnresolvedVirtualCall_68P12Il2CppObjectS0_iS0_S0_S0_S0_S0_S0_PK10MethodInfo
T5a:__ZN10VertexData8TransferI24GenerateTypeTreeTransferEEvRT_
rXg:__ZL100CanvasRenderer_t261436805_CustomAttributesCacheGenerator_CanvasRenderer_get_absoluteDepth_m606892957P21CustomAttributesCache
DDj:__ZN13Il2CppHashMapIPK19Il2CppGenericMethodP10MethodInfoN6il2cpp8metadata23Il2CppGenericMethodHashENS6_26Il2CppGenericMethodCompareENSt3__29allocatorINS9_4pairIK10KeyWrapperIS2_ES4_EEEEEC2EjRKS7_RKS8_
kEe:_EncryptedData_get_EncryptionAlgorithm_m1301274243
gKh:_EqualityComparer_1_System_Collections_IEqualityComparer_Equals_m1089835085_gshared
f_b:__ZL10CullLightsRK22SceneCullingParametersR11CullResults
_Gd:_Dropdown__cctor_m264401557
cRd:_Array_IndexOf_m2819632474
nyi:_Ray_GetPoint_m2427899009_AdjustorThunk
G6h:_Comparer_1__cctor_m3996541505_gshared
bB:__ZN7mecanim12statemachine20GetBlendTreeConstantERKNS0_13StateConstantEi
Z5b:__Z40GetTemporaryCachePathApplicationSpecificv
Cia:__ZN9GfxDevice16EndAsyncJobFrameEv
ZKd:_Image_get_minWidth_m1809071077
kmj:__ZNK15dense_hashtableINSt3__24pairIK10KeyWrapperINS1_IPK12PropertyInfoP11Il2CppClassEEEjEES9_17ReflectionMapHashIS8_EN14dense_hash_mapIS9_jSD_NS9_14EqualsComparerINS0_8equal_toIS8_EEEENS0_9allocatorISB_EEE9SelectKeyESI_SK_E10test_emptyERK30dense_hashtable_const_iteratorISB_S9_SD_SM_SI_SK_E
SXc:_UNITY_tt_face_load_hhea
jci:_ContextAttribute_IsNewContextOK_m2186905629
p1d:_Convert_ToBase64String_m1936815455
Sk:___syscall3
Vk:___syscall6
Yja:__ZN9GfxDevice15GetNextCPUFenceEv
Xk:___syscall4
Nae:_Decimal_ToString_m759431975
ajf:_Collection_1_System_Collections_IList_get_IsFixedSize_m2204750039_gshared
Nsb:__ZNSt3__26__treeINS_12__value_typeIN4core12basic_stringIcNS2_20StringStorageDefaultIcEEEEPN16MemoryFileSystem4NodeEEENS_19__map_value_compareIS6_SA_NS_4lessIS6_EELb1EEE13stl_allocatorISA_L18MemLabelIdentifier55ELi16EEE7destroyEPNS_11__tree_nodeISA_PvEE
FCd:_ColorBlock_get_fadeDuration_m987725262
f0g:__ZL195U3CMouseDragOutsideRectU3Ec__Iterator1_t2599668326_CustomAttributesCacheGenerator_U3CMouseDragOutsideRectU3Ec__Iterator1_System_Collections_Generic_IEnumeratorU3CobjectU3E_get_Current_m2602955272P21CustomAttributesCache
oih:__Z86RuntimeInvoker_Void_t1841601450_RuntimeObject_Vector3U26_t425862308_RayU26_t3651946800PFvvEPK10MethodInfoPvPS4_
b_f:_CryptographicException__ctor_m2415891459
HMc:__ZNSt3__26__sortIR24RayHitsByDepthComparitorP12RaycastHit2DEEvT0_S5_T_
Pia:__ZN9GfxDevice27UpdateComputeSkinPoseBufferE15ComputeBufferIDP12SkinMeshInfo
N4e:_List_1_AddCollection_m3266731889_gshared
Kzg:__ZL59ITrackingHandler_t2759960940_CustomAttributesCacheGeneratorP21CustomAttributesCache
ll:_emscripten_glShaderBinary
T4f:_DelegatePInvokeWrapper_ThreadStart_t3437517264
Fre:_Array_qsort_TisVector2_t2243707579_TisVector2_t2243707579_m3308480721_gshared
eQd:_Array_InternalArray__RemoveAt_m1126483634
Krb:__ZNK20LocalFileSystemPosix6ExistsERK13FileEntryData
D_h:_InternalEnumerator_1_Dispose_m4038440306_AdjustorThunk
ofh:__Z21RuntimeInvoker_Guid_tPFvvEPK10MethodInfoPvPS4_
QLi:_GUI_CallWindowDelegate_m2603162942
kHf:_DictionaryNodeEnumerator_get_DictionaryNode_m3521889822
by:__ZN7mecanim5human19MaskHasLeftFootGoalERKNS_6bitsetILj70EEE
Kqh:__Z101RuntimeInvoker_Int32_t2071877448_RuntimeObject_Color32_t874517518_Int32_t2071877448_Int32_t2071877448PFvvEPK10MethodInfoPvPS4_
mbd:__Z58Register_UnityEngine_Canvas_GetETC1SupportedCanvasMaterialv
eFb:__ZN17AnimationCurveTplIfE8TransferI18StreamedBinaryReadILb1EEEEvRT_
P8d:_DateTimeOffset_GetHashCode_m3312197462_AdjustorThunk
Ddd:__ZN18UnityConnectClientD2Ev
JJf:_ServicePoint_set_UseNagleAlgorithm_m2618011464
Nej:_il2cpp_set_data_dir
Bii:_Uri_get_IsUnc_m2111738174
aGg:__ZL79Convert_t2607082565_CustomAttributesCacheGenerator_Convert_ToUInt64_m1691869628P21CustomAttributesCache
GKa:__ZN16LevelGameManager23VirtualRedirectTransferER19StreamedBinaryWriteILb0EE
O5a:__Z32TransferEnumWithNameForceIntSizeI14SafeBinaryRead16GfxPrimitiveTypeEvRT_RT0_PKc17TransferMetaFlags
u5h:_DefaultComparer__ctor_m1961329658_gshared
zjg:_ParameterBuilder_get_Attributes_m2421099277
Toh:__Z66RuntimeInvoker_Void_t1841601450_ObjectU26_t597476745_RuntimeObjectPFvvEPK10MethodInfoPvPS4_
okg:_TypeBuilder_IsValueTypeImpl_m1499671481
Hcd:__ZN11UnityEngine15PlatformWrapper30GetGraphicsDriverLibraryStringEv
oTg:__ZL51UIVertex_t1204258818_CustomAttributesCacheGeneratorP21CustomAttributesCache
n5e:_List_1_get_Count_m1752597149_gshared
rwf:_EncryptedPrivateKeyInfo_Decode_m1706190306
ZCh:_ValueCollection_GetEnumerator_m401908452_gshared
BGb:__Z18Transfer_BlittableI18StreamedBinaryReadILb0EELb0E4AABBEvRK29SerializationCommandArgumentsR31RuntimeSerializationCommandInfo
gUi:_AudioListener_ClearExtensionProperties_m2267088681
MK:__ZN16MecanimAnimation24DeleteAnimatedPropertiesERP26IAnimatedPropertyEvaluator
wch:__Z42RuntimeInvoker_CspProviderFlags_t105264000PFvvEPK10MethodInfoPvPS4_
J5d:_Convert_ToUInt16_m1665900934
v_i:_Converter_2_BeginInvoke_m898151494_gshared
hIe:_RegionInfo__ctor_m2058831971
oQb:__Z14DrawGUITextureRK5RectTIfEP7Texture11ColorRGBA32P8Materiali
eTh:_Text_get_supportRichText_m3291105891
IE:__ZN9BlobWrite8TransferI22OffsetPtrArrayTransferIKN4math7_float4EEEEvRT_PKc17TransferMetaFlags
krf:_ReadOnlyCollection_1_get_Count_m336636247_gshared
HNi:_GUIUtility_set_systemCopyBuffer_m3458871692
rJc:__ZNK11b2EdgeShape7RayCastEP15b2RayCastOutputRK14b2RayCastInputRK11b2Transformi
Rdi:_MatchCollection_GetEnumerator_m3516985966
jzc:__ZN9JSONWrite8TransferI4AABBEEvRT_PKc17TransferMetaFlags
z0f:_UTF7Encoding__ctor_m2365939916
GIa:__ZN25MultiBlocksMemoryFileData9SetLengthEy
w3i:_Animator_SetTrigger_m2003713590
Lmi:_DelegatePInvokeWrapper_StateChanged_t2480912210
QLh:_MatEntry__ctor_m3650167335
DKi:_ListPool_1_U3Cs_ListPoolU3Em__0_m441310157_gshared
OCc:__ZN10Collider2D13AwakeFromLoadE17AwakeFromLoadMode
Z$a:__ZNK9Texture2D20GetRuntimeMemorySizeEv
n8f:_TypeInitializationException__ctor_m2993591639
Mje:_Array_InternalArray__IEnumerable_GetEnumerator_TisRefEmitPermissionSet_t2708608433_m3450905212_gshared
tvc:__ZN5Unity9rapidjson13GenericReaderINS0_4UTF8IcEES3_13JSONAllocatorE9ParseTrueILj0ENS0_19GenericStringStreamIS3_EENS0_15GenericDocumentIS3_S4_S4_EEEEvRT0_RT1_
tm:_emscripten_glUniform2iv
ZAg:__ZL46DES_t1353513560_CustomAttributesCacheGeneratorP21CustomAttributesCache
hKe:_Int16_System_IConvertible_ToInt64_m733340257
rFg:__ZL79Convert_t2607082565_CustomAttributesCacheGenerator_Convert_ToSingle_m2156102599P21CustomAttributesCache
hUc:_UNITY_FT_Outline_Transform
Xpc:__Z60Register_UnityEngine_Sprites_DataUtility_Internal_GetMinSizev
h5i:__ZN6il2cpp2vm5Class10GetMethodsEP11Il2CppClassPPv
Cgd:__ZNK25UnityWebRequestJavaScript17GetUploadProgressEv
WVb:__Z30AddDefaultStreamsToMeshBuffersR9GfxDeviceR11MeshBuffersRK16DrawBuffersRange17ShaderChannelMaskS6_
Dqh:__Z86RuntimeInvoker_Int32_t2071877448_Vector2_t2243707579_Vector2_t2243707579_RuntimeObjectPFvvEPK10MethodInfoPvPS4_
Ava:__ZN7ApiGLES17DeleteFramebufferERN2gl6HandleILNS0_10ObjectTypeE9EEES3_
Hki:_Bounds_get_center_m2113902127_AdjustorThunk
vya:__ZN15UniformTFMethod13MapBoneBufferEj
Ezf:_RecordProtocol_SendAlert_m2816808523
J6c:__ZN2UI14CanvasRendererD2Ev
$Rg:__ZL113PlayerConnection_t3517219175_CustomAttributesCacheGenerator_PlayerConnection_ConnectedCallbackInternal_m286884446P21CustomAttributesCache
eSf:_MethodCall_get_LogicalCallContext_m3769562079
csj:__ZN6il2cpp6icalls8mscorlib6System5Array8SetValueEP11Il2CppArrayP12Il2CppObjectS5_
mUe:_SynchronizedReader_Read_m1399666181
fmg:_MonoEvent_get_Name_m2796714646
ALb:__Z9SetupArgviPPKc
i3i:_AnimationOffsetPlayable__ctor_m1644499845
Rrh:__Z53RuntimeInvoker_Void_t1841601450_LabelData_t3712112744PFvvEPK10MethodInfoPvPS4_
gke:_Array_InternalArray__IEnumerable_GetEnumerator_TisHitInfo_t1761367055_m2486283755_gshared
Czd:_PointerEventData_set_worldNormal_m2025727441
FDi:_Transform_INTERNAL_get_worldToLocalMatrix_m2822011810
LAf:_Context_get_SentConnectionEnd_m3114190867
gDa:__ZN12ImmediatePtrI10GameObjectE8TransferI19StreamedBinaryWriteILb0EEEEvRT_
Z_a:__ZN12CubemapArray23VirtualRedirectTransferER24GenerateTypeTreeTransfer
cVi:__ZL24UnresolvedVirtualCall_22P12Il2CppObjectS0_iS0_S0_S0_PK10MethodInfo
gaa:__ZN12FileAccessor4OpenER15FileSystemEntry14FilePermission16FileAutoBehavior
LSa:__ZNSt3__26vectorI4PPtrI6ShaderE13stl_allocatorIS3_L18MemLabelIdentifier53ELi16EEE8__appendEj
DTi:_AudioSource_get_spatializeInternal_m4243931620
WSa:__ZN4PPtrI6ShaderE8TransferI18StreamedBinaryReadILb0EEEEvRT_
xRc:__ZL12PhysxJobFuncPN5physx10PxBaseTaskE
c3a:__ZN23TransformChangeDispatch32QueueTransformChangeIfHasChangedERK15TransformAccess
fzd:_PointerEventData_set_clickTime_m3931922487
l9:__ZN15dense_hashtableINSt3__24pairIKiP4RTTIEEiN11TypeManager27HashFunctorPersistentTypeIDEN14dense_hash_mapIiS4_S7_NS0_8equal_toIiEE13stl_allocatorIS5_L18MemLabelIdentifier7ELi16EEE9SelectKeyESA_SD_E12maybe_shrinkEv
tLe:_NumberFormatter_AppendNonNegativeNumber_m629862866
EZa:__ZNSt3__26vectorINS_4pairIN9ShaderLab16FastPropertyNameEN18UnityPropertySheet11UnityTexEnvEEENS_9allocatorIS6_EEE21__push_back_slow_pathIKS6_EEvRT_
pIa:__ZN15ArchiveReadFile5WriteEyPKvPy
F7h:_ResourceInfo__ctor_m2401359321_AdjustorThunk
lCj:__ZN6il2cpp2os26LibraryNamePrefixAndSuffixC2EPKcS3_
Iqe:_Array_InternalArray__set_Item_TisMonoResource_t3127387157_m732733855_gshared
bJi:_UnityEvent_1_Invoke_m1599856953_gshared
x_d:_Hashtable__ctor_m392789568
w2f:_UTF7Encoding__cctor_m4192443836
B:tempValue
J4b:__Z29StdTemplateConversionFunctionIaiEbPvR14SafeBinaryRead
vni:_Display_get_systemHeight_m3140485477
k2e:_List_1_Insert_m4101600027_gshared
lKe:_Int16_System_IConvertible_ToSingle_m3277935657
Z5:__Z29scripting_class_from_fullnamePKcS0_S0_
cFi:_Vector3_get_sqrMagnitude_m1445517847_AdjustorThunk
RNh:_Raycast3DCallback_Invoke_m2271859924
CB:__ZN26AnimatorControllerPlayable18DeallocateBindingsEv
rU:__ZN11AudioSource19CreateOpenALRolloffEfff
FYc:_UNITY_FT_Stream_ReadAt
c8g:__Z38RuntimeInvoker_MemberTypes_t3343038963PFvvEPK10MethodInfoPvPS4_
vxh:_Enumerator_get_CurrentKey_m2387752419_AdjustorThunk
Y8i:__ZN15dense_hashtableINSt3__24pairIK10KeyWrapperIN6il2cpp5utils13dynamic_arrayIPK10Il2CppTypeLj4EEEEPFvvEEESA_NS3_8metadata19Il2CppSignatureHashEN14dense_hash_mapISA_SD_SG_NSA_14EqualsComparerINSF_22Il2CppSignatureCompareEEENS0_9allocatorISE_EEE9SelectKeyESK_SM_E9set_valueEPSE_RKSE_
dhj:_RaycastHit_get_point_m3350410423
soi:_UnityEventBase_FindMethod_m2780816114
jIe:_RegionInfo__ctor_m997788172
r8f:_UInt16_System_IConvertible_ToBoolean_m887616848
dV:__ZN11AudioModule22CreateAudioClipFromWWWEP10IWWWStreamPKcbbi
l1f:_StringBuilder_set_Length_m3039225444
Wnh:__Z37RuntimeInvoker_AspectMode_t1166448724PFvvEPK10MethodInfoPvPS4_
Vif:_Collection_1_System_Collections_IList_Contains_m3870109702_gshared
ihe:_Array_InternalArray__ICollection_Contains_TisRaycastResult_t21186376_m3188614988_gshared
s6d:_CultureAwareComparer_GetHashCode_m3681260951
S8c:__Z13RegisterClassIN2UI11CanvasGroupEEvv
dKg:__ZL90Application_t354826772_CustomAttributesCacheGenerator_Application_get_platform_m1727035749P21CustomAttributesCache
gKi:_U3CStartU3Ec__Iterator0__ctor_m951808111_gshared
f6b:__ZN6prcoreL11inner_clearILj4EEEvPhjjj
rf:_emscripten_glClear
_Nh:_Selectable__ctor_m1440593935
eXi:__ZL25UnresolvedVirtualCall_132P12Il2CppObject17Color_t2020392075faaaPK10MethodInfo
uda:__ZNK8Playable6HandleEv
cTj:___cxa_guard_abort
ieg:_CustomAttributeTypedArgument_t1498197914_marshal_pinvoke_back
i8:__ZN14MessageHandler28MessageIDToMessageIdentifierEi
AIf:_HttpRequestCreator_Create_m3607509610
JVg:__ZL50GUISkin_t1436893342_CustomAttributesCacheGeneratorP21CustomAttributesCache
n6a:__ZNK11SpriteAtlas20GetRuntimeRenderDataEPK6Sprite
Gbf:_List_1_Shift_m3824049528_gshared
ZVf:_ArrayFixupRecord__ctor_m3659990982
XAf:_Context_get_RandomCS_m3946020109
lqg:__ZL72IntPtr_t_CustomAttributesCacheGenerator_IntPtr_op_Inequality_m3044532593P21CustomAttributesCache
kGd:_Dropdown_get_onValueChanged_m3334401942
HKj:__ZN6il2cpp2vm10WaitHandle19NewManualResetEventEb
Lof:_ReadOnlyCollection_1_System_Collections_IList_Contains_m3707723158_gshared
pUc:__ZN20TextRenderingPrivate15DynamicFontData36GetFaceForCharacterIfAvailableInFontERKNS_7FontRefERK13dynamic_arrayI4PPtrIN13TextRendering4FontEELj4EEj
oUi:_AudioExtensionManager_GetReadyToPlay_m3272224102
yz:__ZN7mecanim14ValueArrayCopyILb0EEEvPKNS_10ValueArrayEPS1_
rM:__Z51Register_UnityEngine_Animator_get_hasBoundPlayablesv
l$i:_Nullable_1_ToString_m1238126148_AdjustorThunk
jVg:__ZL87GUIStyle_t1799908754_CustomAttributesCacheGenerator_GUIStyle_get_fixedWidth_m2528231637P21CustomAttributesCache
Moi:_UnityEventBase_UnityEngine_ISerializationCallbackReceiver_OnBeforeSerialize_m3933203561
Id:emscriptenWebGLGetUniform
yo:FUNCTION_TABLE_iiiiiiiiiii
p$a:__Z32TransferEnumWithNameForceIntSizeI14SafeBinaryRead13TextureFormatEvRT_RT0_PKc17TransferMetaFlags
H0g:__ZL86Scrollbar_t3248359358_CustomAttributesCacheGenerator_Scrollbar_ClickRepeat_m3403943364P21CustomAttributesCache
M$b:__ZL10CleanUpJobP20CullingGroupsJobData
NVd:_Char_CompareTo_m3044885427_AdjustorThunk
qQe:_FileStream_GetSecureFileName_m508045384
VVb:__Z20IsRunningNativeTestsv
Y0h:_InternalEnumerator_1_System_Collections_IEnumerator_get_Current_m2035754659_AdjustorThunk
vcb:__ZN11TimeManager23VirtualRedirectTransferER17RemapPPtrTransfer
fQb:__ZN13RenderManager15BatchModeUpdateEv
J$i:_Predicate_1_EndInvoke_m973058386_gshared
WMg:__ZL52LayerMask_t3188175821_CustomAttributesCacheGeneratorP21CustomAttributesCache
v5a:__ZN14SafeBinaryRead21TransferSTLStyleArrayI13dynamic_arrayI8Vector2fLj4EEEEvRT_17TransferMetaFlags
iDa:__ZN17PersistentManager51InstanceIDToLocalSerializedObjectIdentifierInternalEiR31LocalSerializedObjectIdentifier
GHc:__ZN10ClipperLib7Clipper15SetWindingCountERNS_5TEdgeE
GQ:__ZL16FMOD_ErrorString11FMOD_RESULT_658
wog:_StrongNameKeyPair_System_Runtime_Serialization_IDeserializationCallback_OnDeserialization_m2330221363
A1c:_UNITY_FT_Create_Class_cff_services
s5h:_DefaultComparer__ctor_m1661558765_gshared
ld:_glVertexAttribIPointer
rbg:_UnhandledExceptionEventHandler_EndInvoke_m2207457167
rQg:__ZL114ManagedStreamHelpers_t1667331974_CustomAttributesCacheGenerator_ManagedStreamHelpers_ManagedStreamSeek_m4230262206P21CustomAttributesCache
Cjd:_HMAC_set_HashName_m457235014
Qfc:__ZNK6Sprite10GetPaddingE20SpriteRenderDataMode
k4i:__ZN6il2cpp2vm5Class11GetPtrClassEPK10Il2CppType
qge:_Array_InternalArray__ICollection_Contains_TisTableRange_t2011406615_m605506746_gshared
DDh:_Dictionary_2_Add_m1296007576_gshared
r5d:_Decimal_op_Explicit_m729046406
l_f:_CryptoConfig_CreateFromName_m2169102076
sId:_Graphic_OnEnable_m2900261811
o_f:_CryptographicUnexpectedOperationException__ctor_m3552441227
RTb:__ZN14qsort_internal5QSortIP15RODataDepthPassi17ROSorterDepthPassEEvT_S4_T0_T1_
xXd:_ArrayListWrapper_Clear_m321161741
sNd:_InputField_LineDownCharacterPosition_m2690468785
EYc:_UNITY_ft_glyphslot_alloc_bitmap
Rse:_Array_Sort_TisVector2_t2243707579_TisVector2_t2243707579_m2582252549_gshared
rag:_UInt64_System_IConvertible_ToDouble_m2828923873
M7i:__ZN15dense_hashtableI10KeyWrapperIPK17Il2CppGenericInstES4_N6il2cpp8metadata21Il2CppGenericInstHashEN14dense_hash_setIS4_S7_NS4_14EqualsComparerINS6_24Il2CppGenericInstCompareEEENSt3__29allocatorIS4_EEE8IdentityESB_SE_E16reset_thresholdsEv
E6e:_List_1_System_Collections_IList_set_Item_m1129584681_gshared
c4f:_SendOrPostCallback__ctor_m107067079
$Zc:_ft_raster1_render
Mrc:__Z47Register_UnityEngine_Mesh_RecalculateBoundsImplv
v2e:_List_1_set_Capacity_m491101164_gshared
ORj:__ZNKSt3__221__basic_string_commonILb1EE20__throw_length_errorEv
K1f:_StringBuilder_Insert_m1733097906
J6h:_Comparer_1__ctor_m1157133632_gshared
sFf:_SslStreamBase_get_HashStrength_m480059173
nwa:__ZN18GfxFramebufferGLES13ReadbackImageER14ImageReferenceiiiiii
Xvc:__ZN5Unity9rapidjson6WriterI16TempBufferWriterNS0_4UTF8IcEES4_13JSONAllocatorE11WriteStringEPKcj
NBh:_ValueCollection_System_Collections_Generic_ICollectionU3CTValueU3E_Clear_m3271993638_gshared
_hh:__Z35RuntimeInvoker_Position_t3781184359PFvvEPK10MethodInfoPvPS4_
a1d:_Enumerator_MoveNext_m1419609883
gQ:__ZN4FMOD7Channel19setReverbPropertiesEPK29FMOD_REVERB_CHANNELPROPERTIES
I7:__ZN13MonoBehaviour22GetScriptFullClassNameEv
cgj:_il2cpp_object_get_class
uvg:__ZL111DerivedType_t1016359113_CustomAttributesCacheGenerator_DerivedType_MakeGenericType_m742223168____typeArguments0P21CustomAttributesCache
eyi:_RangeInt_get_end_m480861812
grf:_ReadOnlyCollection_1_Contains_m1816350632_gshared
JIf:_ServicePointManager_FindServicePoint_m3137356168
xJb:__ZN13MonoBehaviour9CallAwakeEv
Coi:_UnityEvent__ctor_m3488719202
OVa:__ZN20SphericalHarmonicsL211AddWeightedERKS_f
$Yg:__ZL106PointerEventData_t1599784723_CustomAttributesCacheGenerator_PointerEventData_set_pressPosition_m2094137883P21CustomAttributesCache
Uzd:_PointerInputModule_GetPointerData_m1695674453
zch:__Z90RuntimeInvoker_Void_t1841601450_RuntimeObject_RuntimeObject_RuntimeObject_SByte_t454417549PFvvEPK10MethodInfoPvPS4_
Myb:__Z19TransferField_ArrayI17RemapPPtrTransfer27Converter_SimpleNativeClassI8GUIStyleEEvRK23StaticTransferFieldInfoR31RuntimeSerializationCommandInfoRT0_
d5:__ZL22StaticInitializeShaderPv
n6d:_Convert_ToUInt64_m345450801
o$i:_Predicate_1_BeginInvoke_m2559992383_gshared
Dwc:__ZN9JSONWrite8TransferI10ColorRGBAfEEvRT_PKc17TransferMetaFlags
K8e:_List_1_Find_m1270109362_gshared
c8:__Z25scripting_method_get_name18ScriptingMethodPtr
dxb:__Z19TransferField_ArrayI14SafeBinaryRead16Converter_StringEvRK23StaticTransferFieldInfoR31RuntimeSerializationCommandInfoRT0_
hRj:_rename
gJj:_GC_exit_check
gYe:_NotSupportedException__ctor_m3232764727
Ds:__ZN7mecanim9animation9DenseClip8TransferI14SafeBinaryReadEEvRT_
aIf:_TypeConverterAttribute_Equals_m2330345916
yhh:__Z90RuntimeInvoker_Boolean_t3825574718_Int32_t2071877448_Int32U26_t455636984_Int32_t2071877448PFvvEPK10MethodInfoPvPS4_
gYi:__ZL25UnresolvedVirtualCall_188P12Il2CppObjectiPK10MethodInfo
D6:__Z20UnlockObjectCreationv
OMg:__ZL89Input_t1785128008_CustomAttributesCacheGenerator_Input_INTERNAL_CALL_GetTouch_m1374677231P21CustomAttributesCache
w$h:_InternalEnumerator_1_System_Collections_IEnumerator_get_Current_m1038263751_gshared
Rih:__Z54RuntimeInvoker_Int32_t2071877448_LayerMask_t3188175821PFvvEPK10MethodInfoPvPS4_
SPe:_MonoIO_CreateDirectory_m379525469
y3b:__ZNSt3__26vectorINS_4pairIN4core12basic_stringIcNS2_20StringStorageDefaultIcEEEES6_EE13stl_allocatorIS7_L18MemLabelIdentifier38ELi16EEE6insertENS_11__wrap_iterIPKS7_EERSD_
_hc:__ZN8Material28ApplyMaterialPropertyDrawersEv
zE:__ZN9BlobWrite8TransferI22OffsetPtrArrayTransferI9OffsetPtrIN7mecanim12statemachine18StateMachineMemoryEEEEEvRT_PKc17TransferMetaFlags
zhd:__ZNK14TransportProtoI12HeaderHelper15DownloadHandler13UploadHandler14ResponseHelperE13IsSynchronousEv
OWc:_UNITY_ft_smooth_renderer_class_pic_free
o9e:_List_1_System_Collections_IList_Remove_m3763718607_gshared
hf:_emscripten_glStencilOpSeparate
xtd:_String_Concat_m2000667605
v4i:__ZN24dense_hashtable_iteratorINSt3__24pairIK10KeyWrapperIPK22Il2CppGenericParameterEP11Il2CppClassEES6_N6il2cpp5utils11PointerHashIS4_EEN14dense_hash_mapIS6_S9_SE_NS6_14EqualsComparerINS0_8equal_toIS5_EEEENS0_9allocatorISA_EEE9SelectKeyESJ_SL_E30advance_past_empty_and_deletedEv
vEj:__ZN6il2cpp2vm6String8NewUtf16EPKDsi
tWg:__ZL61Tile_t429716126_CustomAttributesCacheGenerator_m_ColliderTypeP21CustomAttributesCache
pBj:__ZN6il2cpp2os10ThreadImpl12QueueUserAPCEPFvPvES2_
$M:__Z32TransferEnumWithNameForceIntSizeI14SafeBinaryReadN10SampleClip17CompressionFormatEEvRT_RT0_PKc17TransferMetaFlags
tdd:__ZN22BaseUnityConnectClient10QueueEventERN11UnityEngine15CloudWebService17CloudServiceEventEPKcjb
Cnh:__Z71RuntimeInvoker_Bounds_t3033363703_RuntimeObject_Matrix4x4U26_t266301477PFvvEPK10MethodInfoPvPS4_
uwe:_ExecuteEvents_GetEventHandler_TisRuntimeObject_m3333041576_gshared
I6e:__ZN23InterfaceActionInvoker2IP28UICharInfoU5BU5D_t2749705857iE6InvokeEjP11Il2CppClassP12Il2CppObjectS1_i
sFi:_Vector4__ctor_m3879980823_AdjustorThunk
Knd:_SHA384Managed_unpackWord_m2501009050
cWc:_UNITY_FT_Hypot
rSd:_BitConverter_ToInt64_m1329623425
y9b:__ZN8RendererC2E12RendererType18MemLabelIdentifier18ObjectCreationMode
ICg:__ZL95ASCIIEncoding_t3022927988_CustomAttributesCacheGenerator_ASCIIEncoding_GetByteCount_m1396020051P21CustomAttributesCache
pfj:_il2cpp_class_is_abstract
Bf:_emscripten_glGetError
Enj:__ZN15dense_hashtableINSt3__24pairIK10KeyWrapperIPK14Il2CppAssemblyEPK22Il2CppMonoAssemblyNameEES6_N6il2cpp5utils11PointerHashIS4_EEN14dense_hash_mapIS6_SA_SF_NS6_14EqualsComparerINS0_8equal_toIS5_EEEENS0_9allocatorISB_EEE9SelectKeyESK_SM_E14squash_deletedEv
m5g:__Z70RuntimeInvoker_Boolean_t3825574718_RuntimeObject_UInt64U26_t1611942494PFvvEPK10MethodInfoPvPS4_
TQ:__Z14FMOD_FILE_SeekPvjS_
hSf:_MethodCall_get_Properties_m1893707917
Cqg:__ZL72Enum_t2459695545_CustomAttributesCacheGenerator_Enum_ToObject_m604645223P21CustomAttributesCache
Yyh:_ShimEnumerator_get_Entry_m2387156530_gshared
Tqg:__ZL82RuntimeArray_CustomAttributesCacheGenerator_Array_SetValue_m2421438042____indices1P21CustomAttributesCache
w9i:__ZN14dense_hash_mapI10KeyWrapperIN6il2cpp5utils13dynamic_arrayIPK10Il2CppTypeLj4EEEEPFvvENS1_8metadata19Il2CppSignatureHashENS8_14EqualsComparerINSB_22Il2CppSignatureCompareEEENSt3__29allocatorINSG_4pairIKS8_SA_EEEEEC2EjRKSC_RKSF_
VHg:__ZL87BigInteger_t925946153_CustomAttributesCacheGenerator_BigInteger_op_Equality_m2683055762P21CustomAttributesCache
OXi:__ZL25UnresolvedVirtualCall_168P12Il2CppObject19Vector3_t2243707580PK10MethodInfo
P0b:__ZNK13RenderTexture32CalculateNeedsInvertedProjectionEv
H5b:__ZN10systeminfo18GetOperatingSystemEv
Jf:emscriptenWebGLGet
vaa:__Z19CanReplaceComponentRN5Unity9ComponentEPKNS_4TypeEPN4core12basic_stringIcNS5_20StringStorageDefaultIcEEEE
Srg:__ZL77RuntimeArray_CustomAttributesCacheGenerator_Array_ConstrainedCopy_m1922927602P21CustomAttributesCache
Yac:__ZN12CubemapArray11InitTextureEiii13TextureFormatb
D7e:_List_1_GrowIfNeeded_m2433342921_gshared
Xhc:__Z17GetSceneBuildInfoRKN4core12basic_stringIcNS_20StringStorageDefaultIcEEEEiR14SceneBuildInfo
KJa:__ZNK15Lz4Decompressor20DecompressStreamInitEPPv
wkj:__ZN24dense_hashtable_iteratorINSt3__24pairIK10KeyWrapperIPK10Il2CppTypeEjEES6_N6il2cpp8metadata14Il2CppTypeHashEN14dense_hash_mapIS6_jSB_NS6_14EqualsComparerINSA_26Il2CppTypeEqualityComparerEEENS0_9allocatorIS8_EEE9SelectKeyESF_SH_E30advance_past_empty_and_deletedEv
Rff:_Collection_1_set_Item_m3803272710_gshared
nng:_MonoMethodInfo_t3646562144_marshal_pinvoke_cleanup
SLf:_X509Certificate2_get_SignatureAlgorithm_m3069898012
zIf:_HttpRequestCreator__ctor_m2513916021
zNe:_Int64_System_IConvertible_ToSingle_m1678482180
gF:__ZN7mecanim5human13HumanFixTwistEPKNS0_5HumanEPNS_8skeleton13SkeletonPoseTIN4math4trsXEEES9_iiRKf
GWb:__ZL24AssignProjectorQueuesJobP30AssignProjectorQueuesJobHeader
O5f:_TimeSpan_get_Hours_m3804628138
BHd:_FontData_set_alignByGeometry_m2819509290
Cyj:__ZN14dense_hash_mapI10KeyWrapperIP12Il2CppObjectEN6il2cpp2gc9CachedCCWENS4_5utils11PointerHashIS1_EENS3_14EqualsComparerINSt3__28equal_toIS2_EEEENSB_9allocatorINSB_4pairIKS3_S6_EEEEEC2EjRKS9_RKSE_
_ei:_Regex__ctor_m3250610064
c9i:__ZN15dense_hashtableINSt3__24pairIK10KeyWrapperIN6il2cpp5utils13dynamic_arrayIPK10Il2CppTypeLj4EEEEPFvvEEESA_NS3_8metadata19Il2CppSignatureHashEN14dense_hash_mapISA_SD_SG_NSA_14EqualsComparerINSF_22Il2CppSignatureCompareEEENS0_9allocatorISE_EEE9SelectKeyESK_SM_E4swapERSP_
Wnb:__ZN9ShaderLab20SerializedSubProgram14SetConstBufferEPKci
dHe:_ArgumentNullException__ctor_m911049464
Klg:_TargetParameterCountException__ctor_m2760108938
CTf:_SoapAttribute_SetReflectionObject_m2774156012
Nsf:_Comparison_1_Invoke_m345024424_gshared
W$c:_cf2_getStdVW
Tpf:_ReadOnlyCollection_1_System_Collections_IList_Insert_m3936197025_gshared
Yde:_EventHandler_BeginInvoke_m3027583606
M1:__Z40DebugStringToFilePostprocessedStacktraceRK21DebugStringToFileData
pBc:__Z29Transfer_Blittable_ArrayFieldI8JSONReadjEvRT_R9ArrayInfoRK23StaticTransferFieldInfo
cci:_ContextAttribute__ctor_m4006843177
y0h:_InternalEnumerator_1_get_Current_m314017974_AdjustorThunk
pg:__setLetterbox
wRe:_MemoryStream__ctor_m1043059966
RZa:__ZNSt3__26__treeINS_12__value_typeIN9ShaderLab16FastPropertyNameEfEENS_19__map_value_compareIS3_S4_NS_4lessIS3_EELb1EEENS_9allocatorIS4_EEE12__find_equalIS3_EERPNS_16__tree_node_baseIPvEENS_21__tree_const_iteratorIS4_PNS_11__tree_nodeIS4_SE_EEiEESH_RKT_
Ctg:__ZL57CollectionBase_t1101587467_CustomAttributesCacheGeneratorP21CustomAttributesCache
dTf:__ZN21InterfaceFuncInvoker3IP12Il2CppObjectP6Type_t28StreamingContext_t1417235061PS1_E6InvokeEjP11Il2CppClassS1_S3_S4_S5_
z8a:__ZNSt3__26vectorI17BlendShapeChannelNS_9allocatorIS1_EEE6assignINS_11__wrap_iterIPS1_EEEENS_9enable_ifIXaasr21__is_forward_iteratorIT_EE5valuesr16is_constructibleIS1_NS_15iterator_traitsISA_E9referenceEEE5valueEvE4typeESA_SA_
BOd:_LayoutElement_set_preferredWidth_m3072758716
XNb:__Z12SetGfxDeviceP9GfxDevice
BKf:_AsnEncodedData_ToString_m724151831
Yni:_Object_CompareBaseObjects_m1461253683
A5b:__ZN11TimeManager11GetRealtimeEv
Mef:_Collection_1_System_Collections_IList_get_IsFixedSize_m2408637569_gshared
o3f:_UTF8Encoding_GetByteCount_m1469571127
FIj:_GC_print_block_list
lR:__ZN29AudioEffectInternalDefinitionC2EP26UnityAudioEffectDefinitionb
Ulg:_MonoMethodInfo_GetDeclaringType_m4186531677
aUf:_SoapTypeAttribute_SetReflectionObject_m1566293812
LHh:_DefaultComparer__ctor_m418731767_gshared
nH:__ZN4PPtrI6AvatarE8TransferI18StreamedBinaryReadILb0EEEEvRT_
YQi:_Enumerator_System_Collections_IEnumerator_Reset_m2573763156_AdjustorThunk
vVf:_RemotingServices_CreateClientProxy_m1631035355
Xag:_UInt64_ToString_m2892887310
Oqa:_stbir_resize
KDj:__ZN15dense_hashtableINSt3__24pairIK10KeyWrapperIPK19Il2CppGenericMethodEP10MethodInfoEES6_N6il2cpp8metadata23Il2CppGenericMethodHashEN14dense_hash_mapIS6_S9_SD_NS6_14EqualsComparerINSC_26Il2CppGenericMethodCompareEEENS0_9allocatorISA_EEE9SelectKeyESH_SJ_EC2ERKSM_j
emj:__ZN15dense_hashtableINSt3__24pairIK10KeyWrapperINS1_IPK12PropertyInfoP11Il2CppClassEEEjEES9_17ReflectionMapHashIS8_EN14dense_hash_mapIS9_jSD_NS9_14EqualsComparerINS0_8equal_toIS8_EEEENS0_9allocatorISB_EEE9SelectKeyESI_SK_E5clearEv
I9a:__ZN4PPtrI4MeshE8TransferI14SafeBinaryReadEEvRT_
CLc:__ZN24b2ChainAndCapsuleContact6CreateEP9b2FixtureiS1_iP16b2BlockAllocator
MIa:__Z37ReadDirectoryInfo_UnityWebAndUnityRawR12FileAccessorRKN20ArchiveStorageHeader6HeaderERNS1_13DirectoryInfoE
Dje:_Array_InternalArray__IEnumerable_GetEnumerator_TisInt64_t909078037_m1219751804_gshared
O4:__ZNSt3__26__treeINS_12__value_typeIPKciEENS_19__map_value_compareIS3_S4_15compare_tstringIS3_ELb1EEENS_9allocatorIS4_EEE7destroyEPNS_11__tree_nodeIS4_PvEE
usg:__ZL96RuntimeTypeHandle_t2330101084_CustomAttributesCacheGenerator_RuntimeTypeHandle_Equals_m452760426P21CustomAttributesCache
TGh:_Dictionary_2_ToTValue_m1381983709_gshared
_Xe:_MulticastDelegate_KPM_m1592985119
IYi:__ZL25UnresolvedVirtualCall_216P12Il2CppObjectiPK10MethodInfo
Zdd:__ZN13dynamic_arrayIN4core12basic_stringIcNS0_20StringStorageDefaultIcEEEELj4EE6assignEPKS4_S7_
Glf:_Collection_1_ConvertItem_m3941916604_gshared
fHa:__ZN15dense_hashtableINSt3__24pairIKN4core12basic_stringIcNS2_20StringStorageDefaultIcEEEEP20ArchiveStorageReaderEES6_20StringHash32FunctionIS6_EN14dense_hash_mapIS6_S9_SC_NS0_8equal_toIS6_EE13stl_allocatorISA_L18MemLabelIdentifier55ELi16EEE9SelectKeyESF_SI_E5clearEv
C7c:__ZN2UI6Canvas26MarkAllNestedCanvasesDirtyEv
Nvj:__ZN6il2cpp2vm12ReboxIfBoxedEP14Il2CppIUnknownP11Il2CppClass
_Kb:__ZN25PathNamePersistentManagerD2Ev
w6:__ZN17PersistentManager48IntegrateObjectAndUnlockIntegrationMutexInternalEi
Bqf:_ReadOnlyCollection_1_System_Collections_IList_get_IsReadOnly_m3872065502_gshared
$vg:__ZL112TypeBuilder_t3308873219_CustomAttributesCacheGenerator_TypeBuilder_MakeGenericType_m4282022646____typeArguments0P21CustomAttributesCache
Pga:__ZZ29InitializeSortingGroupManagerPvEN44PostLateUpdateSortingGroupsUpdateRegistrator7ForwardEv
rp:__ZN6Object12SetHideFlagsENS_9HideFlagsE
SKc:__ZN9b2Fixture11SynchronizeEP12b2BroadPhaseRK11b2TransformS4_
zYj:_emscripten_glGetFramebufferAttachmentParameteriv__wrapper
FQb:__ZN13RendererScene15InitializeUmbraEv
HUa:__Z28CalculateGlobalMatrixInverse23TransformAccessReadOnly
Dsg:__ZL60SecurityAttribute_t2016950496_CustomAttributesCacheGeneratorP21CustomAttributesCache
Pzd:_PointerEventData_ToString_m1218584363
iVd:_Char_System_IConvertible_ToChar_m1489061093_AdjustorThunk
E2f:_UTF7Encoding_GetCharCount_m2589913583
Qgj:_AnalyticsSessionInfo_CallSessionStateChanged_m2293069762
mSe:_MemoryStream_CalculateNewCapacity_m3533542025
ANj:__ZN6il2cpp6icalls8mscorlib6System6Object7GetTypeEP12Il2CppObject
Eii:_Uri_Reduce_m2577728307
m6f:_TimeSpan_Equals_m4102942751_AdjustorThunk
MBh:_ValueCollection_System_Collections_Generic_ICollectionU3CTValueU3E_Add_m1903672223_gshared
Pgd:__ZN12HeaderHelper14SetUnvalidatedERKN4core12basic_stringIcNS0_20StringStorageDefaultIcEEEES6_b
mN:__ZN4FMOD6SoundI7releaseEv
lab:__ZN14SpriteRenderer13AwakeFromLoadE17AwakeFromLoadMode
oAd:_MouseButtonEventData__ctor_m618518000
oJa:__ZN10MemoryFile9SetLengthEy
gK:__ZN7mecanim10ValueArray8TransferI19StreamedBinaryWriteILb0EEEEvRT_
RAb:__ZN5RectTIiE8TransferI24GenerateTypeTreeTransferEEvRT_
OFc:__ZNK15b2RevoluteJoint10GetAnchorBEv
P1a:__ZN14SafeBinaryRead21TransferSTLStyleArrayI13dynamic_arrayI7Hash128Lj8EEEEvRT_17TransferMetaFlags
ZJb:__Z28scripting_class_is_interface17ScriptingClassPtr
Fh:_glTexStorage2D
NXa:__ZNK9ShaderLab10SubProgram14EnsureCompiledEv
p4g:__Z79RuntimeInvoker_Boolean_t3825574718_RuntimeObject_RuntimeObject_SByte_t454417549PFvvEPK10MethodInfoPvPS4_
TXf:_ObjectManager_RecordFixup_m3572285566
uug:__ZL55DaylightTime_t3800227331_CustomAttributesCacheGeneratorP21CustomAttributesCache
Z$d:_SortedList_InitTable_m460350503
U7:__Z18BuildScriptClassId17ScriptingClassPtr
YYh:_InternalEnumerator_1_get_Current_m4279678504_AdjustorThunk
uq:__ZNK16LevelGameManager7GetNameEv
Oef:_Collection_1_System_Collections_IList_get_Item_m2415649949_gshared
oig:_ILTokenInfo_t149559338_marshal_pinvoke_cleanup
gIa:__ZL31DeleteLastPathNameComponentImplRKN4core12basic_stringIcNS_20StringStorageDefaultIcEEEEPKc
s7b:__Z13RegisterClassI18DelayedCallManagerEvv
Hdd:__ZN18UnityConnectClient15GetCloudServiceEv
_yb:__Z18Transfer_BlittableI24GenerateTypeTreeTransferLb0EiEvRK29SerializationCommandArgumentsR31RuntimeSerializationCommandInfo
iSi:_EndingTrigger__ctor_m287905536
gLc:__ZN15b2CircleContact6CreateEP9b2FixtureiS1_iP16b2BlockAllocator
TJb:__ZL28SerializationCommandGroupForRK31TransferFunctionScriptingTraits17ScriptingClassPtr17ScriptingFieldPtrRK20CoreScriptingClasses
pMa:__ZN10TagManager32RegisterDefaultTagsAndLayerMasksEv
vKi:_TweenRunner_1_StopTween_m2135918118_gshared
MCh:_ValueCollection_get_Count_m4142113966_gshared
jaj:__ZN15dense_hashtableINSt3__24pairIK10KeyWrapperIPKcEP11Il2CppClassEES5_N6il2cpp5utils11StringUtils12StringHasherIS4_EEN14dense_hash_mapIS5_S8_SE_NS5_14EqualsComparerINSB_13VmStringUtils21CaseSensitiveComparerEEENS0_9allocatorIS9_EEE9SelectKeyESJ_SL_E15insert_noresizeERKS9_
j4f:_SynchronizationLockException__ctor_m549086841
VWd:_ArrayList_InsertRange_m1478230997
ana:__ZN4gles8InitCapsEP7ApiGLESP12GraphicsCapsR16GfxDeviceLevelGL
gra:__ZN6prcore14BlitImageFloatERK14ImageReferenceRS0_NS0_8BlitModeE
ORd:_Swapper_EndInvoke_m677693941
vSa:__Z24CalculateVertexLightDataRK15SharedLightDataR14GfxVertexLight
Yli:_Color_get_black_m455352838
ni:_glEnable
mib:__ZN15dense_hashtableINSt3__24pairIKiiEEi21InstanceIDHashFunctorN14dense_hash_mapIiiS4_NS0_8equal_toIiEE13stl_allocatorIS3_L18MemLabelIdentifier1ELi16EEE9SelectKeyES7_SA_E12maybe_shrinkEv
JXa:__ZNK9ShaderLab7Program28BeginReadUnsupportedVariantsEv
oSb:__ZNK25CameraStackRenderingState21GetImageEffectTextureEb
MYf:_RuntimeMethodHandle__ctor_m2437574937_AdjustorThunk
zfb:__ZNSt3__26vectorIN30RuntimeInitializeOnLoadManager9ClassInfoE13stl_allocatorIS2_L18MemLabelIdentifier13ELi16EEE7reserveEj
Nqg:__ZL72RuntimeArray_CustomAttributesCacheGenerator_Array_get_Length_m1498215565P21CustomAttributesCache
Qwc:__Z35Transfer_Blittable_FixedBufferFieldI9JSONWriteiEvRK29SerializationCommandArgumentsR31RuntimeSerializationCommandInfo
I8f:_UInt16_System_IConvertible_ToInt64_m2835280558_AdjustorThunk
FXg:__ZL53g_UnityEngine_Assembly_CustomAttributesCacheGeneratorP21CustomAttributesCache
kGi:_Predicate_1_BeginInvoke_m3926587117_gshared
oL:__ZZN8Animator15InitializeClassEvEN31FunctorImpl_427kDidModifyAvatar4CallEPviR11MessageData
kof:_ReadOnlyCollection_1_System_Collections_IList_Remove_m2779327941_gshared
uB:__ZN26AnimatorControllerPlayable17ProcessRootMotionEP35AnimationPlayableEvaluationConstantP32AnimationPlayableEvaluationInputP33AnimationPlayableEvaluationOutput
H4g:__Z94RuntimeInvoker_Boolean_t3825574718_Int32_t2071877448_SByte_t454417549_ExceptionU26_t1467204777PFvvEPK10MethodInfoPvPS4_
DFd:_DefaultControls_CreateToggle_m1568873127
abf:_List_1__cctor_m1022807427_gshared
qtg:__ZL63KeyNotFoundException_t1722175009_CustomAttributesCacheGeneratorP21CustomAttributesCache
EGh:_Dictionary_2_InitArrays_m2270022740_gshared
C1d:_Convert_ToBoolean_m2188088811
hcd:__ZN11UnityEngine7Connect15DeviceInfoEvent16CollectExtraInfoEv
K7i:__ZN15dense_hashtableI10KeyWrapperIPK17Il2CppGenericInstES4_N6il2cpp8metadata21Il2CppGenericInstHashEN14dense_hash_setIS4_S7_NS4_14EqualsComparerINS6_24Il2CppGenericInstCompareEEENSt3__29allocatorIS4_EEE8IdentityESB_SE_EC2ERKSH_j
V1f:_UnicodeEncoding_GetChars_m3765282346
mOe:_IntPtr__ctor_m4104029105
iAg:__ZL114BinaryFormatter_t1866979105_CustomAttributesCacheGenerator_BinaryFormatter_get_DefaultSurrogateSelector_m219714691P21CustomAttributesCache
K1h:_InternalEnumerator_1_System_Collections_IEnumerator_get_Current_m771161214_AdjustorThunk
_We:_MonoType_get_attributes_m1493788675
jKa:__ZN20ArchiveStorageReader10InitializeER15FileSystemEntryyb
lRj:_atol
k4d:_Convert_ToDouble_m4236754739
xEf:_SslClientStream_get_PrivateKeyCertSelectionDelegate_m3715949545
e7i:__ZN15dense_hashtableINSt3__24pairIK10KeyWrapperIPKcEP11Il2CppClassEES5_N6il2cpp5utils11StringUtils12StringHasherIS4_EEN14dense_hash_mapIS5_S8_SE_NS5_14EqualsComparerINSB_13VmStringUtils21CaseSensitiveComparerEEENS0_9allocatorIS9_EEE9SelectKeyESJ_SL_EC2EjRKSE_RKSJ_RKSN_
TGd:_Dropdown_CreateItem_m2702141380
Nrf:_ReadOnlyCollection_1_IndexOf_m224962127_gshared
Ztg:__ZL48Stack_t1043988394_CustomAttributesCacheGeneratorP21CustomAttributesCache
Do:FUNCTION_TABLE_viifi
dqh:__Z59RuntimeInvoker_Boolean_t3825574718_ResourceInfo_t3933049236PFvvEPK10MethodInfoPvPS4_
cmg:_MonoEvent_GetAddMethod_m4289563120
dsg:__ZL37Type_t_CustomAttributesCacheGeneratorP21CustomAttributesCache
B3c:_UNITY_tt_face_free_hdmx
dNc:__ZNSt3__26__sortIRN18Overlap2DQueryBase29ColliderHitsByDepthComparitorEPP10Collider2DEEvT0_S7_T_
Opj:__ZN15dense_hashtableINSt3__24pairIK10KeyWrapperINS1_IP11Il2CppClassjEEES4_EES6_N6il2cpp8metadata14ArrayClassHashEN14dense_hash_mapIS6_S4_SB_NS6_14EqualsComparerINSA_17ArrayClassCompareEEENS0_9allocatorIS8_EEE9SelectKeyESF_SH_E5clearEv
D6i:__ZNSt3__218uninitialized_copyIPNS_4pairIK10KeyWrapperIPK11Il2CppClassEPKcEESB_EET0_T_SD_SC_
mhj:__ZN6il2cpp2vm14TypeNameParser5ParseEb
xNh:_ReflectionMethodsCache__ctor_m1835220
xtg:__ZL71SynchronizedArrayListWrapper_t3317806524_CustomAttributesCacheGeneratorP21CustomAttributesCache
egd:__ZN23UnityPurchasingSettingsC2Ev
Dce:_Double_ToString_m1864290157
MSj:__ZNSt9bad_allocD0Ev
rdh:__Z50RuntimeInvoker_Int64_t909078037_Double_t4078015681PFvvEPK10MethodInfoPvPS4_
Uji:_Application_LoadLevel_m2369150774
vMj:__ZN6il2cpp2os5Mutex6UnlockEv
WPg:__ZL120NativeClassAttribute_t1576243993_CustomAttributesCacheGenerator_NativeClassAttribute_set_QualifiedNativeName_m4139686864P21CustomAttributesCache
Q0b:__ZL10RenderFaceR9GfxDeviceR18MaterialStateCacheP13RenderTextureiif
ZDi:_SpriteAtlasManager__cctor_m453260161
Fwj:__ZNK24NamespaceAndNamePairHashclERKNSt3__24pairIPKcS3_EE
Uqa:__ZL37stbir__resample_horizontal_downsampleP11stbir__infoiPf
cgf:__ZN21InterfaceFuncInvoker1Ib18Color32_t874517518E6InvokeEjP11Il2CppClassP12Il2CppObjectS0_
Hib:__ZNK5Unity9Component38MarkGameObjectAndComponentDependenciesER27GarbageCollectorThreadState
W2:__ZL16OutOfMemoryErrorjj18MemLabelIdentifieriPKc
hhd:__ZN20UnityWebRequestProtoI24UnityWebRequestTransport16AtomicRefCounter14RedirectHelper14ResponseHelper15DownloadHandler13UploadHandler12HeaderHelper14AsyncOperationED0Ev
xYd:_SynchronizedArrayListWrapper_Contains_m2259439339
HU:__ZNK7Texture21GetShadowSamplingModeEv
t8:__ZNK11TypeManager15ClassNameToRTTIEPKcb
f5a:__ZN13ScreenManager21OnWindowRegainedFocusEv
qHb:__Z18Transfer_BlittableI18StreamedBinaryReadILb0EELb1EdEvRK29SerializationCommandArgumentsR31RuntimeSerializationCommandInfo
ZZj:_emscripten_glVertexAttrib2fv__wrapper
EMg:__ZL76Input_t1785128008_CustomAttributesCacheGenerator_Input_GetKeyInt_m2379744823P21CustomAttributesCache
bJe:_Guid__ctor_m2599802704
OQe:_FileStream_get_CanRead_m4148920720
_hd:__ZN13RuntimeStaticINSt3__26vectorIPN5physx15PxVehicleWheelsENS0_9allocatorIS4_EEEELb0EE13StaticDestroyEPv
juh:__Z31RuntimeInvoker_Link_t2723257478PFvvEPK10MethodInfoPvPS4_
_pa:__ZN4crnd12symbol_codec32decode_receive_static_data_modelERNS_25static_huffman_data_modelE
Y5b:__ZN18ScriptingArguments8AddFloatEf
sHe:_GregorianCalendar_set_CalendarType_m2438362222
ZEd:_FloatTween_get_targetValue_m2120061648_AdjustorThunk
d8g:__Z44RuntimeInvoker_RuntimeTypeHandle_t2330101084PFvvEPK10MethodInfoPvPS4_
the:_Array_InternalArray__ICollection_Contains_TisVector2_t2243707579_m3625698589_gshared
Zbd:__ZN11UnityEngine15PlatformWrapper16GetVRRenderScaleEv
Qxc:__Z18Transfer_BlittableI9JSONWriteLb0EaEvRK29SerializationCommandArgumentsR31RuntimeSerializationCommandInfo
x4g:__Z45RuntimeInvoker_SByte_t454417549_RuntimeObjectPFvvEPK10MethodInfoPvPS4_
AY:__ZN11UnityEngine15CloudWebService14DataDispatcher34OnSessionContainerArchivedAndReadyERNS0_16SessionContainerE
lEc:__ZN7b2World11CreateJointEPK10b2JointDef
Z0i:_RectTransformUtility_PixelAdjustPoint_m1375786599
dIe:_NumberFormatInfo_GetFormat_m3247563525
yEg:__ZL77Convert_t2607082565_CustomAttributesCacheGenerator_Convert_ToByte_m2303223565P21CustomAttributesCache
vyf:_CipherSuiteCollection__ctor_m2154226461
LHi:_InvokableCall_3_Find_m1268604653_gshared
uBb:__Z18Transfer_BlittableI19StreamedBinaryWriteILb0EELb0E8Vector3fEvRK29SerializationCommandArgumentsR31RuntimeSerializationCommandInfo
Kjb:__ZN14SafeBinaryRead19TransferSTLStyleMapINSt3__23mapIN4core12basic_stringIcNS3_20StringStorageDefaultIcEEEEiNS1_4lessIS7_EENS1_9allocatorINS1_4pairIKS7_iEEEEEEEEvRT_17TransferMetaFlags
wlj:__ZN15dense_hashtableINSt3__24pairIK10KeyWrapperINS1_IPK11Il2CppImageP11Il2CppClassEEEjEES9_17ReflectionMapHashIS8_EN14dense_hash_mapIS9_jSD_NS9_14EqualsComparerINS0_8equal_toIS8_EEEENS0_9allocatorISB_EEE9SelectKeyESI_SK_ED2Ev
vXc:_gray_move_to
Wid:_DSAParameters_t1872138834_marshal_pinvoke
Mgh:__Z37RuntimeInvoker_ContentType_t859870085PFvvEPK10MethodInfoPvPS4_
alf:_Collection_1_System_Collections_IEnumerable_GetEnumerator_m4174600764_gshared
hdi:_ConstructionCall_InitDictionary_m4046452035
qmj:__ZN6il2cpp2vm10Reflection14GetEventObjectEP11Il2CppClassPK9EventInfo
Ozf:_TlsStream_Write_m2271546135
Wjc:__Z30RegisterValidateMethodCallbackiPF18ScriptingMethodPtrS_17ScriptingClassPtrP6ObjectEPKc
frb:__ZN20LocalFileSystemPosixD0Ev
xfe:_CultureInfo_ConstructInternalLocaleFromCurrentLocale_m1342751405
$0f:_Latin1Encoding_GetString_m3553289597
JNh:_GetRayIntersectionAllNonAllocCallback_Invoke_m1247446986
UYc:_tt_cmap_init
gCc:__ZN8JSONRead8TransferI9BoundsIntEEvRT_PKc17TransferMetaFlagsb
Ka:invoke_viidi
Txh:_Enumerator_get_Current_m1020413567_AdjustorThunk
N2e:_List_1_System_Collections_IList_get_IsFixedSize_m1122077912_gshared
kyj:__ZN15dense_hashtableI10KeyWrapperIP18Il2CppGenericClassES3_N6il2cpp8metadata22Il2CppGenericClassHashEN14dense_hash_setIS3_S6_NS3_14EqualsComparerINS5_25Il2CppGenericClassCompareEEENSt3__29allocatorIS3_EEE8IdentityESA_SD_E12maybe_shrinkEv
UEb:__Z29Transfer_Blittable_ArrayFieldI18StreamedBinaryReadILb1EEdEvRT_R9ArrayInfoRK23StaticTransferFieldInfo
MP:__ZN9AudioClip7CleanupEv
_lj:__ZN15dense_hashtableINSt3__24pairIK10KeyWrapperINS1_IPK12PropertyInfoP11Il2CppClassEEEjEES9_17ReflectionMapHashIS8_EN14dense_hash_mapIS9_jSD_NS9_14EqualsComparerINS0_8equal_toIS8_EEEENS0_9allocatorISB_EEE9SelectKeyESI_SK_E8min_sizeEjj
$Fg:__ZL79Convert_t2607082565_CustomAttributesCacheGenerator_Convert_ToUInt64_m2215781574P21CustomAttributesCache
wFi:_Vector4_set_Item_m1525226067_AdjustorThunk
c2j:_emscripten_glCheckFramebufferStatus__wrapper
_qj:__ZNK15dense_hashtableINSt3__24pairIK10KeyWrapperIP11Il2CppClassES4_EES5_N6il2cpp8metadata16SZArrayClassHashEN14dense_hash_mapIS5_S4_SA_NS5_14EqualsComparerINS9_19SZArrayClassCompareEEENS0_9allocatorIS7_EEE9SelectKeyESE_SG_E12test_deletedEj
JAc:__Z18Transfer_BlittableI8JSONReadLb0EdEvRK29SerializationCommandArgumentsR31RuntimeSerializationCommandInfo
xph:__Z83RuntimeInvoker_Boolean_t3825574718_NavigationU26_t3929175072_Navigation_t1571958496PFvvEPK10MethodInfoPvPS4_
SI:__ZN7mecanim9animation21BlendTreeNodeConstant35Transfer_4_0_BackwardsCompatibilityI14SafeBinaryReadEEvRT_
e7e:_List_1_TrimExcess_m2004514756_gshared
D4f:_Thread_ClrState_m822263449
hVg:__ZL81GUIStyle_t1799908754_CustomAttributesCacheGenerator_GUIStyle_get_name_m3609546529P21CustomAttributesCache
bye:_SimpleCollator_LastIndexOfOrdinalIgnoreCase_m550798345
_bj:__ZN6il2cpp2vm21ThreadPoolCompartment13QueueWorkItemEP17Il2CppAsyncResult
ooi:_PersistentCall_get_mode_m4087575475
Vha:__ZNK9GfxDevice13GetViewMatrixEv
Yki:_Bounds_Encapsulate_m17114941
Fhb:__ZN17RemapPPtrTransferC2E24TransferInstructionFlagsb
uI:__ZN14SafeBinaryRead21TransferSTLStyleArrayI22OffsetPtrArrayTransferIiEEEvRT_17TransferMetaFlags
v9:__ZN8TypeTree8BlobReadERPKhS1_ib
cEh:_Dictionary_2_System_Collections_Generic_ICollectionU3CSystem_Collections_Generic_KeyValuePairU3CTKeyU2CTValueU3EU3E_Remove_m3080541539_gshared
egb:__ZN18LoadSceneOperation23GetAllowSceneActivationEv
xPa:__ZN6CameraD0Ev
cNi:_GUILayoutUtility_Begin_m659595645
Cze:_ModulusRing_Multiply_m386339435
Tea:__ZN31CanvasBatchIntermediateRenderer16StaticInitializeEPv
jJd:_GraphicRaycaster_U3CRaycastU3Em__0_m3971200721
lof:_ReadOnlyCollection_1_System_Collections_IList_RemoveAt_m3004588099_gshared
KA:__ZN7mecanim12AndValueMaskILb0EEEvPKNS_14ValueArrayMaskEPS1_
nfb:__ZN14SafeBinaryRead21TransferSTLStyleArrayINSt3__26vectorIi13stl_allocatorIiL18MemLabelIdentifier13ELi16EEEEEEvRT_17TransferMetaFlags
S3d:_Decimal_op_Implicit_m4246329390
fHe:_ArgumentNullException__ctor_m2252076819
Q1b:__ZN10GameObjectC2E18MemLabelIdentifier18ObjectCreationMode
d4c:_raccess_guess_apple_double
Prh:__Z70RuntimeInvoker_Void_t1841601450_CustomAttributeNamedArgument_t94157543PFvvEPK10MethodInfoPvPS4_
cHf:_ListDictionary_GetEnumerator_m1511032609
cgg:_TypeBuilder_get_FullName_m1626507516
pXf:_SerializationInfo__ctor_m4016423422
hua:__ZL18ProgramUniform1uivPK7ApiGLESjiihPKv
gbc:__ZN14Texture2DArray13RebuildMipMapEv
d6i:__ZN13Il2CppHashSetIPK17Il2CppGenericInstN6il2cpp8metadata21Il2CppGenericInstHashENS4_24Il2CppGenericInstCompareENSt3__29allocatorI10KeyWrapperIS2_EEEEC2EjRKS5_RKS6_
Dff:_Collection_1_Clear_m2734620236_gshared
HCj:__ZN6il2cpp2gc16GarbageCollector14RemoveWeakLinkEPPv
Xnb:__ZN9ShaderLab20SerializedSubProgram14AddVectorParamEPKcii15ShaderParamTypei
k9c:__ZN2UI14CanvasRenderer12CleanupClassEv
Uqf:_ReadOnlyCollection_1_System_Collections_IEnumerable_GetEnumerator_m1734360860_gshared
nIh:_DefaultComparer__ctor_m1052417779_gshared
mrd:_SystemException__ctor_m2688248668
R7h:_ResourceSet_ReadResources_m1669023823
rFe:_PKCS12_RemoveCertificate_m1590055870
Mrj:__ZN6il2cpp2vm6Thread7SetNameEP12Il2CppThreadP12Il2CppString
Cvg:__ZL117GenericTypeParameterBuilder_t1370236603_CustomAttributesCacheGenerator_GenericTypeParameterBuilder_Equals_m2498927509P21CustomAttributesCache
gMb:__ZN13ScreenManager18SetAllowCursorLockEb
UZ:__ZN11UnityEngine15CloudWebService10RestClientINS0_23WebRequestRestHeaderMapEE16SetRequestHeaderERKN4core12basic_stringIcNS4_20StringStorageDefaultIcEEEESA_
sfb:__ZN30RuntimeInitializeOnLoadManager15ClassMethodInfo8TransferI14SafeBinaryReadEEvRT_
a2g:__ZL73CanvasScaler_t2574720772_CustomAttributesCacheGenerator_m_ScreenMatchModeP21CustomAttributesCache
uW:__ZL22InitializeModule_Audiov
rsb:__ZN16MemoryFileSystem8IsLockedERK13FileEntryData
utj:__ZN6il2cpp6icalls8mscorlib6System2IO6MonoIO5WriteEiP11Il2CppArrayiiPi
Mlg:_MonoCMethod_Invoke_m931478014
f6g:__Z86RuntimeInvoker_Int32_t2071877448_Int16_t4041245914_Int32_t2071877448_Int32_t2071877448PFvvEPK10MethodInfoPvPS4_
Y7h:_SatelliteContractVersionAttribute__ctor_m2605651717
Yk:_emscripten_glBindRenderbuffer
_Pg:__ZL77RuntimePlatform_t1869584967_CustomAttributesCacheGenerator_OSXDashboardPlayerP21CustomAttributesCache
Mvd:_DecoderExceptionFallbackBuffer_GetNextChar_m1727394816
bJj:_GC_dirty_init
_Qd:_Array_Copy_m1969461849
JWf:_MessageFormatter_ReadMethodResponse_m4134629501
Jzj:__ZN6il2cpp2vm5Field14GetValueObjectEP9FieldInfoP12Il2CppObject
H8c:__ZNK2UI6Canvas16GetTargetDisplayEv
Hti:_PKCS12_GetSymmetricAlgorithm_m3196291685
Lde:_Environment_get_OSVersion_m1247315981
Kca:__ZN6Object17FindObjectsOfTypeEPKN5Unity4TypeER13dynamic_arrayIPS_Lj4EEb
Lec:__ZNSt3__26vectorINS_4pairIiiEE13stl_allocatorIS2_L18MemLabelIdentifier1ELi16EEE21__push_back_slow_pathIKS2_EEvRT_
MOf:_Capture_get_Length_m1952322390
wyc:__ZN9JSONWrite8TransferI4PPtrI9Texture2DEEEvRT_PKc17TransferMetaFlags
rJb:__ZN13MonoBehaviour17RemoveFromManagerEv
hQa:__ZN12ImageFilters14AddImageFilterERK11ImageFilter
t9c:__ZL23RegisterModuleICalls_UIv
D4a:__ZL11DecodeValuePPKcS0_
xzh:_ShimEnumerator_MoveNext_m2013866013_gshared
$0:__ZN13MemoryManagerC2Ev
Exa:__ZN12SkinMeshInfo10DeallocateEPS_
zv:__ZN15SerializeTraitsI22OffsetPtrArrayTransferIN7mecanim13ValueConstantEEE8TransferI19StreamedBinaryWriteILb0EEEEvRS3_RT_
ETg:__ZL66AnimationOffsetPlayable_t1019600543_CustomAttributesCacheGeneratorP21CustomAttributesCache
DJa:__ZN20ArchiveStorageReader28AcquireAndPrefillUnusedBlockEjPNS_11CacheResultE
abc:__Z12NHxRoughnessIA4_tEvP9Texture2DPT_iiii
BUi:_AudioSource_PlayOneShot_m3607847055
FWi:__ZL25UnresolvedVirtualCall_105P12Il2CppObjecthPK10MethodInfo
ASf:_MethodDictionary_get_SyncRoot_m673971424
eda:__ZN18AsyncUploadManagerD2Ev
Vpb:__ZN9Transform5ResetEv
fBb:__Z22TransferField_NonArrayI24GenerateTypeTreeTransfer16Converter_StringEvRK23StaticTransferFieldInfoR31RuntimeSerializationCommandInfoRT0_
IKg:__ZL90Camera_t189460977_CustomAttributesCacheGenerator_Camera_INTERNAL_get_pixelRect_m4124985255P21CustomAttributesCache
KYc:_UNITY_FT_CMap_New
$Lb:__Z17MainLoopKeepalivePv
Jdi:_MatchCollection__ctor_m1944681790
fkd:_HMACSHA512__ctor_m1667460019
Q7i:__ZN15dense_hashtableI10KeyWrapperIPK17Il2CppGenericInstES4_N6il2cpp8metadata21Il2CppGenericInstHashEN14dense_hash_setIS4_S7_NS4_14EqualsComparerINS6_24Il2CppGenericInstCompareEEENSt3__29allocatorIS4_EEE8IdentityESB_SE_E12expand_arrayEjN21dense_hash_map_traits17integral_constantIbLb0EEE
bPj:_printf_core
yHi:_InvokableCall_1_Find_m1347741199_gshared
Bod:_ToBase64Transform_get_OutputBlockSize_m949275583
QXe:_MonoType_ToString_m473949831
Y_b:__Z14CalcHullBoundsPK8Vector3fPKhhRK5PlaneRK10Matrix4x4fR10MinMaxAABB
HUf:_RealProxy__ctor_m2147093603
Zhb:__ZN11PreloadData39ShouldIgnoreInGarbageDependencyTrackingEv
e9e:_List_1__ctor_m3511181530_gshared
KTb:__Z19SetupLODFadeKeywordR17ShaderPassContexti
wof:_ReadOnlyCollection_1_get_Count_m2180604490_gshared
VBb:__Z18Transfer_BlittableI19StreamedBinaryWriteILb0EELb0E5RectTIfEEvRK29SerializationCommandArgumentsR31RuntimeSerializationCommandInfo
HHj:_GC_set_fl_marks
hxa:__ZL25CheckCopyTextureArgumentsRK7ApiGLESP11GLESTextureS3_
Jgb:__ZN13dynamic_arrayI26EnlightenSystemInformationLj8EE6insertEPS0_PKS0_S4_
oYc:_tt_name_entry_ascii_from_utf16
aYe:_MulticastNotSupportedException__ctor_m2164514827
N6d:_DateTime_System_IConvertible_ToChar_m2489529194_AdjustorThunk
EAb:__Z29Transfer_Blittable_ArrayFieldI24GenerateTypeTreeTransferyEvRT_R9ArrayInfoRK23StaticTransferFieldInfo
xQ:__ZN4FMOD7SystemI9playSoundE17FMOD_CHANNELINDEXPNS_5SoundEbPPNS_7ChannelE
uJi:_UnityEvent_1_GetDelegate_m1805195420_gshared
grg:__ZL74RuntimeArray_CustomAttributesCacheGenerator_Array_BinarySearch_m1368352453P21CustomAttributesCache
agi:_Regex_GetGroupIndex_m1686599756
IQg:__ZL68PreferBinarySerialization_t2472773525_CustomAttributesCacheGeneratorP21CustomAttributesCache
DJc:__ZN17PhysicsMaterial2D5ResetEv
rah:__Z66RuntimeInvoker_Int64_t909078037_Int64_t909078037_Int32_t2071877448PFvvEPK10MethodInfoPvPS4_
JA:__ZN27AnimationLayerMixerPlayable17LayerMixerProcessEP35AnimationPlayableEvaluationConstantP32AnimationPlayableEvaluationInputP33AnimationPlayableEvaluationOutputM17AnimationPlayableFvS1_S3_S5_EMS_FvS1_S3_S5_ESA_MS_FvS5_S1_S3_S5_ifE
Ogj:__ZN6il2cpp2os4File4ReadEPNS0_10FileHandleEPciPi
ZO:__ZN12AudioManager23VirtualRedirectTransferER18StreamedBinaryReadILb0EE
q1e:_List_1_Remove_m2616693989_gshared
g8a:__ZN10VertexData13SwapEndianessEv
yRj:_realloc
Zqc:__Z57Register_UnityEngine_Transform_INTERNAL_get_localRotationv
TQh:_ScrollRect_SetLayoutVertical_m1225848090
zwi:_Plane_ToString_m4267831659_AdjustorThunk
c7f:_Type_get_IsInterface_m3583817465
ffb:__ZN30RuntimeInitializeOnLoadManager23VirtualRedirectTransferER17RemapPPtrTransfer
uVj:dynCall_viif
umg:_MonoField_get_DeclaringType_m1591666235
kWh:_InternalEnumerator_1__ctor_m2111763266_AdjustorThunk
fRf:_Enumerator_MoveNext_m4234629003
W0c:_cf2_hint_lock
kyb:__ZL26Transfer_SimpleNativeClassI17RemapPPtrTransfer8GradientLb0EEvRK29SerializationCommandArgumentsR31RuntimeSerializationCommandInfo
tC:__ZN17AnimationPlayable26DisconnectNoTopologyChangeEPS_i
Wqg:__ZL69RuntimeArray_CustomAttributesCacheGenerator_Array_GetValue_m518505780P21CustomAttributesCache
yeh:__Z52RuntimeInvoker_UInt64_t2909196914_Single_t2076509932PFvvEPK10MethodInfoPvPS4_
SWg:__ZL105UISystemProfilerApi_t845863050_CustomAttributesCacheGenerator_UISystemProfilerApi_BeginSample_m2271080056P21CustomAttributesCache
nFg:__ZL78Convert_t2607082565_CustomAttributesCacheGenerator_Convert_ToSByte_m1880147062P21CustomAttributesCache
$We:_MonoType_GetDefaultConstructor_m925465120
P7f:_Type_IsArrayImpl_m3073208555
C_:__ZN13UploadHandlerD2Ev
PTj:dynCall_viiiiiffi
Dc:_emscripten_glBlendFuncSeparate
Ehg:_GenericTypeParameterBuilder_IsPrimitiveImpl_m1198748291
F5:__Z20scripting_string_newPKc
jpc:__Z43Material_CUSTOM_Internal_CreateWithMaterialP12Il2CppObjectS0_
LPe:_Directory_GetCurrentDirectory_m44486537
iRg:__ZL56UnityEventBase_t828812576_CustomAttributesCacheGeneratorP21CustomAttributesCache
wUg:__ZL105AudioSource_t1135106623_CustomAttributesCacheGenerator_AudioSource_ReadExtensionPropertyValue_m4251175592P21CustomAttributesCache
gdf:_Collection_1_System_Collections_ICollection_CopyTo_m1047946700_gshared
vJi:_UnityEvent_1_GetDelegate_m4072848279_gshared
mwc:__ZN9JSONWrite12AppendToNodeEPN5Unity9rapidjson12GenericValueINS1_4UTF8IcEE13JSONAllocatorEEPKcRS6_
VJc:__ZN16PhysicsManager2D20GetRigidBodyVelocityERK11Rigidbody2D
$4d:_Convert_ToInt64_m4057339019
IKf:_AsnEncodedData_Default_m4197142414
xqj:__ZNSt3__218uninitialized_copyIPNS_4pairIK10KeyWrapperIP11Il2CppClassES4_EES8_EET0_T_SA_S9_
Cgj:__ZN6il2cpp2os4File17GetFileAttributesERKNSt3__212basic_stringIcNS2_11char_traitsIcEENS2_9allocatorIcEEEEPi
QF:__ZNSt3__26__sortIRPFbPKN8Animator11AnimatorJobES4_EPS4_EEvT0_S9_T_
eO:__ZN17AudioCustomFilterD2Ev
Utc:__ZN11IMGUIModule26SetDeveloperConsoleVisibleEb
aqb:__ZN9Transform16ResetReplacementEv
Tva:__ZN18GfxFramebufferGLES18ReleaseFramebufferEP17RenderSurfaceBaseP14GfxContextGLES
rbi:_Context_GetDynamicPropertyCollection_m1987747444
VLf:_X509Certificate2_get_Version_m1927399907
kDi:_Transform_get_eulerAngles_m2112588536
edc:__ZN13ProduceHelperI6CameraLb0EE7ProduceE18MemLabelIdentifier18ObjectCreationMode
RKd:_Image_RadialCut_m3229543088
_$:__ZN19CloudServiceHandler34HandleSaveFileWebRequestPlayerLoopEv
eC:__ZN7mecanim21ValueArrayReverseCopyEPKNS_18ValueArrayConstantEPKNS_10ValueArrayES2_PS3_PKi
ON:__Z31GetParentSampleClipFromInstancePN11SoundHandle8InstanceE
W8b:__ZNK28RectTransformPropertyBinding13GetFloatValueERKN11UnityEngine9Animation10BoundCurveE
l1b:__ZN6Camera22StandaloneCustomRenderENS_10RenderFlagEP6ShaderRKN4core12basic_stringIcNS3_20StringStorageDefaultIcEEEEPNS_21PerformRenderFunctionE
Keb:__ZNSt3__26vectorI4PPtrI6ObjectE13stl_allocatorIS3_L18MemLabelIdentifier52ELi16EEE6assignINS_11__wrap_iterIPS3_EEEENS_9enable_ifIXaasr21__is_forward_iteratorIT_EE5valuesr16is_constructibleIS3_NS_15iterator_traitsISD_E9referenceEEE5valueEvE4typeESD_SD_
RNj:__ZN6il2cpp2os16ThreadLocalValue8GetValueEPPv
qaj:__ZN6il2cpp2vm13MetadataCache14GetGenericInstEPKPK10Il2CppTypej
Cnd:_SHA384Managed_Initialize_m712692291
fXh:_InternalEnumerator_1__ctor_m2688327768_gshared
xW:__ZN13AudioListener17ReadExtensionNameEi
T9h:_ChannelInfo__ctor_m2502026239
Pb:invoke_iiidii
nSi:_gamestart__ctor_m923219445
Fxg:__ZL60CallingConvention_t3354538265_CustomAttributesCacheGeneratorP21CustomAttributesCache
aW:__ZN9AudioClip15InitializeClassEv
hp:setThrew
Uac:__ZL21BuildEmptyCubeTexturePKci11ColorRGBA3217TextureColorSpace
nLi:_Event_get_modifiers_m3267430607
Njb:__ZN14SafeBinaryRead21TransferSTLStyleArrayINSt3__26vectorIN9ShaderLab20SerializedSubProgramENS1_9allocatorIS4_EEEEEEvRT_17TransferMetaFlags
aqh:__Z67RuntimeInvoker_Boolean_t3825574718_RefEmitPermissionSet_t2708608433PFvvEPK10MethodInfoPvPS4_
UAd:_StandaloneInputModule_set_cancelButton_m2642677329
Izc:__Z15Transfer_StringI8JSONReadLb1EEvRK29SerializationCommandArgumentsR31RuntimeSerializationCommandInfo
Csa:__ZN6prcoreL17RemapGenericFloatI17TexFormatRGBFloat15TexFormatRGHalfEEvPKNS_9InnerInfoE
aVb:__Z25DoForwardShaderRenderLoopR17RenderLoopContextR13dynamic_arrayI16RenderObjectDataLj4EERK11CullResultsbbbN6Camera10RenderFlagE
WW:__Z36AudioSource_CUSTOM_PlayOneShotHelperP12Il2CppObjectS0_f
OXc:_sfnt_load_face
AEe:_PKCS12_GetSymmetricAlgorithm_m1812022677
U2f:_UTF8Encoding_GetByteCount_m2372933408
obi:_Context_get_NeedsContextSink_m1907794755
FXc:_UNITY_ft_service_list_lookup
wDi:_Transform_get_localScale_m46214814
ivf:_ARC4Managed_GenerateKey_m716135508
dyb:__Z18Transfer_BlittableI17RemapPPtrTransferLb1E11ColorRGBA32EvRK29SerializationCommandArgumentsR31RuntimeSerializationCommandInfo
rtc:__ZN5IMGUI21SelectReceivingWindowER8GUIStateb
p1h:_InternalEnumerator_1_get_Current_m3179981210_gshared
A0:__ZN13BaseAllocator13TryDeallocateEPv
iDb:__Z29Transfer_Blittable_ArrayFieldI19StreamedBinaryWriteILb0EEfEvRT_R9ArrayInfoRK23StaticTransferFieldInfo
KQd:_Array_CreateInstance_m1054139389
fKi:_U3CStartU3Ec__Iterator0_Reset_m2580847683_gshared
KXh:_InternalEnumerator_1__ctor_m967618647_AdjustorThunk
$rb:__ZN16MemoryFileSystem5WriteER13FileEntryDatayPvPy
dKd:_LayoutGroup_GetAlignmentOnAxis_m1783063916
YDh:_Dictionary_2_System_Collections_ICollection_get_IsSynchronized_m1738433079_gshared
pRa:__ZNSt3__26vectorIN12FlareManager10FlareEntryENS_9allocatorIS2_EEE21__push_back_slow_pathIKS2_EEvRT_
Fdg:_Default_check_arguments_with_score_m1714931543
ajd:_SHA1_Create_m4086509717
cng:_MonoMethodInfo_GetMethodInfo_m3298558752
GO:__ZN13AudioListener17RemoveFromManagerEv
xd:_glAttachShader
XGd:_Dropdown_SetAlpha_m2769981009
ONa:__ZNK6Camera19GetProjectionMatrixEv
A$i:_Predicate_1_BeginInvoke_m1856151290_gshared
Fbe:_StackTrace__ctor_m2404985356
B7:__Z38PreallocateObjectFromPersistentManagerib
$6d:_DateTime_System_IConvertible_ToSingle_m3927769066
e0a:__ZNK9Texture2D20GetUnscaledTextureIDEv
k5d:_Convert_ToSByte_m883113940
X$i:_Canvas_get_renderOrder_m2592588836
qNg:__ZL77Mesh_t1356156583_CustomAttributesCacheGenerator_Mesh_GetIndicesImpl_m50468169P21CustomAttributesCache
SXe:_MonoType_get_ContainsGenericParameters_m3229732653
xcf:_Queue_1_Peek_m1463479953_gshared
z3i:_Animator_ResetTriggerString_m946167554
z$g:__ZL53InputField_t1631627530_CustomAttributesCacheGeneratorP21CustomAttributesCache
GLi:_GUI_set_skin_m929513544
wCd:_ButtonClickedEvent__ctor_m938038541
jIb:__ZN18StreamedBinaryReadILb0EE21TransferSTLStyleArrayI13dynamic_arrayI4AABBLj4EEEEvRT_17TransferMetaFlags
_ch:__Z119RuntimeInvoker_Int32_t2071877448_RuntimeObject_Int32_t2071877448_Int32_t2071877448_CharU26_t1894467670_SByte_t454417549PFvvEPK10MethodInfoPvPS4_
C8f:_UInt16_System_IConvertible_ToDouble_m4100549304_AdjustorThunk
Wgb:__Z29ClearRepeatingLogMessageStatev
csd:_Single_System_IConvertible_ToInt16_m962677079
xca:__ZN21EnlightenSceneMappingaSERKS_
gkf:_Collection_1_SetItem_m546457615_gshared
hOj:__ZNK6il2cpp8metadata21Il2CppGenericInstHashclEPK17Il2CppGenericInst
qsd:_Single_System_IConvertible_ToUInt32_m2447833283
NBa:__ZN7ApiGLESD2Ev
JLa:__ZN9Transform47ClearTransformHierarchyAndApplyToSerializedDataEv
M$h:_InternalEnumerator_1_get_Current_m4083613828_AdjustorThunk
XAc:__ZN8JSONRead21TransferSTLStyleArrayINSt3__26vectorI8MonoPPtr13stl_allocatorIS3_L18MemLabelIdentifier1ELi16EEEEEEvRT_17TransferMetaFlags
jld:_RijndaelManaged_GenerateKey_m3366247933
rPe:_BinaryReader_ReadUInt64_m1893783375
DPa:__ZN6Camera23VirtualRedirectTransferER19StreamedBinaryWriteILb0EE
KVj:dynCall_fidi
vjj:__ZN15dense_hashtableINSt3__24pairIK10KeyWrapperINS1_IPK9FieldInfoP11Il2CppClassEEEjEES9_17ReflectionMapHashIS8_EN14dense_hash_mapIS9_jSD_NS9_14EqualsComparerINS0_8equal_toIS8_EEEENS0_9allocatorISB_EEE9SelectKeyESI_SK_E12resize_deltaEjj
tPh:_ScrollRect_set_movementType_m3292965850
qEg:__ZL59AttributeTargets_t1984597432_CustomAttributesCacheGeneratorP21CustomAttributesCache
e$:__ZN11UnityEngine15CloudWebService14RestDownloaderD2Ev
d4b:__Z29StdTemplateConversionFunctionIjhEbPvR14SafeBinaryRead
vXi:__ZL25UnresolvedVirtualCall_149P12Il2CppObject23SpriteState_t1353336012S1_PK10MethodInfo
FOa:__ZN15dense_hashtableINSt3__24pairIKN9ShaderLab7Program23ShaderKeywordSetAndHashEPKNS2_10SubProgramEEES4_NS3_24ShaderKeywordHashFunctorEN14dense_hash_mapIS4_S8_SA_NS0_8equal_toIS4_EE13stl_allocatorIS9_L18MemLabelIdentifier67ELi16EEE9SelectKeyESD_SG_E15insert_noresizeERKS9_
_0e:_List_1_GrowIfNeeded_m2986672263_gshared
IVh:_ArrayReadOnlyList_1_Remove_m2325516426_gshared
K_d:_Hashtable_get_Count_m830088216
qWa:__ZN13RenderTexture12SetDimensionE16TextureDimension
me:_SDL_FreeRW
RCe:_PKCS1_OS2IP_m1273945439
cnd:_SHA1Internal_FillBuff_m891541953
IHg:__ZL62ResolveEventHandler_t3842432458_CustomAttributesCacheGeneratorP21CustomAttributesCache
X9c:__Z34CanvasRenderer_Get_Custom_PropCullP12Il2CppObject
kVh:_ArrayReadOnlyList_1_get_IsReadOnly_m2717922212_gshared
gU:__ZN20SoundChannelInstance8getDelayE14FMOD_DELAYTYPEPjS1_
VLj:__ZNSt3__26__treeINS_12__value_typeIPvxEENS_19__map_value_compareIS2_S3_NS_4lessIS2_EELb1EEENS_9allocatorIS3_EEE12__find_equalIS2_EERPNS_16__tree_node_baseIS2_EESF_RKT_
WLd:_InputField_set_customCaretColor_m3534590098
DPh:_ScrollRect_set_viewport_m323693490
HBg:__ZL66RijndaelManagedTransform_t135163252_CustomAttributesCacheGeneratorP21CustomAttributesCache
PLe:_NumberFormatter_FormatExponential_m3975285307
SSc:__ZNSt3__26vectorIN20TextRenderingPrivate8FontImpl13CharacterInfoE13stl_allocatorIS3_L18MemLabelIdentifier1ELi16EEE8__appendEj
v:tempBigInt
ue:_emscripten_glVertexAttrib1fv
Dri:_Mesh_CheckCanAccessSubmesh_m764012688
skb:__ZNSt3__26vectorIN9ShaderLab20SerializedSubProgram12UAVParameterENS_9allocatorIS3_EEE7reserveEj
JSj:__ZSt11__terminatePFvvE
GMd:_InputField_get_selectionAnchorPosition_m466595604
RDg:__ZL99Thread_t241561612_CustomAttributesCacheGenerator_Thread_t241561612____ExecutionContext_PropertyInfoP21CustomAttributesCache
XQ:__ZN12AudioManager14systemCallbackEP11FMOD_SYSTEM24FMOD_SYSTEM_CALLBACKTYPEPvS3_
m3g:__ZL111LayoutUtility_t4076838048_CustomAttributesCacheGenerator_LayoutUtility_U3CGetPreferredHeightU3Em__5_m1524880643P21CustomAttributesCache
SPi:_EqualityComparer_1_System_Collections_IEqualityComparer_Equals_m1091252481_gshared
blj:__ZN24dense_hashtable_iteratorINSt3__24pairIK10KeyWrapperINS1_IPK10MethodInfoP11Il2CppClassEEEjEES9_17ReflectionMapHashIS8_EN14dense_hash_mapIS9_jSD_NS9_14EqualsComparerINS0_8equal_toIS8_EEEENS0_9allocatorISB_EEE9SelectKeyESI_SK_E30advance_past_empty_and_deletedEv
nYi:__ZL25UnresolvedVirtualCall_195P12Il2CppObjectfPK10MethodInfo
GVa:__ZN16ReflectionProbes16UpdateSampleDataEv
dUg:__ZL107AudioClip_t1932558630_CustomAttributesCacheGenerator_AudioClip_InvokePCMReaderCallback_Internal_m4135619730P21CustomAttributesCache
eUg:__ZL112AudioClip_t1932558630_CustomAttributesCacheGenerator_AudioClip_InvokePCMSetPositionCallback_Internal_m1220105088P21CustomAttributesCache
YIi:_UnityEvent_1_AddListener_m4113183338_gshared
k9h:_SafeHandle_Finalize_m1839546519
N6a:__ZN14Texture2DArray5ResetEv
P3h:_InternalEnumerator_1_MoveNext_m252820768_AdjustorThunk
Zbi:_Context_AllocateNamedDataSlot_m3200404053
pvf:_CryptoConvert_ToHex_m2874017189
TKf:_X509EnhancedKeyUsageExtension_Decode_m3866320499
LLe:_NumberFormatter_AppendIntegerStringWithGroupSeparator_m1401773574
Q9e:_List_1_Remove_m1237648310_gshared
Kxf:_CipherSuite_get_ServerHMAC_m3566778727
eug:__ZL64DebuggerBrowsableState_t944457511_CustomAttributesCacheGeneratorP21CustomAttributesCache
Re:_JS_Sound_Play
UXi:__ZL25UnresolvedVirtualCall_174P12Il2CppObject23RaycastResult_t21186376S1_PK10MethodInfo
edd:__Z26GetUnityConnectSettingsPtrv
eLd:_Image_IsRaycastLocationValid_m864962354
k9g:__Z181RuntimeInvoker_Void_t1841601450_RuntimeObject_Int32_t2071877448_Int32_t2071877448_RuntimeObject_Int32_t2071877448_Int32_t2071877448_RuntimeObject_Int32_t2071877448_Int32_t2071877448PFvvEPK10MethodInfoPvPS4_
b4g:__ZL153U3CSpawnWaveU3Ec__Iterator0_t3564465097_CustomAttributesCacheGenerator_U3CSpawnWaveU3Ec__Iterator0_System_Collections_IEnumerator_get_Current_m1474633396P21CustomAttributesCache
ojb:__ZN9ShaderLab16SerializedShader8TransferI14SafeBinaryReadEEvRT_
GFa:__ZN5Mutex7TryLockEv
aHi:_InvokableCall_1_remove_Delegate_m3013073467_gshared
ONg:__ZL99Sprite_t309593783_CustomAttributesCacheGenerator_Sprite_get_associatedAlphaSplitTexture_m1902878088P21CustomAttributesCache
iF:__ZN7mecanim8skeleton13SkeletonAlignEPKNS0_8SkeletonERKN4math7_float4ES7_i
Mbc:__ZN19ShaderPropertySheet16SetVectorIndexedEN9ShaderLab16FastPropertyNameEifRK8Vector4fNS_8SetFlagsE
nq:__ZN14SafeBinaryRead21TransferSTLStyleArrayIN4core12basic_stringIcNS1_20StringStorageDefaultIcEEEEEEvRT_17TransferMetaFlags
bVf:_RemotingConfiguration_RegisterWellKnownServiceType_m2491506630
fMg:__ZL89Screen_t786852042_CustomAttributesCacheGenerator_Screen_t786852042____height_PropertyInfoP21CustomAttributesCache
Dyg:__ZL55_TypeBuilder_t2783404358_CustomAttributesCacheGeneratorP21CustomAttributesCache
Npj:__ZN15dense_hashtableINSt3__24pairIK10KeyWrapperINS1_IP11Il2CppClassjEEES4_EES6_N6il2cpp8metadata14ArrayClassHashEN14dense_hash_mapIS6_S4_SB_NS6_14EqualsComparerINSA_17ArrayClassCompareEEENS0_9allocatorIS8_EEE9SelectKeyESF_SH_E9copy_fromERKSK_j
wYi:__ZL25UnresolvedVirtualCall_204P12Il2CppObjectPK10MethodInfo
H4b:__Z29StdTemplateConversionFunctionIayEbPvR14SafeBinaryRead
nPd:_LayoutRebuilder_Initialize_m2671585490
y5e:_List_1_System_Collections_IList_IndexOf_m4061554721_gshared
H$:__ZN11UnityEngine15CloudWebService14DataDispatcher4StopEv
ukb:__ZNSt3__26vectorIN9ShaderLab20SerializedSubProgram12UAVParameterENS_9allocatorIS3_EEE8__appendEj
Hff:_Collection_1_GetEnumerator_m434271983_gshared
Wmj:__ZNK15dense_hashtableINSt3__24pairIK10KeyWrapperINS1_IPK9EventInfoP11Il2CppClassEEEjEES9_17ReflectionMapHashIS8_EN14dense_hash_mapIS9_jSD_NS9_14EqualsComparerINS0_8equal_toIS8_EEEENS0_9allocatorISB_EEE9SelectKeyESI_SK_E12test_deletedERK24dense_hashtable_iteratorISB_S9_SD_SM_SI_SK_E
jpd:_X509Certificate_ToString_m1582581274
nBh:_Enumerator_get_Current_m2986380627_gshared
TGa:__ZN17ScriptingGCHandle7AcquireE18ScriptingObjectPtr25ScriptingGCHandleWeakness
_ai:_LifetimeServices_set_LeaseTime_m1487876644
Qeg:_ConstructorBuilder_not_supported_m3687319507
K4c:__ZN13ProduceHelperIN20TextRenderingPrivate8TextMeshELb0EE7ProduceE18MemLabelIdentifier18ObjectCreationMode
asg:__ZL48IList_t3321498491_CustomAttributesCacheGeneratorP21CustomAttributesCache
T7c:__ZN2UI14CanvasRenderer14AttachToCanvasER8JobFencePNS_6CanvasENS0_15InstructionTypeE
DKc:__ZN25SyncColliderTransformData3JobEPS_jPK23TransformAccessReadOnlyPKyj
hsd:_Single_System_IConvertible_ToInt64_m3555853323_AdjustorThunk
Y4h:_InternalEnumerator_1__ctor_m3901400705_AdjustorThunk
FUj:dynCall_iifiii
Cqa:__Z21HasAlphaTextureFormat13TextureFormat
MV:__ZN12AudioManager6UpdateEv
vqa:__ZN14ImageReference9BlitImageERKS_NS_8BlitModeE
Tmg:_MonoMethod_get_MethodHandle_m1882915015
uw:__ZN8Animator12AddToManagerEv
Cwg:__ZL93ConstructorInfo_t2851816542_CustomAttributesCacheGenerator_ConstructorInfo_Invoke_m2144827141P21CustomAttributesCache
ezh:_ShimEnumerator_get_Key_m1171725158_gshared
kKb:__ZN23CachedSerializationDataD2Ev
l0b:__ZNK25CameraStackRenderingState31CalculateStereoCameraTargetTypeEv
hVa:__ZN14RenderSettings23VirtualRedirectTransferER14SafeBinaryRead
kJc:__ZNK13b2CircleShape5CloneEP16b2BlockAllocator
xBj:__ZN6il2cpp2os10ThreadImpl15CurrentThreadIdEv
Ojf:_Collection_1_System_Collections_IList_get_IsReadOnly_m4005091053_gshared
ghe:_Array_InternalArray__ICollection_Contains_TisColor32_t874517518_m2818328910_gshared
TSa:__ZN17GlobalGameManager8TransferI17RemapPPtrTransferEEvRT_
QGe:_AppDomainInitializer_EndInvoke_m4003801172
Krg:__ZL66RuntimeArray_CustomAttributesCacheGenerator_Array_Sort_m2544329074P21CustomAttributesCache
HTi:_AudioExtensionManager_WriteExtensionProperties_m4015275001
PUa:__ZN16LevelGameManager8TransferI18StreamedBinaryReadILb0EEEEvRT_
G3c:_UNITY_tt_face_load_fpgm
yLa:__Z17IsObjectAvailablei
Lbb:__ZN12InputManagerD0Ev
a2i:_RaycastHit2D_get_point_m2962370910
rjj:__ZN15dense_hashtableINSt3__24pairIK10KeyWrapperINS1_IPK9FieldInfoP11Il2CppClassEEEjEES9_17ReflectionMapHashIS8_EN14dense_hash_mapIS9_jSD_NS9_14EqualsComparerINS0_8equal_toIS8_EEEENS0_9allocatorISB_EEE9SelectKeyESI_SK_E4findERSA_
pFd:_DefaultControls_CreateUIObject_m2810394112
sPa:__ZNK16LightmapSettings14GetLightProbesEv
APh:_ScrollRect_get_scrollSensitivity_m1160815603
P1f:_UnicodeEncoding_GetBytes_m1337660232
MGb:__Z18Transfer_BlittableI18StreamedBinaryReadILb0EELb1EtEvRK29SerializationCommandArgumentsR31RuntimeSerializationCommandInfo
DRj:_posix_memalign
acc:__ZN13ProduceHelperI12MeshRendererLb0EE7ProduceE18MemLabelIdentifier18ObjectCreationMode
Ubf:_List_1_get_Count_m1249351212_gshared
W4h:_InternalEnumerator_1_get_Current_m747506907_AdjustorThunk
Rji:_LogCallback_Invoke_m115567905
Kch:__Z38RuntimeInvoker_PaddingMode_t3032142640PFvvEPK10MethodInfoPvPS4_
Cxf:_CertificateValidationCallback2_BeginInvoke_m3996282202
vEf:_SslClientStream_get_ClientCertSelectionDelegate_m2316959461
uYd:_SynchronizedArrayListWrapper_get_SyncRoot_m1466044127
E7:__ZNK15MonoScriptCache7ReleaseEv
T4i:__ZN6il2cpp2vm5Class13HasReferencesEP11Il2CppClass
eg:_glBindTexture
Eff:_Collection_1_ClearItems_m3585785594_gshared
RPj:_snprintf
r2g:__ZL84HorizontalOrVerticalLayoutGroup_t1968298610_CustomAttributesCacheGenerator_m_SpacingP21CustomAttributesCache
ldg:_Binder__ctor_m1361613966
DMd:_InputField_set_caretPosition_m888572237
fig:_ILGenerator__cctor_m3943061018
LXd:_ArrayListWrapper_Clone_m1506311066
Q0i:_CanvasRenderer_CreateUIVertexStream_m2882962535
tib:__Z36scripting_liveness_calculation_begin17ScriptingClassPtriPFvPP12Il2CppObjectiPvES3_PFvvES7_
Zxf:_CipherSuite_set_Context_m4127897124
tza:__ZN16UniformCacheGLES6CreateERK20GpuProgramParameters
b3f:_UTF8Encoding_Fallback_m811555654
jJ:__ZN7mecanim12statemachine13StateConstant8TransferI24GenerateTypeTreeTransferEEvRT_
sme:_Array_InternalArray__IndexOf_TisPlayableBinding_t2498078091_m398853908_gshared
fBi:_ScriptableObject_t1975622470_marshal_pinvoke_cleanup
F0f:_Encoding_GetString_m1894033578
Kof:_ReadOnlyCollection_1_System_Collections_IList_Clear_m1918003010_gshared
s6g:__Z77RuntimeInvoker_Void_t1841601450_RuntimeObject_RuntimeObject_Int32_t2071877448PFvvEPK10MethodInfoPvPS4_
xYj:_emscripten_glGetProgramInfoLog__wrapper
yDi:_Transform_set_localScale_m1442831667
QK:__ZN25AnimatedPropertyEvaluator29BindCurveToScriptingObjectPtrERKN13AnimationClip10FloatCurveEj18ScriptingObjectPtrb
f3f:_UTF8Encoding_InternalGetChars_m373801468
O8:__ZN17PersistentManager23DestroyFromFileInternalEi
Q9d:_Decimal_System_IConvertible_ToChar_m2425091200_AdjustorThunk
pVb:__Z19SetupMotionMatricesR6CameraR18RPDataMotionVector
Dde:_Enum_ToString_m2112979707
bAg:__ZL55SoapServices_t3397513225_CustomAttributesCacheGeneratorP21CustomAttributesCache
PSf:_MonoMethodMessage_get_MethodName_m3580519713
xG:__ZN26AnimatorControllerPlayable18PrepareForPlaybackERN7mecanim6memory9AllocatorE
Mce:_Enum_t2459695545_marshal_pinvoke_cleanup
wBi:_HitInfo_t1761367055_marshal_pinvoke_cleanup
hkd:_HMACSHA512__cctor_m1167457383
Y2f:_UTF8Encoding_GetBytes_m4170182058
_4e:_List_1_IndexOf_m2418862432_gshared
ROa:__ZN22CreateGpuProgramOutputC2Ev
DNf:_X509Chain__ctor_m2242540866
_Re:_MemoryStream_InternalConstructor_m2423667240
ehi:_CapturingGroup_set_Index_m2175936006
KTf:_SoapMethodAttribute_SetReflectionObject_m3431595769
dSh:_Slider_set_maxValue_m2951480075
Gcc:__ZN8GUILayer12CleanupClassEv
RNd:_InputField_OnSubmit_m2856515494
S4i:__ZN6il2cpp2vm5Class4InitEP11Il2CppClass
ha:invoke_vidi
GEe:_DeriveBytes_Adjust_m105515328
i8c:__ZN2UI14CanvasRenderer17SyncDirtyElementsER8JobFence
IGb:__Z18Transfer_BlittableI18StreamedBinaryReadILb0EELb0ExEvRK29SerializationCommandArgumentsR31RuntimeSerializationCommandInfo
gEd:_ColorBlock_op_Inequality_m1517672458
YEj:__ZN6il2cpp5utils11StringUtils15StringDuplicateEPKc
G1b:__Z15CanAddComponentR10GameObjectPKN5Unity4TypeE
gOa:__ZNK9ShaderLab21ShaderRasterStateDesc16ToGfxRasterStateEPK19ShaderPropertySheetS3_R14GfxRasterState
y1:_tlsf_memalign
w_f:_CspParameters__ctor_m2480441577
YNj:__ZN6il2cpp2os9EventImplC2Ebb
Abi:_DynamicPropertyCollection_NotifyMessage_m840388347
oii:_Uri_ParseUri_m5711497
cK:__ZN4PPtrI13MonoBehaviourE8TransferI19StreamedBinaryWriteILb0EEEEvRT_
qih:__Z98RuntimeInvoker_RuntimeObject_RuntimeObject_RayU26_t3651946800_Single_t2076509932_Int32_t2071877448PFvvEPK10MethodInfoPvPS4_
Xs:__ZNSt3__26vectorIN13AnimationClip9PPtrCurveE13stl_allocatorIS2_L18MemLabelIdentifier26ELi16EEE6resizeEj
l4:__Z20IsMatrixBuiltinParamPKcPi
p0g:__ZL108MaskableGraphic_t540192618_CustomAttributesCacheGenerator_MaskableGraphic_ParentMaskStateChanged_m3643747340P21CustomAttributesCache
Skj:__ZN15dense_hashtableINSt3__24pairIK10KeyWrapperINS1_IPK10MethodInfoP11Il2CppClassEEEjEES9_17ReflectionMapHashIS8_EN14dense_hash_mapIS9_jSD_NS9_14EqualsComparerINS0_8equal_toIS8_EEEENS0_9allocatorISB_EEE9SelectKeyESI_SK_E16reset_thresholdsEv
tbc:__ZN8Renderer19PostInitializeClassEv
YCi:_TrackedReference_t1045890189_marshal_pinvoke_back
CWh:_InternalEnumerator_1_get_Current_m1943362081_AdjustorThunk
lKj:__ZN6il2cpp6icalls8mscorlib6System8Delegate23CreateDelegate_internalEP20Il2CppReflectionTypeP12Il2CppObjectP22Il2CppReflectionMethodb
crg:__ZL82RuntimeArray_CustomAttributesCacheGenerator_Array_GetValue_m1507415734____indices0P21CustomAttributesCache
zdg:_Default_check_type_m2363631305
FJb:__ZN18DelayedCallManager18CancelCallDelayed2E4PPtrI6ObjectEPF15CallObjectStatePS1_PvES7_
s5e:_List_1__cctor_m911493842_gshared
MEa:__ZN25ThreadsafeLinearAllocator10ReallocateEPvji
Ntb:__Z18Transfer_BlittableI14SafeBinaryReadLb1E11QuaternionfEvRK29SerializationCommandArgumentsR31RuntimeSerializationCommandInfo
Mga:__ZN18SpriteAtlasManagerD0Ev
ume:_Array_InternalArray__IndexOf_TisRaycastHit2D_t4063908774_m3739817942_gshared
Bng:_MonoProperty_GetAccessors_m3704698731
OJj:_GC_disable
r8a:__ZN10Matrix4x4f8TransferI14SafeBinaryReadEEvRT_
sQc:__ZN15dense_hashtableINSt3__24pairIKNS1_IPK10Collider2DS4_EEjEES5_NS2_23ColliderPairHashFunctorEN14dense_hash_mapIS5_jS8_NS0_8equal_toIS5_EE13stl_allocatorIS7_L18MemLabelIdentifier67ELi16EEE9SelectKeyESB_SE_E9copy_fromERKSH_j
pVe:_UnmanagedMemoryStream_ReadByte_m2501145010
iGh:_Dictionary_2__ctor_m406310120_gshared
TWf:_ObjectRecord_UnchainFixup_m3025030310
uG:__ZN14AvatarPlayback8StopTimeEv
Zaa:__Z6AppendRKN4core12basic_stringIcNS_20StringStorageDefaultIcEEEEPKc
sqg:__ZL60MulticastDelegate_t3201952435_CustomAttributesCacheGeneratorP21CustomAttributesCache
sib:__ZL14OnWorldStoppedv
wDb:__Z18Transfer_BlittableI18StreamedBinaryReadILb1EELb0E8Vector3fEvRK29SerializationCommandArgumentsR31RuntimeSerializationCommandInfo
pih:__Z81RuntimeInvoker_RuntimeObject_Ray_t2469606224_Single_t2076509932_Int32_t2071877448PFvvEPK10MethodInfoPvPS4_
s$g:__ZL61Image_t2042527209_CustomAttributesCacheGenerator_m_FillCenterP21CustomAttributesCache
Nli:_Color_ToString_m55788918_AdjustorThunk
Una:__ZN7ApiGLES18ClearBufferSubDataEjN2gl12BufferTargetEll
dlc:__Z37Camera_Get_Custom_PropAllCamerasCountv
g7a:__ZN14Texture2DArray8TransferI18StreamedBinaryReadILb0EEEEvRT_
Zrj:__ZN6il2cpp6icalls8mscorlib6System5Array9GetLengthEP11Il2CppArrayi
wZb:__Z18ApplyOcclusionMaskR19ProbeOcclusionCacheRK17LightProbeContextRK10RenderNodeb
nka:__ZN13GfxDeviceGLES13AfterDrawCallEv
tRe:_FileStreamAsyncResult__ctor_m1096228032
v_c:_Split_Cubic
eb:invoke_fiiii
r9d:_DBNull_System_IConvertible_ToSByte_m1228193074
lff:_Collection_1__ctor_m2818834331_gshared
vhh:__Z68RuntimeInvoker_UInt16_t986882611_UInt16_t986882611_UInt16_t986882611PFvvEPK10MethodInfoPvPS4_
iIi:_UnityAction_1_Invoke_m3979091955_gshared
Rhf:_Collection_1_Insert_m3041550124_gshared
VQe:_FileStream_FlushBuffer_m2594140542
llf:_Collection_1_System_Collections_IList_get_Item_m1995028750_gshared
LFj:__ZN6il2cpp2vm8Profiler12GCHeapResizeEx
RVj:dynCall_viiifi
vva:__ZN18GfxFramebufferGLES20ActiveContextChangedEPP17RenderSurfaceBaseS2_
iva:__Z19PluginsRenderMarkeri
yL:__ZN10HumanTrait18InitializeBoneNameEv
qPg:__ZL130DrivenRectTransformTracker_t154385424_CustomAttributesCacheGenerator_DrivenRectTransformTracker_Clear_m4190599786____revertValues0P21CustomAttributesCache
_Gh:_DefaultComparer__ctor_m899694595_gshared
_hi:__ZN23InterfaceActionInvoker1ItE6InvokeEjP11Il2CppClassP12Il2CppObjectt
M6a:__ZN14Texture2DArray21AwakeFromLoadThreadedEv
IHb:__Z29Transfer_Blittable_ArrayFieldI18StreamedBinaryReadILb0EEyEvRT_R9ArrayInfoRK23StaticTransferFieldInfo
Yti:_X509CertificateEnumerator_get_Current_m3129374511
qJh:_EqualityComparer_1_get_Default_m875724809_gshared
zxj:__ZNSt3__214__split_bufferIN6il2cpp2vm5Image20EmbeddedResourceDataERNS_9allocatorIS4_EEEC2EjjS7_
VJd:_HorizontalOrVerticalLayoutGroup_get_spacing_m2859152439
Lxg:__ZL57DispIdAttribute_t607560947_CustomAttributesCacheGeneratorP21CustomAttributesCache
mO:__ZN12AudioManager17RemoveAudioSourceEP11AudioSource
IMi:_GUILayoutEntry_SetVertical_m861127195
Trg:__ZL83RuntimeArray_CustomAttributesCacheGenerator_RuntimeArray____LongLength_PropertyInfoP21CustomAttributesCache
Och:__Z151RuntimeInvoker_Int32_t2071877448_RuntimeObject_Int32_t2071877448_Int32_t2071877448_RuntimeObject_Int32_t2071877448_DecoderFallbackBufferU26_t3597875002PFvvEPK10MethodInfoPvPS4_
POi:_AesManaged_get_KeySize_m2773901127
xve:_Array_InternalArray__get_Item_TisUInt64_t2909196914_m2580870875_gshared
Lpj:__ZN15dense_hashtableINSt3__24pairIK10KeyWrapperINS1_IP11Il2CppClassjEEES4_EES6_N6il2cpp8metadata14ArrayClassHashEN14dense_hash_mapIS6_S4_SB_NS6_14EqualsComparerINSA_17ArrayClassCompareEEENS0_9allocatorIS8_EEE9SelectKeyESF_SH_E4swapERSK_
P9b:__ZN13ProduceHelperI14SpriteRendererLb0EE7ProduceE18MemLabelIdentifier18ObjectCreationMode
BX:__ZN5physx14PxLightCpuTask12addReferenceEv
pMc:__Z10b2DistanceP16b2DistanceOutputP14b2SimplexCachePK15b2DistanceInput
p2a:__ZN21EnlightenSceneMapping8TransferI19StreamedBinaryWriteILb0EEEEvRT_
_yj:__ZN6il2cpp2gc16GarbageCollector19InitializeFinalizerEv
gC:__ZN7mecanim8skeleton18CreateSkeletonMaskEjPKNS0_19SkeletonMaskElementERNS_6memory9AllocatorE
Arg:__ZL66RuntimeArray_CustomAttributesCacheGenerator_Array_Sort_m4096942812P21CustomAttributesCache
Psc:__ZN10GUIManager10DoGUIEventER10InputEventb
pyf:_Context_get_ClientWriteKey_m2235605337
Ezb:__Z35Transfer_Blittable_FixedBufferFieldI24GenerateTypeTreeTransferxEvRK29SerializationCommandArgumentsR31RuntimeSerializationCommandInfo
_xh:_Enumerator__ctor_m3597047336_AdjustorThunk
L3c:_UNITY_TT_Init_Glyph_Loading
pUb:__Z20CalculateSqrDistanceRK8Vector3fRK4AABB
zS:__Z32AudioMixerDuckingProcessCallbackP21UnityAudioEffectStatePfS1_jii
meg:_CustomAttributeTypedArgument_GetHashCode_m999147081_AdjustorThunk
xac:__ZN26CustomRenderTextureManagerD2Ev
cRe:_FileStream_Read_m3880951166
mUi:_AudioExtensionManager_Update_m3727859914
cP:__ZN12AudioManager8TransferI24GenerateTypeTreeTransferEEvRT_
Epa:__Z25GetBytesFromTextureFormat13TextureFormat
C7a:__ZN9Texture3D19UnloadFromGfxDeviceEb
Rsj:__ZN6il2cpp6icalls8mscorlib6System9Threading6Thread20Thread_free_internalEP12Il2CppThreadi
RTj:dynCall_iiffi
Nxb:__Z18Transfer_BlittableI17RemapPPtrTransferLb0EsEvRK29SerializationCommandArgumentsR31RuntimeSerializationCommandInfo
Ate:_Dictionary_2_Do_CopyTo_TisRuntimeObject_TisRuntimeObject_m2625001464_gshared
LGg:__ZL67Math_t2022911894_CustomAttributesCacheGenerator_Math_Min_m105057611P21CustomAttributesCache
JK:__ZN16MecanimAnimation25RegisterIAnimationBindingEPKN5Unity4TypeEiP17IAnimationBinding
D8:__Z32scripting_class_get_assemblyname17ScriptingClassPtr
$bd:__ZN11UnityEngine15PlatformWrapper15GetVRDeviceNameEv
CDh:_Dictionary_2_Resize_m2532139610_gshared
Yqi:_Mathf_RoundToInt_m1833913145
L9e:_List_1_IndexOf_m2019441835_gshared
i6f:_TimeSpan_Equals_m2029123271_AdjustorThunk
Paj:__ZN6il2cpp2vm13MetadataCache23GetInvokerMethodPointerEPK10MethodInfoPK20Il2CppGenericContext
OAa:__ZN9GfxDevice21RegisterNativeTextureE9TextureIDi16TextureDimension
tfe:_CultureInfo__ctor_m456863818
tLj:__ZN6il2cpp6icalls8mscorlib6System10Reflection4Emit11TypeBuilder20create_generic_classEP27Il2CppReflectionTypeBuilder
Cdj:__ZNSt3__26vectorIPK10MethodInfoNS_9allocatorIS3_EEE26__swap_out_circular_bufferERNS_14__split_bufferIS3_RS5_EE
O$e:_Enumerator_MoveNext_m2504790928_gshared
x1g:__ZL61Slider_t297367283_CustomAttributesCacheGenerator_m_HandleRectP21CustomAttributesCache
fX:__Z60Register_UnityEngine_AudioListener_GetNumExtensionPropertiesv
Xi:_emscripten_glUniformMatrix4fv
aqj:__ZN15dense_hashtableINSt3__24pairIK10KeyWrapperINS1_IP11Il2CppClassjEEES4_EES6_N6il2cpp8metadata14ArrayClassHashEN14dense_hash_mapIS6_S4_SB_NS6_14EqualsComparerINSA_17ArrayClassCompareEEENS0_9allocatorIS8_EEE9SelectKeyESF_SH_E13set_empty_keyERKS8_
Gob:__ZN12ScriptMapperD2Ev
iYg:__ZL85AxisEventData_t1524870173_CustomAttributesCacheGenerator_U3CmoveDirU3Ek__BackingFieldP21CustomAttributesCache
Mjd:_KeyedHashAlgorithm_Dispose_m1864300576
Rti:_X509Certificate_PEM_m49854707
fFe:_PKCS12_get_RNG_m3620550062
WKf:_X509BasicConstraintsExtension__ctor_m3320418592
$si:_ExtendedKeyUsageExtension_Decode_m901297139
rlb:__Z32TransferEnumWithNameForceIntSizeI14SafeBinaryRead7FogModeEvRT_RT0_PKc17TransferMetaFlags
kqc:__Z52Register_UnityEngine_RenderTexture_Internal_GetWidthv
Zsg:__ZL89SafeWaitHandle_t481461830_CustomAttributesCacheGenerator_SafeWaitHandle__ctor_m1710231470P21CustomAttributesCache
yIj:_GC_check_leaked
Ymb:__ZN9ShaderLab20SerializedSubProgram16TextureParameter8TransferI19StreamedBinaryWriteILb0EEEEvRT_
fqe:_Array_InternalArray__Insert_TisVector4_t2243707581_m1643342708_gshared
VDa:__ZNK7Hash12812PackToUInt32Ev
ELh:_Mask_OnSiblingGraphicEnabledDisabled_m865494155
LHf:_KeysCollection_System_Collections_ICollection_get_SyncRoot_m2289369147
mmj:__ZNSt3__218uninitialized_fillIPNS_4pairIK10KeyWrapperINS1_IPK12PropertyInfoP11Il2CppClassEEEjEESB_EEvT_SD_RKT0_
I4c:__ZZN20TextRenderingPrivate8TextMesh15InitializeClassEvEN31FunctorImpl_299kDidAddComponent4CallEPviR11MessageData
saa:__ZNSt3__227__insertion_sort_incompleteIRNS_6__lessI14ObjectLoadDataS2_EEPS2_EEbT0_S6_T_
P$:__ZN11UnityEngine15CloudWebService16SessionContainer8AddEventEPNS0_14CloudEventInfoE
vza:__Z4TrimRKN4core12basic_stringIcNS_20StringStorageDefaultIcEEEES5_
lTh:_Text_set_resizeTextMaxSize_m4034967714
Esg:__ZL55GuidAttribute_t222072359_CustomAttributesCacheGeneratorP21CustomAttributesCache
Zdg:_CustomAttributeNamedArgument_Equals_m2691468532
Gpg:__ZL74String_t_CustomAttributesCacheGenerator_String_Concat_m3881798623____args0P21CustomAttributesCache
UAg:__ZL103CryptoConfig_t896479599_CustomAttributesCacheGenerator_CryptoConfig_CreateFromName_m2169102076____args1P21CustomAttributesCache
F5a:__ZN10VertexData8TransferI14SafeBinaryReadEEvRT_
rQ:__ZN4FMOD8ChannelI8setDelayE14FMOD_DELAYTYPEjj
M0d:_Stack__ctor_m2410583781
sJj:_GC_malloc_atomic
xdg:_Default_GetBetterMethod_m4255740863
$eg:_ConstructorBuilder_GetILGenerator_m1731893569
Bxj:__ZNSt3__214__split_bufferIN6il2cpp2vm5Image20EmbeddedResourceDataERNS_9allocatorIS4_EEED2Ev
E6:__ZL20SortItemByInstanceIDRKN18AwakeFromLoadQueue4ItemES2_
dkg:_TypeBuilder_create_runtime_class_m2719530260
gmd:_RNGCryptoServiceProvider_RngClose_m2921734810
sC:__ZNK34AnimationStateMachineMixerPlayable26GetInterruptedPosePlayableEv
Xed:__ZN20UnityConnectSettings8TransferI24GenerateTypeTreeTransferEEvRT_
LE:__ZN34BlobWriteTransferSTLStyleArrayImplI22OffsetPtrArrayTransferIbEEclERS1_17TransferMetaFlagsR9BlobWrite
SJg:__ZL199U3CCreateWhereIteratorU3Ec__Iterator1D_1_t2523986802_CustomAttributesCacheGenerator_U3CCreateWhereIteratorU3Ec__Iterator1D_1_System_Collections_Generic_IEnumeratorU3CTSourceU3E_get_Current_m517722874P21CustomAttributesCache
pxe:_SimpleCollator_IsHalfKana_m4255579023
BFf:_InternalAsyncResult_get_Count_m1291942796
jdf:_Collection_1_System_Collections_IList_Contains_m3365884450_gshared
WDj:__ZNK15dense_hashtableINSt3__24pairIK10KeyWrapperIPK19Il2CppGenericMethodEP10MethodInfoEES6_N6il2cpp8metadata23Il2CppGenericMethodHashEN14dense_hash_mapIS6_S9_SD_NS6_14EqualsComparerINSC_26Il2CppGenericMethodCompareEEENS0_9allocatorISA_EEE9SelectKeyESH_SJ_E10test_emptyERK30dense_hashtable_const_iteratorISA_S6_SD_SL_SH_SJ_E
bIa:__Z16FlaggedAsSkippedIN4core12basic_stringIcNS0_20StringStorageDefaultIcEEEEEbRK13FileEntryInfoRKT_19FileEnumerationFlag
fkf:_Collection_1_set_Item_m3440986310_gshared
mca:__ZL31InitializeRendererUpdateManagerPv
oCd:_BaseMeshEffect__ctor_m2843647600
bfh:__Z106RuntimeInvoker_RuntimeObject_Int16_t4041245914_RuntimeObject_BooleanU26_t3168250738_BooleanU26_t3168250738PFvvEPK10MethodInfoPvPS4_
RMg:__ZL89Input_t1785128008_CustomAttributesCacheGenerator_Input_get_imeCompositionMode_m1132899721P21CustomAttributesCache
kW:__ZN13AudioListener12CleanupClassEv
gAf:_ClientSessionInfo_Dispose_m2571428025
$Od:_LayoutGroup_DelayedSetDirty_m4276695617
sDf:_RecordProtocol_decryptRecordFragment_m2510859489
lHi:_InvokableCall_1__ctor_m975753341_gshared
$wd:_BaseRaycaster_get_sortOrderPriority_m3340181311
Bcb:__ZN11TimeManager8TransferI19StreamedBinaryWriteILb0EEEEvRT_
KRe:_DelegatePInvokeWrapper_ReadDelegate_t3184826381
MJg:__ZL91HashSet_1_t2624254809_CustomAttributesCacheGenerator_HashSet_1_OnDeserialization_m627602129P21CustomAttributesCache
q$c:_compare_uni_maps
sjf:_Collection_1_get_Count_m804306016_gshared
Mcd:__ZN11UnityEngine15PlatformWrapper27GetGraphicsCapsSupportFlagsEv
j6c:__ZNSt3__218__insertion_sort_3IRPFbPN2UI6CanvasES3_EPS3_EEvT0_S8_T_
Ypg:__ZL80Decimal_t724701077_CustomAttributesCacheGenerator_Decimal_op_Explicit_m714968249P21CustomAttributesCache
Hae:_Decimal_Equals_m1115043331
fDb:__ZN12NativeBufferI16Converter_StringE15SetupForWritingER9ArrayInfo
_Ad:_StandaloneInputModule_DeactivateModule_m2952848884
AXj:___cxa_end_catch__wrapper
BCh:_ValueCollection_System_Collections_Generic_ICollectionU3CTValueU3E_Clear_m231380274_gshared
ayd:_Entry__ctor_m1176697586
qPe:_BinaryReader_ReadUInt32_m1363572147
UFg:__ZL79Convert_t2607082565_CustomAttributesCacheGenerator_Convert_ToUInt32_m3391339025P21CustomAttributesCache
nKb:__ZN13MonoBehaviour22DoScriptRebuildWarningEv
flc:__Z38Camera_CUSTOM_INTERNAL_CALL_RaycastTryP12Il2CppObjectRK3Rayfi
uTh:_Text_get_verticalOverflow_m3134063496
Trj:__ZN6il2cpp6icalls8mscorlib6System5Array13ClearInternalEP11Il2CppArrayii
F8h:_GCHandle_get_Target_m2327042781
lLf:_PublicKey_get_EncodedKeyValue_m3051963850
Cdh:__Z50RuntimeInvoker_Char_t3454481338_Single_t2076509932PFvvEPK10MethodInfoPvPS4_
Phf:_Collection_1_GetEnumerator_m1417525918_gshared
qTj:_llvm_cttz_i32
pLf:_PublicKey_DecodeDSA_m1169363495
Stc:__ZN11IMGUIModule25GetGUIStyleScriptingClassEv
i2c:_tt_get_interface
sse:_Array_Sort_TisRuntimeObject_m143182644_gshared
e_f:_AsymmetricKeyExchangeFormatter__ctor_m3362140205
Csj:__ZN6il2cpp5utils9PathUtils7CombineIcEENSt3__212basic_stringIT_NS3_11char_traitsIS5_EENS3_9allocatorIS5_EEEERKSA_SC_
CHf:_NameObjectCollectionBase_BaseGet_m667273025
Xbh:__Z104RuntimeInvoker_RuntimeObject_Byte_t3683104436_RuntimeObject_SByte_t454417549_RuntimeObject_RuntimeObjectPFvvEPK10MethodInfoPvPS4_
xzc:__ZN9JSONWrite8TransferI13dynamic_arrayIiLj4EEEEvRT_PKc17TransferMetaFlags
DNg:__ZL82Material_t193706927_CustomAttributesCacheGenerator_Material_SetIntImpl_m1039479734P21CustomAttributesCache
iec:__ZN13PlayableGraph21InvalidateMultithreadEv
iO:__ZL16FMOD_ErrorString11FMOD_RESULT_361
I5:__Z18ConvertUTF16toUTF8PPKtS0_PPhS2_15ConversionFlags
BNi:_GUIStyleState__ctor_m3673085649
y7f:_TypeLoadException__ctor_m1903359728
w2i:__ZL16my_g_bit_nth_msfj
zAh:_Transform_1_BeginInvoke_m3014766640_gshared
Lid:_KeySizes__ctor_m3526899007
pqj:__ZN15dense_hashtableINSt3__24pairIK10KeyWrapperIP11Il2CppClassES4_EES5_N6il2cpp8metadata16SZArrayClassHashEN14dense_hash_mapIS5_S4_SA_NS5_14EqualsComparerINS9_19SZArrayClassCompareEEENS0_9allocatorIS7_EEE9SelectKeyESE_SG_E12expand_arrayEjN21dense_hash_map_traits17integral_constantIbLb0EEE
gKe:_Int16_System_IConvertible_ToInt32_m191782913_AdjustorThunk
WQg:__ZL69ArgumentCache_t4810721_CustomAttributesCacheGenerator_m_FloatArgumentP21CustomAttributesCache
ief:_Collection_1_CopyTo_m1578267616_gshared
y$f:_EncoderReplacementFallback__ctor_m2208438262
ASb:__Z23SetupStereoFlareElementP11FlareVertexRK8Vector2fS3_S3_RK11ColorRGBA32RK10Matrix4x4fRK8Vector3fb
$gh:__Z91RuntimeInvoker_X509ChainStatusFlags_t480677120_RuntimeObject_RuntimeObject_SByte_t454417549PFvvEPK10MethodInfoPvPS4_
e5i:__ZN6il2cpp2vm5Class15GetInstanceSizeEPK11Il2CppClass
Poh:__Z37RuntimeInvoker_Enumerator_t3806193287PFvvEPK10MethodInfoPvPS4_
zki:_UnmarshalledAttribute__ctor_m2832569902
ta:invoke_iiiifiiii
Zzi:_RectTransform_set_anchoredPosition_m4223859262
IGh:_Dictionary_2_CopyTo_m1495142643_gshared
IJi:_EventFunction_1_BeginInvoke_m3064802067_gshared
CGg:__ZL67IndexOutOfRangeException_t3527622107_CustomAttributesCacheGeneratorP21CustomAttributesCache
Ypj:__ZNK15dense_hashtableINSt3__24pairIK10KeyWrapperINS1_IP11Il2CppClassjEEES4_EES6_N6il2cpp8metadata14ArrayClassHashEN14dense_hash_mapIS6_S4_SB_NS6_14EqualsComparerINSA_17ArrayClassCompareEEENS0_9allocatorIS8_EEE9SelectKeyESF_SH_E12test_deletedERK30dense_hashtable_const_iteratorIS8_S6_SB_SJ_SF_SH_E
WPe:_Directory_GetFiles_m4036267478
$ce:_Enum_System_IConvertible_ToType_m2669300536
GHe:_NumberFormatInfo_get_CurrencyNegativePattern_m3972163809
Zva:__ZL19BlitFramebufferImplRN4gles23BlitFramebufferDrawQuadER9GfxDevice9TextureIDRK8Vector4f
pxb:__Z18Transfer_BlittableI17RemapPPtrTransferLb0EhEvRK29SerializationCommandArgumentsR31RuntimeSerializationCommandInfo
Xjj:__ZN15dense_hashtableINSt3__24pairIK10KeyWrapperIPK10Il2CppTypeEjEES6_N6il2cpp8metadata14Il2CppTypeHashEN14dense_hash_mapIS6_jSB_NS6_14EqualsComparerINSA_26Il2CppTypeEqualityComparerEEENS0_9allocatorIS8_EEE9SelectKeyESF_SH_E4findERS7_
bjh:__Z83RuntimeInvoker_Void_t1841601450_QuaternionU26_t4187826802_QuaternionU26_t4187826802PFvvEPK10MethodInfoPvPS4_
eCi:_StackTraceUtility_ExtractStringFromExceptionInternal_m234524721
$mf:_ReadOnlyCollection_1_System_Collections_IList_Add_m2333231354_gshared
JUc:_UNITY_FT_List_Add
yjg:_OpCodes__cctor_m939885911
Wac:__ZN14Texture2DArray11InitTextureEiii13TextureFormatb
Smi:_CustomYieldInstruction__ctor_m1440815618
jwf:_PKCS1_RSASP1_m1748738009
S_a:__ZN12CubemapArray21AwakeFromLoadThreadedEv
iNg:__ZL92AnimationCurve_t3306541151_CustomAttributesCacheGenerator_AnimationCurve_Cleanup_m3596170191P21CustomAttributesCache
wji:_UriParser_InitializeAndValidate_m251943319
tod:_SymmetricAlgorithm_set_Padding_m3081984460
Ooj:__ZN15dense_hashtableINSt3__24pairIK10KeyWrapperINS1_IPK11Il2CppImageP11Il2CppClassEEEjEES9_17ReflectionMapHashIS8_EN14dense_hash_mapIS9_jSD_NS9_14EqualsComparerINS0_8equal_toIS8_EEEENS0_9allocatorISB_EEE9SelectKeyESI_SK_E14squash_deletedEv
kcb:__ZN9InputAxis8TransferI18StreamedBinaryReadILb0EEEEvRT_
FWb:__ZNK6Camera26GetStereoSingleCullEnabledEv
uYf:_StreamingContext_t1417235061_marshal_pinvoke_back
Dfb:__Z14resize_trimmedINSt3__26vectorIN4core12basic_stringIcNS2_20StringStorageDefaultIcEEEE13stl_allocatorIS6_L18MemLabelIdentifier13ELi16EEEEEvRT_j
YWd:_ArrayList_RemoveAt_m2578928333
vub:__Z18Transfer_BlittableI14SafeBinaryReadLb0EaEvRK29SerializationCommandArgumentsR31RuntimeSerializationCommandInfo
JHi:_InvokableCall_3__ctor_m4270240248_gshared
fmf:_ReadOnlyCollection_1_System_Collections_IList_set_Item_m1233322304_gshared
gti:_GeneralNames_get_DNSNames_m2721668874
odh:__Z76RuntimeInvoker_Boolean_t3825574718_TimeSpan_t3430258949_TimeSpan_t3430258949PFvvEPK10MethodInfoPvPS4_
Rce:_Enum_System_IConvertible_ToByte_m38374586
Plf:_ReadOnlyCollection_1_System_Collections_Generic_IListU3CTU3E_RemoveAt_m1592158292_gshared
hcg:_PlatformNotSupportedException__ctor_m3301654967
LWj:_emscripten_glFrustum__wrapper
KDf:_ReceiveRecordAsyncResult_get_CompletedWithError_m2670396551
nvh:__Z37RuntimeInvoker_Enumerator_t2983962278PFvvEPK10MethodInfoPvPS4_
sae:_Decimal_Equals_m1798565377
OSa:__ZN17GlobalGameManager8TransferI24GenerateTypeTreeTransferEEvRT_
bnh:__Z38RuntimeInvoker_ContentType_t1028629049PFvvEPK10MethodInfoPvPS4_
eLg:__ZL95Component_t3819376471_CustomAttributesCacheGenerator_Component_GetComponentInParent_m1617315419P21CustomAttributesCache
N$g:__ZL66InputField_t1631627530_CustomAttributesCacheGenerator_m_CaretColorP21CustomAttributesCache
emb:__ZN15SerializeTraitsINSt3__26vectorIN9ShaderLab20SerializedSubProgram15MatrixParameterENS0_9allocatorIS4_EEEEE8TransferI24GenerateTypeTreeTransferEEvRS7_RT_
lgg:_TypeBuilder_check_created_m2929267877
Ev:__ZN19StreamedBinaryWriteILb0EE8TransferIKN4math7_float3EEEvRT_PKc17TransferMetaFlags
MQb:__Z20SyncFenceCullResultsR11CullResults
jya:__ZN15TextureTFMethod20IsBoneCountSupportedEi
gVa:__ZN14RenderSettings23VirtualRedirectTransferER24GenerateTypeTreeTransfer
_6d:_DateTime_System_IConvertible_ToSByte_m2575078084_AdjustorThunk
Pyb:__Z22TransferField_NonArrayI17RemapPPtrTransfer27Converter_SimpleNativeClassI8GUIStyleEEvRK23StaticTransferFieldInfoR31RuntimeSerializationCommandInfoRT0_
o9b:__ZNK17AnimationCurveTplIfE20EvaluateWithoutCacheEfRf
pDj:__ZN6il2cpp2os6Thread12QueueUserAPCEPFvPvES2_
xVa:__ZN19ShaderPropertySheet10SetTextureERK23FastTexturePropertyNameP7Texture
oje:_Array_InternalArray__IEnumerable_GetEnumerator_TisDictionaryEntry_t3048875398_m3498834924_gshared
Tff:_Collection_1_IsValidItem_m1304951912_gshared
kgc:__ZN4Mesh10SetNormalsEPK8Vector3fj
rng:_PropertyInfo__ctor_m1808219471
fRc:__Z66Register_UnityEngine_Physics2D_INTERNAL_CALL_GetRayIntersectionAllv
m3d:_Convert_ToDateTime_m4161927553
rgg:_TypeBuilder_GetConstructors_m774120094
PEj:__ZNSt3__212basic_stringIDsNS_11char_traitsIDsEENS_9allocatorIDsEEE9__grow_byEjjjjjj
et:__ZN17AnimationCurveTplIfE8TransferI14SafeBinaryReadEEvRT_
uah:__Z75RuntimeInvoker_Boolean_t3825574718_RuntimeObject_MonoIOErrorU26_t1029615899PFvvEPK10MethodInfoPvPS4_
Rhi:_RegularExpression_set_GroupCount_m2991393456
P3b:__Z29StdTemplateConversionFunctionIybEbPvR14SafeBinaryRead
e4a:__ZNSt3__26vectorIN15QualitySettings14QualitySettingENS_9allocatorIS2_EEE6assignIPS2_EENS_9enable_ifIXaasr21__is_forward_iteratorIT_EE5valuesr16is_constructibleIS2_NS_15iterator_traitsIS9_E9referenceEEE5valueEvE4typeES9_S9_
FDa:__ZNK5Unity9Component10GetEnabledEv
pRb:__ZNK19ShaderPropertySheet11HasPropertyERKN9ShaderLab16FastPropertyNameE
L6d:_DateTime_System_IConvertible_ToByte_m2670443498_AdjustorThunk
aCh:_ValueCollection_System_Collections_Generic_ICollectionU3CTValueU3E_Contains_m3650367146_gshared
wfj:_il2cpp_class_get_image
Y9:__Z16AsyncReadRequestP16AsyncReadCommand
MHg:__ZL81BigInteger_t925946153_CustomAttributesCacheGenerator_BigInteger__ctor_m4013661868P21CustomAttributesCache
t4i:__ZNK15dense_hashtableINSt3__24pairIK10KeyWrapperIPK22Il2CppGenericParameterEP11Il2CppClassEES6_N6il2cpp5utils11PointerHashIS4_EEN14dense_hash_mapIS6_S9_SE_NS6_14EqualsComparerINS0_8equal_toIS5_EEEENS0_9allocatorISA_EEE9SelectKeyESJ_SL_E12test_deletedEj
auf:_BigInteger_op_Addition_m1734797151
t6a:__ZN15dense_hashtableINSt3__24pairIKN4core12basic_stringIcNS2_20StringStorageDefaultIcEEEE13dynamic_arrayI4PPtrI6SpriteELj4EEEES6_20StringHash32FunctionIS6_EN14dense_hash_mapIS6_SC_SF_NS0_8equal_toIS6_EE13stl_allocatorISD_L18MemLabelIdentifier81ELi16EEE9SelectKeyESI_SL_E4findERS7_
Qef:_Collection_1_System_Collections_IList_set_Item_m3488446830_gshared
Mgg:_EnumBuilder_CreateNotSupportedException_m62763134
Hgd:__ZNK12HeaderHelper3GetERKN4core12basic_stringIcNS0_20StringStorageDefaultIcEEEE
zMf:_X509Chain_CheckRevocation_m2480313486
MVe:_Math_Log_m3371716878
bcb:__ZN9InputAxis8TransferI14SafeBinaryReadEEvRT_
T6:__ZNK21ExecutionOrderManager30GetCustomAwakeFromLoadQueueForEPKN5Unity4TypeE
hgd:__Z27RegisterModule_UnityConnectv
C_d:_Hashtable__ctor_m4280223555
$ng:_ParameterInfo_get_IsRetval_m1881464570
CUf:_RealProxy__ctor_m3041043303
dLe:_NumberFormatter_Init_m2654758994
Wjd:_HMACSHA1__ctor_m1168389339
WOc:__ZNK17Physics2DSettings22GetTypeVirtualInternalEv
kZj:_glBindRenderbuffer__wrapper
LR:__ZN10ObjectPoolIN4FMOD12ChannelGroupENS0_13ChannelGroupIEE7SetSizeEi
iAe:_PrimalityTest_BeginInvoke_m966469054
Tki:_Bounds_get_max_m1939845278_AdjustorThunk
cpf:_ReadOnlyCollection_1_System_Collections_Generic_ICollectionU3CTU3E_Clear_m1785953911_gshared
uag:_UInt64_System_IConvertible_ToInt16_m2797150165_AdjustorThunk
hve:_Array_InternalArray__get_Item_TisLabelData_t3712112744_m863115768_gshared
TMe:_Int32_Parse_m753946802
Tu:__ZN18StreamedBinaryReadILb0EE21TransferSTLStyleArrayI22OffsetPtrArrayTransferIN7mecanim9animation10ValueDeltaEEEEvRT_17TransferMetaFlags
gWg:__ZL113GUITargetAttribute_t863467180_CustomAttributesCacheGenerator_GUITargetAttribute_GetGUITargetAttrValue_m3706077059P21CustomAttributesCache
O6b:__ZN9Polygon2D7SetPathEiRK13dynamic_arrayI8Vector2fLj4EE
r1:__Z22ValidateTlsfAllocationPvjiS_
tUi:_AudioConfigurationChangeHandler_Invoke_m653824108
S9e:_List_1_RemoveAt_m2331128844_gshared
Uoj:__ZN14dense_hash_mapI10KeyWrapperINSt3__24pairIPK9EventInfoP11Il2CppClassEEEj17ReflectionMapHashIS8_ENS9_14EqualsComparerINS1_8equal_toIS8_EEEENS1_9allocatorINS2_IKS9_jEEEEE15set_deleted_keyERSH_
Bkg:_UnmanagedMarshal_ToMarshalAsAttribute_m3695569337
fwb:__Z14resize_trimmedINSt3__26vectorI17AnimationCurveTplIfE13stl_allocatorIS3_L18MemLabelIdentifier1ELi16EEEEEvRT_j
j0b:__ZN25CameraStackRenderingState19SetupLastEyeCamerasERK11CameraStack
cKa:__Z12GUIDToStringRK9UnityGUID
yOd:_LayoutElement_get_minHeight_m2070403283
LN:__ZN11SoundHandleC2ERKS_
iB:__ZN17AnimationPlayableC2E18DirectorPlayerType
cwf:_RSASslSignatureFormatter__ctor_m2530528184
Z9i:__ZNK6il2cpp5utils11collections13ArrayValueMapIPK10Il2CppType17Il2CppInteropData26InteropDataToTypeConverterNS_8metadata14Il2CppTypeLessENS8_26Il2CppTypeEqualityComparerEE10find_firstERKS5_
$Sa:__ZN15SerializeTraitsI12fixed_bitsetILi24EjEE8TransferI18StreamedBinaryReadILb0EEEEvRS1_RT_
Pze:_BigInteger_op_Addition_m1196561843
h4b:__Z29StdTemplateConversionFunctionItxEbPvR14SafeBinaryRead
y0i:_CanvasRenderer_INTERNAL_CALL_GetColor_m3192682614
ebi:_FormatterData__ctor_m3974986124
_ug:__ZL64FileNotFoundException_t4200667904_CustomAttributesCacheGeneratorP21CustomAttributesCache
sld:_RijndaelManagedTransform_get_CanReuseTransform_m3735256596
FLg:__ZL97GameObject_t1756533147_CustomAttributesCacheGenerator_GameObject_GetComponentInParent_m1178052983P21CustomAttributesCache
_Zd:_Comparer__cctor_m1327316974
RPe:_MonoIO_ExistsFile_m1421941572
x8d:_DateTime_op_GreaterThanOrEqual_m3818963848
jz:__ZN17AnimationPlayable18DeallocateBindingsEv
S1b:__ZN6Camera25StandaloneRenderToCubemapEP7TextureiPFvPK9SceneNodePK4AABBR9IndexListPvESA_j
sFd:_DefaultControls_SetDefaultTextValues_m1707718380
tBd:_TouchInputModule_UseFakeInput_m2112019004
sxd:_EventSystem_get_baseEventDataCache_m4294741599
lVa:__ZN14RenderSettings18TransferDeprecatedI14SafeBinaryReadEEvRT_
Eyi:_Rect_get_center_m2903917731_AdjustorThunk
V2:__ZN12TLSAllocatorI14StackAllocatorE8AllocateEji
T7:__ZN16ScriptingManager18GetMonoScriptCacheEi
K7g:__Z62RuntimeInvoker_Void_t1841601450_RuntimeObject_Int64_t909078037PFvvEPK10MethodInfoPvPS4_
wPg:__ZL104RectTransform_t3349966182_CustomAttributesCacheGenerator_RectTransform_INTERNAL_get_anchorMax_m190830848P21CustomAttributesCache
m6i:__ZN15dense_hashtableINSt3__24pairIK10KeyWrapperIPK11Il2CppClassEPKcEES6_N6il2cpp5utils11PointerHashIS3_EEN14dense_hash_mapIS6_S9_SE_NS6_14EqualsComparerINS0_8equal_toIS5_EEEENS0_9allocatorISA_EEE9SelectKeyESJ_SL_E15set_deleted_keyERKSA_
zJd:_GridLayoutGroup_CalculateLayoutInputHorizontal_m2355123124
KJg:__ZL84Locale_t4255929017_CustomAttributesCacheGenerator_Locale_GetText_m512920887____args1P21CustomAttributesCache
Cub:__Z18Transfer_BlittableI14SafeBinaryReadLb1EyEvRK29SerializationCommandArgumentsR31RuntimeSerializationCommandInfo
fSg:__ZL89U3CInvokeMessageIdSubscribersU3Ec__AnonStorey0_t1899782350_CustomAttributesCacheGeneratorP21CustomAttributesCache
twc:__ZN8JSONRead8TransferIfEEvRT_PKc17TransferMetaFlagsb
uJ:__ZN25RuntimeAnimatorController8TransferI17RemapPPtrTransferEEvRT_
Wpf:_ReadOnlyCollection_1_System_Collections_ICollection_get_IsSynchronized_m4063596282_gshared
Jnb:__ZN9ShaderLab7Program22ComputeSupportsShadowsEv
bSj:__ZNSt3__212basic_stringIcNS_11char_traitsIcEENS_9allocatorIcEEE6appendEPKcj
Vvg:__ZL54TypeBuilder_t3308873219_CustomAttributesCacheGeneratorP21CustomAttributesCache
Rsa:__ZN6prcoreL17RemapGenericFloatI18TexFormatARGBFloat17TexFormatRGBAHalfEEvPKNS_9InnerInfoE
Ggf:_Collection_1_CheckWritable_m691269733_gshared
hT:__ZN11AudioSource21ApplyCachedParametersE12SoundChannel
jvh:__Z54RuntimeInvoker_Void_t1841601450_IntPtr_t_RuntimeObjectPFvvEPK10MethodInfoPvPS4_
ohg:_GenericTypeParameterBuilder_GetAttributeFlagsImpl_m3338182267
ZX:__ZN13Simd4iFactoryIN6detail9FourTupleEEC2Eiiii
hUe:_SynchronizedReader__ctor_m1408327515
lwi:_X509Store_LoadCrl_m1146720614
Vqh:__Z59RuntimeInvoker_Int32_t2071877448_KeyValuePair_2_t3749587448PFvvEPK10MethodInfoPvPS4_
Wqf:_ReadOnlyCollection_1_System_Collections_IList_Clear_m1858417639_gshared
F$d:_Slot_t2022531261_marshal_pinvoke_cleanup
CIi:_UnityAction_3_Invoke_m1025098032_gshared
T1a:__ZN15SerializeTraitsI33EnlightenTerrainChunksInformationE8TransferI14SafeBinaryReadEEvRS0_RT_
EKc:__ZN6b2Body12SetTransformERK6b2Vec2f
Jbc:__ZNK32RendererMaterialAnimationBinding9BindValueER6ObjectRKN11UnityEngine9Animation14GenericBindingERNS3_10BoundCurveE
s_a:__Z13GetIAnimationv
_qa:__ZL18stbir__support_onef
G3e:_List_1_System_Collections_IList_Remove_m2040310137_gshared
Xki:_Bounds_SetMinMax_m2094075031_AdjustorThunk
Idi:_Match_get_Regex_m3526002767
jvg:__ZL49Stream_t3255436806_CustomAttributesCacheGeneratorP21CustomAttributesCache
f4g:__Z48RuntimeInvoker_Boolean_t3825574718_RuntimeObjectPFvvEPK10MethodInfoPvPS4_
eyc:__Z26Transfer_UnityEngineObjectI9JSONWriteLb0EEvRK29SerializationCommandArgumentsR31RuntimeSerializationCommandInfo
OYa:__ZNSt3__26vectorIN4core12basic_stringIcNS1_20StringStorageDefaultIcEEEE13stl_allocatorIS5_L18MemLabelIdentifier1ELi16EEE6assignINS_11__wrap_iterIPS5_EEEENS_9enable_ifIXaasr21__is_forward_iteratorIT_EE5valuesr16is_constructibleIS5_NS_15iterator_traitsISF_E9referenceEEE5valueEvE4typeESF_SF_
B9f:_UInt32_System_IConvertible_ToInt16_m2251335934_AdjustorThunk
r7c:__ZNSt3__27__sort5IRNS_6__lessIN2UI14DepthSortEntryES3_EEPS3_EEjT0_S7_S7_S7_S7_T_
xSd:_Boolean_System_IConvertible_ToType_m3990189691
Glj:__ZNSt3__218uninitialized_copyIPNS_4pairIK10KeyWrapperINS1_IPK11Il2CppImageP11Il2CppClassEEEjEESC_EET0_T_SE_SD_
Ca:invoke_vdd
Ufa:__ZN14dense_hash_mapIN4core12basic_stringIcNS0_20StringStorageDefaultIcEEEE13dynamic_arrayI4PPtrI6SpriteELj4EE20StringHash32FunctionIS4_ENSt3__28equal_toIS4_EE13stl_allocatorINSC_4pairIKS4_S9_EEL18MemLabelIdentifier81ELi16EEE15set_deleted_keyERSH_
h1h:_InternalEnumerator_1_Dispose_m3838127340_AdjustorThunk
pce:_Double_System_IConvertible_ToUInt32_m624993430
EYg:__ZL89PointerEventData_t1599784723_CustomAttributesCacheGenerator_U3CdraggingU3Ek__BackingFieldP21CustomAttributesCache
_9b:__ZNK30SpriteRendererAnimationBinding12GetPPtrValueERKN11UnityEngine9Animation10BoundCurveE
Q4c:__ZZ29InitializeTextRenderingModulevEN27cleanupAfterLoadRegistrator7ForwardEv
e5f:_Scheduler_Add_m376749205
IA:__ZN27AnimationLayerMixerPlayable24ProcessAnimationLayerMixEP33AnimationPlayableEvaluationOutputP35AnimationPlayableEvaluationConstantP32AnimationPlayableEvaluationInputS1_if
W$b:__Z29PluginsIssueRenderingExtEvent26UnityRenderingExtEventTypePv
Sbj:_WebRequestUtils_RedirectTo_m675215376
j3h:_InternalEnumerator_1_Dispose_m3464626239_AdjustorThunk
Kac:__Z14RandomRotationP9Texture2DPhiiii
jZe:_OutOfMemoryException__ctor_m1932883273
L$h:_InternalEnumerator_1_MoveNext_m1594563423_AdjustorThunk
yxe:_SimpleCollator_IsIgnorable_m2485013022
q1i:_Physics2D_GetColliderFromInstanceID_m2716839224
t7e:_List_1_System_Collections_IList_Insert_m2036969360_gshared
$Md:_InputField_GetUnclampedCharacterLineFromPosition_m1912794077
jRe:_ReadDelegate__ctor_m885671467
r0h:_InternalEnumerator_1_System_Collections_IEnumerator_Reset_m4085710193_AdjustorThunk
V8d:_DateTimeOffset_ToString_m2121173678_AdjustorThunk
hIg:__ZL50X509Crl_t1699034837_CustomAttributesCacheGeneratorP21CustomAttributesCache
Cfh:__Z74RuntimeInvoker_RuntimeObject_RuntimeObject_Int16_t4041245914_RuntimeObjectPFvvEPK10MethodInfoPvPS4_
jj:_JS_WebRequest_SetResponseHandler
P0j:_glDeleteProgram__wrapper
mlc:__Z50Register_UnityEngine_Camera_INTERNAL_get_pixelRectv
wSi:_player_Update_m2878195153
hsa:__ZN6prcoreL18BlitFloatToIntegerERK14ImageReferenceRS0_
IFe:_X509CertificateCollection_get_Item_m410866272
tPi:_EqualityComparer_1_System_Collections_IEqualityComparer_Equals_m1705945391_gshared
VNc:__ZN7b2Timer5ResetEv
i$:__ZN11UnityEngine15CloudWebService14RestDownloader17OnCompleteContentEv
TJd:_LayoutGroup_SetChildAlongAxis_m1615929339
Gfh:__Z75RuntimeInvoker_RuntimeObject_RuntimeObject_Double_t4078015681_RuntimeObjectPFvvEPK10MethodInfoPvPS4_
Ueh:__Z200RuntimeInvoker_Boolean_t3825574718_RuntimeObject_RuntimeObject_RuntimeObject_Int32_t2071877448_DateTimeU26_t3448131235_SByte_t454417549_BooleanU26_t3168250738_SByte_t454417549_ExceptionU26_t1467204777PFvvEPK10MethodInfoPvPS4_
Sa:invoke_viffi
EC:__ZN17AnimationPlayable28UpdateInternalStateRecursiveILi1ELb0EEEvPK35AnimationPlayableEvaluationConstant
$Ri:_U3CDelayedSelfDestroyU3Ec__Iterator0_MoveNext_m3228777579
lzj:__ZN6il2cpp2gcL10CleanupCCWEPvS1_
Va:invoke_vifff
jWh:_InternalEnumerator_1__ctor_m2111763266_gshared
Lnc:__Z53Register_UnityEngine_Input_INTERNAL_get_mousePositionv
B$j:_glGetVertexAttribiv__wrapper
Qe:_emscripten_request_fullscreen
EYi:__ZL25UnresolvedVirtualCall_212P12Il2CppObjecti40CustomAttributeTypedArgument_t1498197914PK10MethodInfo
jLb:__ZN20LocalFileSystemWebGL6DeleteER13FileEntryDatab
eae:_Decimal_System_IConvertible_ToUInt16_m1621568250
Se:_emscripten_glDisableVertexAttribArray
Wm:FUNCTION_TABLE_iiiifiiii
_5f:_TimeSpan_get_TotalMinutes_m1645177229_AdjustorThunk
nc:invoke_fifffi
pBh:_Enumerator__ctor_m3539306986_gshared
Doa:__ZN4gles23ClearCurrentFramebufferEP7ApiGLESbbbRK10ColorRGBAffi
cB:__ZN7mecanim12statemachine20CreateStateWorkspaceEjjjRNS_6memory9AllocatorE
YAe:__ZN21InterfaceFuncInvoker3IP22ByteU5BU5D_t3397334013S1_iiE6InvokeEjP11Il2CppClassP12Il2CppObjectS1_ii
iXh:_InternalEnumerator_1_System_Collections_IEnumerator_get_Current_m3680087284_gshared
bf:_emscripten_glDeleteObjectARB
Yf:_IMG_Load
ZUe:_UnexceptionalStreamReader_Read_m3839775235
Xpi:_Input_get_compositionCursorPos_m1028058884
xta:__ZN6prcoreL27StretchGenericFloatBilinearI18TexFormatARGBFloatEEvPKNS_9InnerInfoE
lqc:__Z53Register_UnityEngine_RenderTexture_Internal_GetHeightv
cwe:_Dropdown_GetOrAddComponent_TisRuntimeObject_m2875934266_gshared
QUf:_RealProxy_SetTargetDomain_m3940877656
ita:__ZN6prcoreL17RemapGenericFloatI17TexFormatRGBAHalf18TexFormatARGBFloatEEvPKNS_9InnerInfoE
Xce:_Enum_System_IConvertible_ToInt32_m2459904362
Jfh:__Z61RuntimeInvoker_RuntimeObject_Double_t4078015681_RuntimeObjectPFvvEPK10MethodInfoPvPS4_
fNc:__ZNSt3__27__sort4IRN18Overlap2DQueryBase29ColliderHitsByDepthComparitorEPP10Collider2DEEjT0_S7_S7_S7_T_
Itc:__Z14GetBuiltinSkini
$wf:_ContentInfo__ctor_m3871771681
owd:_BaseInput_set_compositionCursorPos_m2632248731
XQi:_Enumerator_System_Collections_IEnumerator_Reset_m2573763156_gshared
Dsh:__Z74RuntimeInvoker_Void_t1841601450_Int32_t2071877448_MonoResource_t3127387157PFvvEPK10MethodInfoPvPS4_
FPe:_DirectoryInfo_Initialize_m2216118894
Xqd:_WindowsIdentity_Dispose_m2649088337
rpb:__ZN2UI13RectTransform23VirtualRedirectTransferER14SafeBinaryRead
Jfb:__ZN24GenerateTypeTreeTransfer8TransferINSt3__26vectorIN4core12basic_stringIcNS3_20StringStorageDefaultIcEEEE13stl_allocatorIS7_L18MemLabelIdentifier13ELi16EEEEEEvRT_PKc17TransferMetaFlags
Fef:_Collection_1_System_Collections_IList_Contains_m323652826_gshared
U0e:_List_1_System_Collections_ICollection_get_SyncRoot_m3733894943_gshared
d6e:_List_1_Reverse_m302978607_gshared
Dlb:__ZNSt3__26vectorIN9ShaderLab20SerializedSubProgramENS_9allocatorIS2_EEE6assignIPS2_EENS_9enable_ifIXaasr21__is_forward_iteratorIT_EE5valuesr16is_constructibleIS2_NS_15iterator_traitsIS9_E9referenceEEE5valueEvE4typeES9_S9_
qAc:__Z18Transfer_BlittableI8JSONReadLb0E8BitFieldEvRK29SerializationCommandArgumentsR31RuntimeSerializationCommandInfo
KVf:_SoapServices_RegisterInteropXmlType_m2949236705
xkj:__ZNK15dense_hashtableINSt3__24pairIK10KeyWrapperIPK10Il2CppTypeEjEES6_N6il2cpp8metadata14Il2CppTypeHashEN14dense_hash_mapIS6_jSB_NS6_14EqualsComparerINSA_26Il2CppTypeEqualityComparerEEENS0_9allocatorIS8_EEE9SelectKeyESF_SH_E10test_emptyERK24dense_hashtable_iteratorIS8_S6_SB_SJ_SF_SH_E
zEb:__ZL17Transfer_GUIStyleI18StreamedBinaryReadILb1EELb0EEvRK29SerializationCommandArgumentsR31RuntimeSerializationCommandInfo
$ud:_String_CharCopy_m2550399897
ugh:__Z234RuntimeInvoker_RuntimeObject_Int16_t4041245914_RuntimeObject_Int32_t2071877448_Int32_t2071877448_Int32_t2071877448_SByte_t454417549_SByte_t454417549_SByte_t454417549_SByte_t454417549_Int16_t4041245914_SByte_t454417549_SByte_t454417549PFvvEPK10MethodInfoPvPS4_
Jjb:__ZN9ShaderLab14SerializedPass8TransferI14SafeBinaryReadEEvRT_
Auc:__Z71Register_UnityEngine_GUILayoutUtility_INTERNAL_CALL_Internal_MoveWindowv
QV:__ZN12AudioManager16SetListenerPauseEb
QGc:__ZNSt3__26__sortIRN10ClipperLib12LocMinSorterEPNS1_12LocalMinimumEEEvT0_S6_T_
Ctj:__ZN6il2cpp2vm9Exception25RaiseOutOfMemoryExceptionERKNS_5utils10StringViewIDsEE
gff:_Collection_1_IsValidItem_m2254106115_gshared
Agg:_TypeBuilder_GetEvent_m3876348075
BSh:_Slider_OnMove_m641164662
ea:invoke_viiiiiiiiiii
COj:___syscall_ret
h5f:_Scheduler__ctor_m3716265742
NCe:_MACAlgorithm_Final_m4076939925
T6b:__ZN14qsort_internal30FindAndMovePivotToLastPositionIP8Vector2fi26PointDistanceSortPredicateEEvT_S4_T0_T1_
MCf:_TlsServerKeyExchange_ProcessAsSsl3_m462106368
j6a:__ZN11ChannelInfo8TransferI19StreamedBinaryWriteILb0EEEEvRT_
QWh:_InternalEnumerator_1_System_Collections_IEnumerator_get_Current_m3583252352_gshared
Tsi:_Object_op_Implicit_m1757773010
bgg:_EnumBuilder_get_FullName_m2818393911
pTb:__ZN14qsort_internal13Partition3WayIP17RODataReplacementi19ROSorterReplacementEENSt3__24pairIT_S6_EES6_S6_T0_T1_
gTe:_StreamAsyncResult_get_Done_m2858832609
zmc:__Z34Register_UnityEngine_Gradient_Initv
_Ki:_ObjectPool_1_set_countAll_m1742773675_gshared
gYf:_SerializationEntry_get_Value_m1628109884_AdjustorThunk
Rwd:_BaseInputModule_GetAxisEventData_m3903709281
yve:_Array_InternalArray__get_Item_TisUriScheme_t1876590943_m1821482697_gshared
dtf:_BigInteger__ctor_m3239748086
e5a:__ZN13ScreenManager23SetIsOrientationEnabledE18EnabledOrientationb
LVi:__ZL24UnresolvedVirtualCall_57P12Il2CppObjectiPK10MethodInfo
rBi:_HitInfo_SendMessage_m3395411273
uFg:__ZL79Convert_t2607082565_CustomAttributesCacheGenerator_Convert_ToUInt16_m1043031438P21CustomAttributesCache
OA:__ZN7mecanim5human25HumanPoseAddOverrideLayerERNS0_9HumanPoseERKS1_fRKNS_6bitsetILj70EEE
i9b:__ZN13ProduceHelperI9TransformLb0EE7ProduceE18MemLabelIdentifier18ObjectCreationMode
WYi:__ZL25UnresolvedVirtualCall_230P12Il2CppObject19Vector3_t2243707580PK10MethodInfo
jgh:__Z42RuntimeInvoker_AlertDescription_t844791462PFvvEPK10MethodInfoPvPS4_
lgi:_Alternation_get_Alternatives_m1445219249
lHh:_DefaultComparer_GetHashCode_m2506382068_gshared
TKh:_EqualityComparer_1_System_Collections_IEqualityComparer_GetHashCode_m1012273405_gshared
Nne:_Array_InternalArray__ICollection_Add_TisHitInfo_t1761367055_m2956071622_gshared
D1h:_InternalEnumerator_1_MoveNext_m470170271_AdjustorThunk
fLa:__ZN10GameObject23VirtualRedirectTransferER18StreamedBinaryReadILb0EE
D_e:_Enumerator_get_Current_m2577424081_gshared
J4h:_InternalEnumerator_1_Dispose_m2270401482_AdjustorThunk
tg:_glFrontFace
HXf:_ObjectRecord_get_IsUnsolvedObjectReference_m2202692850
aPf:_FactoryCache_Cleanup_m4130035987
Kbi:__ZN23InterfaceActionInvoker1IP18Context_t502196753E6InvokeEjP11Il2CppClassP12Il2CppObjectS1_
uAi:_Vector2_op_Addition_m4229571528
L9i:__ZNK15dense_hashtableINSt3__24pairIK10KeyWrapperIPK19Il2CppGenericMethodEPK26Il2CppGenericMethodIndicesEES6_N6il2cpp8metadata23Il2CppGenericMethodHashEN14dense_hash_mapIS6_SA_SE_NS6_14EqualsComparerINSD_26Il2CppGenericMethodCompareEEENS0_9allocatorISB_EEE9SelectKeyESI_SK_E12test_deletedEj
h8b:__ZN13ProduceHelperI19LowerResBlitTextureLb0EE7ProduceE18MemLabelIdentifier18ObjectCreationMode
qYb:__ZNSt3__26vectorI16ShadowCasterData13stl_allocatorIS1_L18MemLabelIdentifier2ELi16EEE21__push_back_slow_pathIKS1_EEvRT_
dag:_UInt32_ToString_m1783596809
Raf:_List_1_Sort_m269561757_gshared
xZj:_glUniform1i__wrapper
z5c:__Z51Register_UnityEngine_TextGenerator_GetLinesInternalv
qRi:_HashSet_1_Init_m1258286688_gshared
Hvi:_X509ExtensionCollection_get_Item_m4212651995
fnf:_ReadOnlyCollection_1_System_Collections_IList_RemoveAt_m525136953_gshared
ble:__ZN21InterfaceFuncInvoker1Ii19Vector4_t2243707581E6InvokeEjP11Il2CppClassP12Il2CppObjectS0_
zsa:__ZN6prcoreL17RemapGenericFloatI17TexFormatRGBFloat18TexFormatRGBAFloatEEvPKNS_9InnerInfoE
fYi:__ZL25UnresolvedVirtualCall_187P12Il2CppObject20TimeSpan_t3430258949S1_PK10MethodInfo
iag:_UInt64_System_IConvertible_ToBoolean_m3012279573_AdjustorThunk
Z7f:_Type_get_IsGenericTypeDefinition_m2147901038
$fd:__ZN20UnityConnectSettings10InitializeEv
fci:_ContextAttribute_Freeze_m4133346275
pHe:_GregorianCalendar__ctor_m3794576475
_9f:_UInt32_TryParse_m4283512434
aDi:_TrackedReference_GetHashCode_m1278837032
_Jc:__ZN16PhysicsManager2D12BeginContactEP9b2Contact
Qxj:__ZN15dense_hashtableI10KeyWrapperIP18Il2CppGenericClassES3_N6il2cpp8metadata22Il2CppGenericClassHashEN14dense_hash_setIS3_S6_NS3_14EqualsComparerINS5_25Il2CppGenericClassCompareEEENSt3__29allocatorIS3_EEE8IdentityESA_SD_E8min_sizeEjj
CN:__ZN9AudioClip11CreateSoundEv
Xyh:_ShimEnumerator_MoveNext_m3313047792_gshared
Wmb:__ZN9ShaderLab20SerializedSubProgram15VectorParameter8TransferI19StreamedBinaryWriteILb0EEEEvRT_
F6f:_TimeSpan_op_Inequality_m257547441
gpj:__ZN14dense_hash_mapI10KeyWrapperINSt3__24pairIPK9FieldInfoP11Il2CppClassEEEj17ReflectionMapHashIS8_ENS9_14EqualsComparerINS1_8equal_toIS8_EEEENS1_9allocatorINS2_IKS9_jEEEEEC2EjRKSB_RKSF_
Ikj:__ZNK15dense_hashtableINSt3__24pairIK10KeyWrapperINS1_IPK10MethodInfoP11Il2CppClassEEEjEES9_17ReflectionMapHashIS8_EN14dense_hash_mapIS9_jSD_NS9_14EqualsComparerINS0_8equal_toIS8_EEEENS0_9allocatorISB_EEE9SelectKeyESI_SK_E13find_positionERSA_
Vfg:_EnumBuilder_get_Assembly_m4285228003
$ka:__ZN13GfxDeviceGLES20CreateComputeProgramEPKhj
e3d:_DateTimeFormatInfo_get_RoundtripPattern_m562440017
ufd:__ZN11UnityEngine7Connect16PersistentValues13RestoreValuesER8JSONRead
cKi:_U3CStartU3Ec__Iterator0_System_Collections_Generic_IEnumeratorU3CobjectU3E_get_Current_m1702093362_gshared
xIa:__ZN20ArchiveStorageReader31TryToReadDirectoryFromBlockDataEyPKvj
kIh:_DefaultComparer__ctor_m3947565964_gshared
Wbe:_Double_System_IConvertible_ToByte_m3004284950_AdjustorThunk
OVf:_TypeEntry_get_AssemblyName_m1762285107
erh:__Z55RuntimeInvoker_Int32_t2071877448_LabelFixup_t4090909514PFvvEPK10MethodInfoPvPS4_
Svj:__ZN6il2cpp2vmL11GetIdentityEP14Il2CppIUnknown
hIj:_GC_push_gc_structures
uTi:_PCMReaderCallback_BeginInvoke_m2451387560
aCd:_AspectRatioFitter_get_aspectRatio_m3023618874
jIf:_ServicePointManager_get_ServerCertificateValidationCallback_m1409951209
Zdj:__ZN6il2cpp6icalls8mscorlib6SystemL8IsPublicEPK9EventInfo
_Qf:_Enumerator__ctor_m3782962052
Gnj:__ZN15dense_hashtableINSt3__24pairIK10KeyWrapperIPK14Il2CppAssemblyEPK22Il2CppMonoAssemblyNameEES6_N6il2cpp5utils11PointerHashIS4_EEN14dense_hash_mapIS6_SA_SF_NS6_14EqualsComparerINS0_8equal_toIS5_EEEENS0_9allocatorISB_EEE9SelectKeyESK_SM_E4swapERSP_
G0d:_Enumerator_get_Current_m1271212567
tFj:__ZThn4_N6il2cpp2vm13ComObjectBase18ReleaseMarshalDataEP13Il2CppIStream
yza:__Z22GetShaderCachePathGLESv
meh:__Z51RuntimeInvoker_UInt16_t986882611_Double_t4078015681PFvvEPK10MethodInfoPvPS4_
lt:__ZNSt3__26vectorIN13AnimationClip10FloatCurveE13stl_allocatorIS2_L18MemLabelIdentifier26ELi16EEE6resizeEj
aRc:__Z41Rigidbody2D_CUSTOM_INTERNAL_CALL_AddForceP12Il2CppObjectRK13Vector2fIcallN11Rigidbody2D9ForceModeE
VIf:_IPAddress_ParseIPV6_m2209709575
fPh:_U3CClickRepeatU3Ec__Iterator0_MoveNext_m1747924386
Rsf:_Comparison_1_Invoke_m1670081898_gshared
WTh:_Toggle_set_group_m3833595685
tPd:_LayoutRebuilder_ForceRebuildLayoutImmediate_m566681977
C6a:__ZNSt3__213__stable_sortIRNS_4lessI4PPtrI11SpriteAtlasEEENS_11__wrap_iterIPS4_EEEEvT0_SA_T_NS_15iterator_traitsISA_E15difference_typeEPNSD_10value_typeEi
kza:__ZNSt3__26vectorIPN19ConstantBuffersGLES11ConstBufferENS_9allocatorIS3_EEE21__push_back_slow_pathIKS3_EEvRT_
Vne:_Array_InternalArray__ICollection_Add_TisVector4_t2243707581_m698578249_gshared
Dxi:_PropertyName_ToString_m1129982609_AdjustorThunk
L3:__ZN8keywords6CreateEPKc
S:Math_imul
Gab:__ZN14SpriteRenderer15SetupPropertiesEv
s4a:__ZN11PlayerPrefs6GetIntERKN4core12basic_stringIcNS0_20StringStorageDefaultIcEEEEi
K8i:__ZN6il2cpp5utils13dynamic_arrayIPK10Il2CppTypeLj4EEC2ERKS5_
yrd:_SecurityFrame_t1002202659_marshal_pinvoke_back
g5c:__Z45TextGenerator_CUSTOM_INTERNAL_get_rectExtentsP12Il2CppObjectP5RectTIfE
xxf:_CertificateValidationCallback_Invoke_m2500463874
Rie:_SetPropertyUtility_SetStruct_TisChar_t3454481338_m2333420724_gshared
jff:_Collection_1_IsSynchronized_m2601980439_gshared
b$d:_Hashtable_ContainsKey_m2716576664
NGa:__Z18ReadStringFromFilePN4core17string_with_labelILi1EEERKNS_12basic_stringIcNS_20StringStorageDefaultIcEEEE
jei:_PatternCompiler_EmitCategory_m1696942454
pae:_Decimal_decimalFloorAndTrunc_m3655683429
noe:_Array_InternalArray__ICollection_CopyTo_TisInt32_t2071877448_m984622488_gshared
x5:__ZN18ScriptingArguments9AddObjectE18ScriptingObjectPtr
y9c:__Z39CanvasGroup_Get_Custom_PropInteractableP12Il2CppObject
uY:__ZN11UnityEngine15CloudWebService16SessionContainerD2Ev
Ffd:__ZL38InitializeUnityConnectScriptingClassesv
F0b:__ZN13ProbeRenderer8ConvolveEbijjb
Toa:__ZN17GenericDynamicVBOC2ER9GfxDevice13GfxBufferModejj
Ebi:_Context_get_HasDynamicSinks_m1998518649
tNc:__Z28GetPhysics2DScriptingClassesv
Jsc:__ZZN10GUIManager14InitGUIManagerEvEN41PreUpdateIMGUISendQueuedEventsRegistrator7ForwardEv
eIi:_UnityAction_1_Invoke_m2903588655_gshared
NZ:__ZN11UnityEngine15CloudWebService17SessionEventQueue10PurgeItemsEj
Vvd:_AbstractEventData_get_used_m4208553917
k1b:__ZN6Camera16StandaloneRenderENS_10RenderFlagEP6ShaderRKN4core12basic_stringIcNS3_20StringStorageDefaultIcEEEE
NPd:_Array_System_Collections_IList_get_Item_m2088124007
fQd:_Array_GetLength_m2083296647
jOi:_SymmetricTransform_OFB_m397918932
yCg:__ZL58SecurityElement_t2325568386_CustomAttributesCacheGeneratorP21CustomAttributesCache
f$a:__ZNK12CubemapArray13GetIsReadableEv
NYd:_SynchronizedArrayListWrapper_ToArray_m1522185111
TDb:__Z18Transfer_BlittableI18StreamedBinaryReadILb1EELb1EtEvRK29SerializationCommandArgumentsR31RuntimeSerializationCommandInfo
ard:_SecurityContext_get_FlowSuppressed_m420202521
T9g:__Z55RuntimeInvoker_DayOfWeek_t721777893_DateTime_t693205669PFvvEPK10MethodInfoPvPS4_
ija:__ZN9GfxDevice20DeallocRenderSurfaceEP17RenderSurfaceBase
Bbg:_ValueType_ToString_m3796301715
Sua:__ZN20GpuProgramParameters36UpdatePrepareValuesMaximumBufferSizeEv
jyj:__ZNK15dense_hashtableI10KeyWrapperIP18Il2CppGenericClassES3_N6il2cpp8metadata22Il2CppGenericClassHashEN14dense_hash_setIS3_S6_NS3_14EqualsComparerINS5_25Il2CppGenericClassCompareEEENSt3__29allocatorIS3_EEE8IdentityESA_SD_E12test_deletedEj
coc:__Z53Register_UnityEngine_Quaternion_INTERNAL_CALL_Inversev
Are:_Array_qsort_TisUICharInfo_t3056636800_m2607408901_gshared
bBi:_Screen_get_height_m3831644396
VMa:__ZN12BaseRenderer23RendererBecameInvisibleEv
_Sc:__ZN20TextRenderingPrivate8FontImpl13CharacterInfo8TransferI18StreamedBinaryReadILb0EEEEvRT_
gBb:__Z29Transfer_Blittable_ArrayFieldI24GenerateTypeTreeTransferfEvRT_R9ArrayInfoRK23StaticTransferFieldInfo
sba:__ZNSt3__26__treeINS_12__value_typeIN4core12basic_stringIcNS2_20StringStorageDefaultIcEEEES6_EENS_19__map_value_compareIS6_S7_NS_4lessIS6_EELb1EEE13stl_allocatorIS7_L18MemLabelIdentifier13ELi16EEE7destroyEPNS_11__tree_nodeIS7_PvEE
e8g:__Z76RuntimeInvoker_RuntimeObject_RuntimeObject_SByte_t454417549_SByte_t454417549PFvvEPK10MethodInfoPvPS4_
z2b:__ZN19CustomRenderTexture9AddParentE4PPtrIS_E
HXh:_InternalEnumerator_1_MoveNext_m930150026_AdjustorThunk
g3a:__ZN8Gradient8TransferI14SafeBinaryReadEEvRT_
wJi:_UnityEvent_1_Invoke_m1533100983_gshared
NYa:__ZNSt3__26vectorIN4core12basic_stringIcNS1_20StringStorageDefaultIcEEEE13stl_allocatorIS5_L18MemLabelIdentifier1ELi16EEE7reserveEj
nIf:_FileWebRequest__ctor_m4003648606
G1g:__ZL71SpriteState_t1353336012_CustomAttributesCacheGenerator_m_DisabledSpriteP21CustomAttributesCache
Zce:_Enum_System_IConvertible_ToSByte_m3488526280
rkg:_TypeBuilder_ToString_m1952363535
Hhb:__ZN18IDCollectorFunctorD0Ev
P9i:__ZNK15dense_hashtableI10KeyWrapperIPK19Il2CppGenericMethodES4_N6il2cpp8metadata23Il2CppGenericMethodHashEN14dense_hash_setIS4_S7_NS4_14EqualsComparerINS6_26Il2CppGenericMethodCompareEEENSt3__29allocatorIS4_EEE8IdentityESB_SE_E4findERKS4_
vrb:__ZNK20LocalFileSystemPosix9IsSymLinkERK13FileEntryData
bHj:_GC_new_free_list_inner
ZGh:_DefaultComparer_Equals_m85211180_gshared
lif:_Collection_1_System_Collections_IList_IndexOf_m1950953062_gshared
gXe:_MonoType_InternalGetEvent_m532443236
ehf:_Collection_1_IndexOf_m2700825189_gshared
k6h:_Comparer_1_get_Default_m2605397692_gshared
ZFi:_MathfInternal__cctor_m2774058555
oxb:__Z35Transfer_Blittable_FixedBufferFieldI17RemapPPtrTransferiEvRK29SerializationCommandArgumentsR31RuntimeSerializationCommandInfo
YH:__ZN25RuntimeAnimatorController8TransferI14SafeBinaryReadEEvRT_
eBc:__ZN8JSONRead8TransferI10RectOffsetEEvRT_PKc17TransferMetaFlagsb
Bwj:__ZNK15dense_hashtableINSt3__24pairIK10KeyWrapperINS1_IPKcS4_EEEiEES6_24NamespaceAndNamePairHashN14dense_hash_mapIS6_iS9_NS6_14EqualsComparerI26NamespaceAndNamePairEqualsEENS0_9allocatorIS8_EEE9SelectKeyESD_SF_E12test_deletedERK24dense_hashtable_iteratorIS8_S6_S9_SH_SD_SF_E
vZ:__ZN9JSONWrite8TransferIN11UnityEngine15CloudWebService14DataErrorEvent15FileErrorDetailEEEvRT_PKc17TransferMetaFlags
Avd:_Decoder__ctor_m2623573910
iSa:__Z21ClearFenceWithoutSyncR8JobFence
FQ:__ZN12SoundManager20RegisterModifiedClipEP10SampleClip
hni:_Logger__ctor_m1903664092
aT:__ZN11AudioSource4PlayEd
cAj:__ZN6il2cpp2vm6Object16GetVirtualMethodEP12Il2CppObjectPK10MethodInfo
yRi:_HashSet_1_Add_m199171953_gshared
G7i:__ZN15dense_hashtableI10KeyWrapperIPK17Il2CppGenericInstES4_N6il2cpp8metadata21Il2CppGenericInstHashEN14dense_hash_setIS4_S7_NS4_14EqualsComparerINS6_24Il2CppGenericInstCompareEEENSt3__29allocatorIS4_EEE8IdentityESB_SE_E13set_empty_keyERKS4_
urb:__ZNK20LocalFileSystemPosix8IsHiddenERK13FileEntryData
TJh:_EqualityComparer_1_System_Collections_IEqualityComparer_Equals_m3589836321_gshared
yCe:_SmallXmlParser_IsNameChar_m1561000202
Aui:_X501__cctor_m2610532554
Xxg:__ZL95SafeHandle_t2733794115_CustomAttributesCacheGenerator_SafeHandle_DangerousGetHandle_m1328172664P21CustomAttributesCache
Uqh:__Z48RuntimeInvoker_Int32_t2071877448_Link_t865133271PFvvEPK10MethodInfoPvPS4_
byh:_Enumerator_VerifyState_m3173176371_gshared
bvd:_StringComparer__ctor_m2275216983
jij:__ZNSt3__214__split_bufferINS_12basic_stringIcNS_11char_traitsIcEENS_9allocatorIcEEEERNS4_IS6_EEED2Ev
P9e:_List_1_CheckCollection_m2220107869_gshared
$$a:__ZN7Cubemap23VirtualRedirectTransferER18StreamedBinaryReadILb0EE
Mzf:_RecordProtocol_EncodeRecord_m3884270352
pnd:_SHA256_Create_m896954069
O2c:_Read_CVT
Z5d:_Convert_ToUInt32_m776714429
KIa:__ZN12FileAccessor4SeekEx10FileOrigin
ssh:__Z66RuntimeInvoker_Void_t1841601450_Int32_t2071877448_Slot_t2022531261PFvvEPK10MethodInfoPvPS4_
Wzb:__ZL26Transfer_SimpleNativeClassI24GenerateTypeTreeTransfer17AnimationCurveTplIfELb0EEvRK29SerializationCommandArgumentsR31RuntimeSerializationCommandInfo
eCc:__ZN8JSONRead21TransferSTLStyleArrayI13dynamic_arrayI9BoundsIntLj4EEEEvRT_17TransferMetaFlags
b2a:__ZN24GenerateTypeTreeTransfer8TransferI13dynamic_arrayI33EnlightenTerrainChunksInformationLj4EEEEvRT_PKc17TransferMetaFlags
pmi:_Coroutine_t2299508840_marshal_pinvoke
vca:__ZN16LightmapSettings20DidChangeActiveSceneEP10UnitySceneS1_
wBb:__Z18Transfer_BlittableI19StreamedBinaryWriteILb0EELb0EN4math12int3_storageEEvRK29SerializationCommandArgumentsR31RuntimeSerializationCommandInfo
I3g:__ZL59g_AssemblyU2DCSharp_Assembly_CustomAttributesCacheGeneratorP21CustomAttributesCache
lej:__ZN6il2cpp5utils9PathUtils8BasenameIcEENSt3__212basic_stringIT_NS3_11char_traitsIS5_EENS3_9allocatorIS5_EEEERKSA_
mli:_Camera_INTERNAL_CALL_WorldToScreenPoint_m621432905
muc:__Z35Register_UnityEngine_Event_get_typev
lDe:_PrivateKeyInfo_DecodeRSA_m1427048948
Otj:__ZN6il2cpp2vm9Exception23GetInvalidCastExceptionERKNS_5utils10StringViewIDsEE
kuf:_BigInteger_op_GreaterThanOrEqual_m2643115413
Fcg:_Assembly_FillName_m1934025015
IOe:_IntPtr_op_Explicit_m1073656736
Wtd:_String_IndexOf_m2126171214
hOe:_Int64_ToString_m1544341651_AdjustorThunk
FC:__ZN8Animator28BuildControllerPlayableCacheEv
_Ie:_Guid_CheckNull_m2903986431
AHg:__ZL62CrossContextDelegate_t754146990_CustomAttributesCacheGeneratorP21CustomAttributesCache
Jxi:_Quaternion_Internal_MakePositive_m3988910592
I6:__Z63ThreadAndSerializationSafeCheckGetMonoBehaviourBeingTransferredv
NJj:_GC_enable
HBf:_TlsClientCertificateVerify_ProcessAsSsl3_m3377063356
CDj:__GLOBAL__sub_I_GenericMethod_cpp
Fnj:__ZN15dense_hashtableINSt3__24pairIK10KeyWrapperIPK14Il2CppAssemblyEPK22Il2CppMonoAssemblyNameEES6_N6il2cpp5utils11PointerHashIS4_EEN14dense_hash_mapIS6_SA_SF_NS6_14EqualsComparerINS0_8equal_toIS5_EEEENS0_9allocatorISB_EEE9SelectKeyESK_SM_EC2ERKSP_j
MAd:_StandaloneInputModule_set_repeatDelay_m2820945738
iQe:_EndOfStreamException__ctor_m4268387737
i9f:_UInt16_ToString_m4213290405
Gnc:__Z37Register_UnityEngine_Input_GetAxisRawv
Dbf:_List_1_GetIndex_m433539411_gshared
FAg:__ZL59StreamingContext_t1417235061_CustomAttributesCacheGeneratorP21CustomAttributesCache
UH:__ZNK18AnimatorController28HasMultiThreadedStateMachineEv
ede:_Enum_GetName_m1226611481
G_i:_Func_2_Invoke_m4121137703_gshared
OS:__ZN11AudioSource5ResetEv
OSb:__ZN12ImageFilters27SetSurfaceUseResolvedBufferEP13RenderTextureb
cvh:__Z74RuntimeInvoker_DictionaryEntry_t3048875398_RuntimeObject_Int32_t2071877448PFvvEPK10MethodInfoPvPS4_
Idh:__Z53RuntimeInvoker_DateTime_t693205669_Single_t2076509932PFvvEPK10MethodInfoPvPS4_
R6a:__ZN14Texture2DArray23VirtualRedirectTransferER18StreamedBinaryReadILb0EE
Mgi:_Literal_CompileLiteral_m276843152
ipb:__ZN2UI13RectTransform13AwakeFromLoadE17AwakeFromLoadMode
Igi:_Reference__ctor_m4110013284
PXb:__ZN14qsort_internal30FindAndMovePivotToLastPositionIP20ShadowCasterSortDatai26ShadowCasterSortDataSorterEEvT_S4_T0_T1_
k8i:__ZNK15dense_hashtableI10KeyWrapperIPK19Il2CppGenericMethodES4_N6il2cpp8metadata23Il2CppGenericMethodHashEN14dense_hash_setIS4_S7_NS4_14EqualsComparerINS6_26Il2CppGenericMethodCompareEEENSt3__29allocatorIS4_EEE8IdentityESB_SE_E3endEv
utb:__Z18Transfer_BlittableI14SafeBinaryReadLb1EiEvRK29SerializationCommandArgumentsR31RuntimeSerializationCommandInfo
UYh:_InternalEnumerator_1_System_Collections_IEnumerator_get_Current_m3315293493_AdjustorThunk
DYi:__ZL25UnresolvedVirtualCall_211P12Il2CppObject38CustomAttributeNamedArgument_t94157543PK10MethodInfo
Thb:__ZN17PersistentManager13GetAllFileIDsERKN4core12basic_stringIcNS0_20StringStorageDefaultIcEEEER13dynamic_arrayIxLj8EE
uof:_ReadOnlyCollection_1_GetEnumerator_m713393110_gshared
JUf:_ProxyAttribute_GetPropertiesForNewContext_m3587421540
fRd:_Array_LastIndexOf_m4096535198
OWd:_ArrayList_Add_m1719188324
kce:_Double_System_IConvertible_ToSByte_m1653690240_AdjustorThunk
sgh:__Z59RuntimeInvoker_RuntimeObject_Byte_t3683104436_RuntimeObjectPFvvEPK10MethodInfoPvPS4_
Kki:_Bounds_get_size_m3951110137
Dk:_glGetStringi
yNi:_GUIStyleState_t3801000545_marshal_pinvoke
Xxj:__ZNK15dense_hashtableI10KeyWrapperIP18Il2CppGenericClassES3_N6il2cpp8metadata22Il2CppGenericClassHashEN14dense_hash_setIS3_S6_NS3_14EqualsComparerINS5_25Il2CppGenericClassCompareEEENSt3__29allocatorIS3_EEE8IdentityESA_SD_E10test_emptyERK30dense_hashtable_const_iteratorIS3_S3_S6_SF_SA_SD_E
Nfe:_CultureInfo_set_NumberFormat_m1618950525
M7a:__ZN18StreamedBinaryReadILb0EE21TransferSTLStyleArrayI13dynamic_arrayI8Vector4fLj4EEEEvRT_17TransferMetaFlags
KMf:_X509Store__ctor_m1573680316
ZMf:_X509Chain_get_CertificateCollection_m324631835
eKh:_EqualityComparer_1__cctor_m1011898363_gshared
Qxi:_Quaternion_get_identity_m443011477
LBd:_AnimationTriggers__ctor_m2623627182
zle:_Array_InternalArray__IndexOf_TisClientCertificateType_t4001384466_m1168139450_gshared
mE:__ZN8Animator9WriteStepEy
bhg:_FieldBuilder_get_Name_m2243491233
h_:__ZN11UnityEngine15CloudWebService20WebRequestRestClient18GetResponseHeadersEv
xec:__ZN16PropertyAccessorC2Ev
B4a:__ZNSt3__23mapIN4core12basic_stringIcNS1_20StringStorageDefaultIcEEEE9PrefValueNS_4lessIS5_EENS_9allocatorINS_4pairIKS5_S6_EEEEEixERSB_
pEb:__Z35Transfer_Blittable_FixedBufferFieldI18StreamedBinaryReadILb1EEaEvRK29SerializationCommandArgumentsR31RuntimeSerializationCommandInfo
$dc:__ZN15DirectorManager22ConstructPlayableGraphEv
T4a:__ZN13ScreenManager16SetScreenTimeoutEi
xyb:__Z18Transfer_BlittableI17RemapPPtrTransferLb0EdEvRK29SerializationCommandArgumentsR31RuntimeSerializationCommandInfo
mod:_SymmetricAlgorithm_set_IV_m4262655606
WSh:_StencilMaterial__cctor_m2963056855
yPi:_EqualityComparer_1_System_Collections_IEqualityComparer_Equals_m315020809_gshared
geg:_CustomAttributeNamedArgument_GetHashCode_m3715408876_AdjustorThunk
o5c:__Z38Register_UnityEngine_Font_HasCharacterv
cMf:_X509Certificate2_AppendBuffer_m3517242299
O$b:__Z35IntersectSpherePlaneBoundsOptimizedRKN4math7_float4EPS1_i
Jfe:_CultureInfo_get_IsNeutralCulture_m3874876470
dbe:_Delegate_CreateDelegate_m3813023227
Xii:_Uri_get_AbsoluteUri_m2120317928
JAj:__ZN6il2cpp2os5posix15PosixWaitObject13InterruptWaitEv
LEd:_ColorTween_TweenValue_m3279916815
Tv:__ZN7mecanim6memory16ChainedAllocator10DeallocateEPv
Ywd:_BaseInputModule_IsModuleSupported_m4272494372
Wba:__Z22CleanupLODGroupManagerPv
One:_Array_InternalArray__ICollection_Add_TisContentType_t1028629049_m2984242302_gshared
iuc:__Z21Event_CUSTOM_PopEventP12Il2CppObject
nl:_glUniform3fv
VMj:__ZNK6il2cpp8metadata24Il2CppGenericInstCompareclERK10KeyWrapperIPK17Il2CppGenericInstES8_
Eeb:__ZNSt3__218__insertion_sort_3IRN15ResourceManager10Dependency6SorterEPS2_EEvT0_S6_T_
o0e:_Enumerator_System_Collections_IEnumerator_Reset_m3796537546_AdjustorThunk
U3c:_UNITY_FT_Init_Class_tt_service_gx_multi_masters
Rfh:__Z53RuntimeInvoker_Int32_t2071877448_TimeSpan_t3430258949PFvvEPK10MethodInfoPvPS4_
d1h:_InternalEnumerator_1_System_Collections_IEnumerator_Reset_m3249248421_AdjustorThunk
g6g:__Z64RuntimeInvoker_RuntimeObject_Int32_t2071877448_Int16_t4041245914PFvvEPK10MethodInfoPvPS4_
RWe:_IntComparer_Compare_m3057931085
xWb:__ZNK16LightmapSettings31GetRealtimeLightmapDecodeValuesEv
WR:__ZN5audio5mixer12SetSuspendedERNS0_16AudioMixerMemoryEb
Oib:__ZN17PersistentManager21UnloadNonDirtyStreamsEv
v9g:__Z63RuntimeInvoker_DSAParameters_t1872138834_BooleanU26_t3168250738PFvvEPK10MethodInfoPvPS4_
nqh:__Z62RuntimeInvoker_Boolean_t3825574718_PlayableBinding_t2498078091PFvvEPK10MethodInfoPvPS4_
Duj:__ZN6il2cpp2vm13LivenessStateC2EP11Il2CppClassjPFvPP12Il2CppObjectiPvES7_PFvvESB_
swe:_Array_ConvertAll_TisRuntimeObject_TisRuntimeObject_m2423585546_gshared
rRb:__ZN12ImageFilters4BlitER17ShaderPassContextP7TextureP13RenderTextureiPK18SharedMaterialDataPKcP6ShaderiNS_9BlitFlagsE11CubemapFaceRK8Vector2fSH_
sKf:_Oid__ctor_m1936781897
XZ:__ZN11UnityEngine15CloudWebService10RestClientINS0_23WebRequestRestHeaderMapEED2Ev
J7h:_ResourceSet__ctor_m1222864106
sdf:_Collection_1_System_Collections_IList_get_Item_m3376056117_gshared
Jl:_emscripten_glDepthMask
dyd:__ZN23InterfaceActionInvoker1IP28PointerEventData_t1599784723E6InvokeEjP11Il2CppClassP12Il2CppObjectS1_
mpg:__ZL76UInt16_t986882611_CustomAttributesCacheGenerator_UInt16_TryParse_m1818885113P21CustomAttributesCache
n0e:_Enumerator_VerifyState_m3639069574_gshared
cqa:__ZN4crnd25static_huffman_data_model22prepare_decoder_tablesEv
Scf:_Enumerator_MoveNext_m689054299_gshared
Jtf:_ModulusRing_Difference_m662924064
G0h:_InternalEnumerator_1_MoveNext_m1869236997_gshared
nDd:_CanvasUpdateRegistry_ObjectValidForUpdate_m855695984
cMd:_InputField_set_onValueChanged_m2406388125
htc:__Z23GUIStatePopDisplayIndexv
bmf:_ReadOnlyCollection_1_System_Collections_ICollection_get_SyncRoot_m2702046016_gshared
O2:__ZL22CleanupUnityWebStreamsPv
zGb:__Z18Transfer_BlittableI18StreamedBinaryReadILb0EELb0E10ColorRGBAfEvRK29SerializationCommandArgumentsR31RuntimeSerializationCommandInfo
fHf:_ListDictionary_Add_m4276262662
Aca:__Znaj
Uld:_RIPEMD160Managed_GGG_m1639995340
n1j:_emscripten_glEnableClientState__wrapper
F4:__ZN17MessageIdentifierC2EPKcNS_7OptionsEPKN5Unity4TypeES1_
LAh:_Enumerator_System_Collections_IEnumerator_get_Current_m1648049763_gshared
nMj:__ZN6il2cpp6icalls8mscorlib4Mono8Security12Cryptography18KeyPairPersistence15_ProtectMachineEP12Il2CppString
GTj:dynCall_viiifiii
eah:__Z31RuntimeInvoker_Char_t3454481338PFvvEPK10MethodInfoPvPS4_
PMa:__ZN11GameManager15ThreadedCleanupEv
h8e:_List_1__ctor_m1337392449_gshared
nX:__Z55Register_UnityEngine_AudioSource_get_spatializeInternalv
y6a:__ZN15dense_hashtableINSt3__24pairIKN4core12basic_stringIcNS2_20StringStorageDefaultIcEEEE13dynamic_arrayI4PPtrI6SpriteELj4EEEES6_20StringHash32FunctionIS6_EN14dense_hash_mapIS6_SC_SF_NS0_8equal_toIS6_EE13stl_allocatorISD_L18MemLabelIdentifier81ELi16EEE9SelectKeyESI_SL_E12resize_deltaEjj
KTe:_TextWriter__ctor_m2225796097
Mai:__ZN21InterfaceFuncInvoker0IP24StringU5BU5D_t1642385972E6InvokeEjP11Il2CppClassP12Il2CppObject
hFa:__ZN14SafeBinaryRead8TransferI14ConstantStringEEvRT_PKc17TransferMetaFlags
wma:__ZNK6Camera16GetStereoEnabledEv
at:__ZN13AnimationClip9PPtrCurveaSERKS0_
kbc:__ZN12LightManager15InitializeClassEv
pOa:__ZN9ShaderLab11shaderprops16GetComputeBufferEPK19ShaderPropertySheetS3_NS_16FastPropertyNameE
WRg:__ZL86Logger_t3328995178_CustomAttributesCacheGenerator_Logger_set_filterLogType_m3982626604P21CustomAttributesCache
L5:__ZN18ScriptingArgumentsC2Ev
N6f:_TimeZone_IsDaylightSavingTime_m875882154
XVh:_ArrayReadOnlyList_1_Insert_m503707439_gshared
KYj:_emscripten_glBlendFuncSeparate__wrapper
yyf:_CipherSuiteCollection_System_Collections_IList_set_Item_m750275607
dna:__Z17HasSampledTexture14GraphicsFormat13formatSupport
pSb:__ZNK25CameraStackRenderingState27GetStereoImageEffectTextureEb
Wmd:_SHA1CryptoServiceProvider__ctor_m3127563759
xp:__ZN8Vector3f8TransferI14SafeBinaryReadEEvRT_
Jbj:__ZN6il2cpp6icalls6System6System3Net7Sockets6Socket7ReceiveEiP11Il2CppArrayiiNS4_11SocketFlagsEPi
ohc:__ZN13BuildSettings13GetSceneIndexERKN4core12basic_stringIcNS0_20StringStorageDefaultIcEEEE
w3g:__ZL103BaseVertexEffect_t2504093552_CustomAttributesCacheGenerator_BaseVertexEffect_ModifyVertices_m3446986347P21CustomAttributesCache
Bo:FUNCTION_TABLE_ii
IBh:_Enumerator_MoveNext_m335649778_AdjustorThunk
JMa:__ZN10TagManager8TransferI18StreamedBinaryReadILb0EEEEvRT_
r4g:__Z45RuntimeInvoker_Char_t3454481338_RuntimeObjectPFvvEPK10MethodInfoPvPS4_
HVc:__ZN20TextRenderingPrivate8TextMesh13AwakeFromLoadE17AwakeFromLoadMode
cag:_UInt32_ToString_m3894907091_AdjustorThunk
dke:_Array_InternalArray__IEnumerable_GetEnumerator_TisPlayableBinding_t2498078091_m2095426925_gshared
gri:_Matrix4x4__ctor_m828876617_AdjustorThunk
mGi:_Predicate_1__ctor_m2863314033_gshared
Dfe:_CultureInfo_get_TextInfo_m1582311326
Pme:_Array_ForEach_TisRuntimeObject_m1849351808_gshared
lzh:_ShimEnumerator_get_Key_m616785465_gshared
tOg:__ZL76Object_t1021602117_CustomAttributesCacheGenerator_Object_Destroy_m3959286051P21CustomAttributesCache
cCe:_SmallXmlParser_Error_m1832158746
YPf:_RepeatContext_get_IsLazy_m1620488045
Ck:_glDeleteVertexArrays
hKa:__Z24CreateDirectoryRecursiveRKN4core12basic_stringIcNS_20StringStorageDefaultIcEEEE
aXj:b41
zmb:__ZN9ShaderLab20SerializedSubProgram8TransferI18StreamedBinaryReadILb0EEEEvRT_
kTe:_StreamAsyncResult_get_AsyncWaitHandle_m4218169359
$Wj:b40
u_b:__Z9EndJobSetR8JobFence11JobPriority
Bve:_Array_InternalArray__get_Item_TisContactPoint2D_t3659330976_m825151777_gshared
V5c:__ZN2UI13CanvasManager9AddCanvasEPNS_6CanvasE
J7a:__ZN9Texture3D8TransferI19StreamedBinaryWriteILb0EEEEvRT_
TSb:__ZNK6Camera22CalculateRenderingPathEv
_yc:__ZN9JSONWrite8TransferI5RectTIfEEEvRT_PKc17TransferMetaFlags
WF:__ZN11UnityEngine9Animation37SetGenericRootTransformPropertyValuesERKNS0_30AnimatorGenericBindingConstantERKN7mecanim10ValueArrayER9Transformbb
swa:__Z13ConvertMipmap14GraphicsFormatPKvS_Pviiii
cxf:_ContentInfo_get_Content_m1802070908
OHi:_InvokableCall_4_Find_m2012236736_gshared
Hs:__ZN15SerializeTraitsIKN4math7_float4EE8TransferI14SafeBinaryReadEEvRS2_RT_
Gnd:_SHA384Managed_processBlock_m3232296629
AFe:_X509Certificate_get_PublicKey_m714501701
Bhh:__Z70RuntimeInvoker_Boolean_t3825574718_UInt16_t986882611_Int32_t2071877448PFvvEPK10MethodInfoPvPS4_
jOd:_U3CMouseDragOutsideRectU3Ec__Iterator1_System_Collections_IEnumerator_get_Current_m561728752
lki:_AsyncOperation_InternalDestroy_m2067452588
zYc:_tt_sbit_decoder_load_image
jud:_String_LastIndexOf_m290475879
sGc:__ZN15b2DistanceJointD0Ev
Ske:__ZN21InterfaceFuncInvoker1Ii22UILineInfo_t3621277874E6InvokeEjP11Il2CppClassP12Il2CppObjectS0_
EOg:__ZL113PlayableHandle_t213697122_CustomAttributesCacheGenerator_PlayableHandle_INTERNAL_CALL_IsValidInternal_m3649184361P21CustomAttributesCache
dLd:_Image_get_layoutPriority_m2151045813
Aqj:__ZN15dense_hashtableINSt3__24pairIK10KeyWrapperIP11Il2CppClassES4_EES5_N6il2cpp8metadata16SZArrayClassHashEN14dense_hash_mapIS5_S4_SA_NS5_14EqualsComparerINS9_19SZArrayClassCompareEEENS0_9allocatorIS7_EEE9SelectKeyESE_SG_EC2EjRKSA_RKSE_RKSI_
jse:_Array_Sort_TisInt32_t2071877448_m1860415737_gshared
AUe:_TextReader_Read_m975794707
btc:__ZNSt3__24listIN10GUIManager12SortedScriptE11memory_poolIS2_EE6__sortI13OldSortScriptEENS_15__list_iteratorIS2_PvEESA_SA_jRT_
mag:_UInt64_System_IConvertible_ToChar_m1930853313_AdjustorThunk
CBf:_TlsClientCertificate_SendCertificates_m1096074091
JBd:_UIBehaviour_OnCanvasHierarchyChanged_m762109874
N$d:_SyncHashtable_get_Item_m408601391
$Ag:__ZL45DSA_t903174880_CustomAttributesCacheGeneratorP21CustomAttributesCache
Ycf:_Stack_1_System_Collections_ICollection_CopyTo_m2104527616_gshared
H1f:_StringBuilder_AppendFormat_m1666670800
vlh:__Z97RuntimeInvoker_Boolean_t3825574718_RuntimeObject_TextGenerationSettings_t2543476768_RuntimeObjectPFvvEPK10MethodInfoPvPS4_
Fdd:__ZN18UnityConnectClient12CloseServiceEv
Du:__ZN13AnimationClip8TransferI17RemapPPtrTransferEEvRT_
fyb:__Z18Transfer_BlittableI17RemapPPtrTransferLb1E8BitFieldEvRK29SerializationCommandArgumentsR31RuntimeSerializationCommandInfo
Qsj:__ZN6il2cpp6icalls8mscorlib6System9ThreadingL11ThreadStartEPv
tea:__ZN15DirectorManager12OnSampleTimeEv
Upf:_ReadOnlyCollection_1_System_Collections_IList_Remove_m3878418841_gshared
hMd:_InputField_EnforceContentType_m1902926812
a3a:__ZN15dense_hashtableINSt3__24pairIKiiEEi21InstanceIDHashFunctorN14dense_hash_mapIiiS4_NS0_8equal_toIiEE13stl_allocatorIS3_L18MemLabelIdentifier67ELi16EEE9SelectKeyES7_SA_E12resize_deltaEjj
YCa:__ZN12CachedReader10Align4ReadEv
nKc:__ZN15b2WorldManifold10InitializeEPK10b2ManifoldRK11b2TransformfS5_f
slf:_Collection_1_CopyTo_m42272870_gshared
ct:__Z14resize_trimmedINSt3__26vectorIN13AnimationClip10FloatCurveE13stl_allocatorIS3_L18MemLabelIdentifier26ELi16EEEEEvRT_j
O6:__ZN15dense_hashtableINSt3__24pairIKiP6ObjectEEi21InstanceIDHashFunctorN14dense_hash_mapIiS4_S6_NS0_8equal_toIiEE13stl_allocatorIS5_L18MemLabelIdentifier67ELi16EEE9SelectKeyES9_SC_E12maybe_shrinkEv
b2i:_RaycastHit2D_get_point_m2962370910_AdjustorThunk
JDa:__ZNK9Behaviour22GetTypeVirtualInternalEv
OCd:_CanvasScaler_set_referencePixelsPerUnit_m1188599784
Cqf:_ReadOnlyCollection_1_System_Collections_IList_get_Item_m887129009_gshared
Hsf:_Comparison_1_EndInvoke_m179917407_gshared
I8b:__ZNK28MonoBehaviourPropertyBinding12SetPPtrValueERKN11UnityEngine9Animation10BoundCurveEi
z0b:__Z21GetScriptingArraySize17ScriptingArrayPtr
xSc:__ZN20TextRenderingPrivate8FontImpl8TransferI14SafeBinaryReadEEvRT_
qgi:__ZN23InterfaceActionInvoker1IP19LinkRef_t2090853131E6InvokeEjP11Il2CppClassP12Il2CppObjectS1_
Ttc:__ZN11IMGUIModule21ClearDeveloperConsoleEv
Z4g:__Z110RuntimeInvoker_Boolean_t3825574718_RuntimeObject_SByte_t454417549_Int64U26_t763825331_ExceptionU26_t1467204777PFvvEPK10MethodInfoPvPS4_
eka:__ZN9GfxDevice17ImmediateTexCoordEifff
gfi:_Parser_ParseRegularExpression_m2390577313
e_c:_ft_black_new
tHc:__ZN10ClipperLib7Clipper13AppendPolygonEPNS_5TEdgeES2_
ERd:_Array_double_swapper_m1175307080
ngi:_Alternation_AddAlternative_m623421443
zNf:_X509CertificateEnumerator_System_Collections_IEnumerator_Reset_m327358896
hgh:__Z65RuntimeInvoker_Void_t1841601450_Byte_t3683104436_Byte_t3683104436PFvvEPK10MethodInfoPvPS4_
uqd:_Hash__ctor_m2554411450
ALe:_NumberFormatter_AppendDigits_m1308372770
Iga:__ZN30dense_hashtable_const_iteratorINSt3__24pairIKN4core12basic_stringIcNS2_20StringStorageDefaultIcEEEE10vector_setI4PPtrI11SpriteAtlasENS0_4lessISB_EE13stl_allocatorISB_L18MemLabelIdentifier81ELi16EEEEES6_20StringHash32FunctionIS6_EN14dense_hash_mapIS6_SH_SK_NS0_8equal_toIS6_EESE_ISI_LSF_81ELi16EEE9SelectKeyESN_SO_EC2EPK15dense_hashtableISI_S6_SK_SQ_SN_SO_EPKSI_SX_b
Zrd:_Single_System_IConvertible_ToDateTime_m2510003459_AdjustorThunk
mbe:_Delegate_RemoveImpl_m3666700529
DWj:_emscripten_glUniform4f__wrapper
yHf:_NameObjectCollectionBase_OnDeserialization_m3478980442
cL:__ZN25RuntimeAnimatorControllerC2E18MemLabelIdentifier18ObjectCreationMode
Umi:_CustomYieldInstruction_MoveNext_m3850519634
VLd:_InputField_set_caretColor_m2252440840
pH:__ZN8Animator8TransferI19StreamedBinaryWriteILb0EEEEvRT_
oNa:__ZNK6Camera16GetProjectionFarEv
Oq:__Z24InverseTransformRotationRK23TransformAccessReadOnlyRKN4math7_float4E
UVe:_MissingFieldException__ctor_m1161042282
Mle:_Array_InternalArray__IndexOf_TisSlot_t2267560602_m1912863273_gshared
Uri:_Mesh_get_uv3_m1531319041
A_a:__ZNK14PlayableOutput11DerivesFromE17ScriptingClassPtr
O$a:__ZN7Texture34CreateFileTextureUploadInstructionE18TextureUploadFlagsj
Uja:__ZN9GfxDevice21ResetDynamicResourcesEv
Ixa:__ZN13ComputeShader14SetBufferParamEjRKN9ShaderLab16FastPropertyNameE15ComputeBufferID
uUa:__ZThn280_N31CanvasBatchIntermediateRenderer20OnAssetBoundsChangedEv
$sf:_Comparison_1_EndInvoke_m4174686984_gshared
wYf:_StreamingContext__ctor_m3063421596_AdjustorThunk
Hpf:_ReadOnlyCollection_1_System_Collections_Generic_IListU3CTU3E_Insert_m3054305464_gshared
m8b:__ZN19LowerResBlitTexture13ApplySettingsEv
mqg:__ZL70IntPtr_t_CustomAttributesCacheGenerator_IntPtr_op_Explicit_m3896766622P21CustomAttributesCache
gH:__ZN8Animator8TransferI14SafeBinaryReadEEvRT_
kqj:__ZN15dense_hashtableINSt3__24pairIK10KeyWrapperIP11Il2CppClassES4_EES5_N6il2cpp8metadata16SZArrayClassHashEN14dense_hash_mapIS5_S4_SA_NS5_14EqualsComparerINS9_19SZArrayClassCompareEEENS0_9allocatorIS7_EEE9SelectKeyESE_SG_E4swapERSJ_
TKa:__ZN17GlobalGameManager23VirtualRedirectTransferER18StreamedBinaryReadILb0EE
dme:_Array_InternalArray__IndexOf_TisTypeTag_t141209596_m2882894956_gshared
gSh:_Slider_get_value_m4182660424
DDc:__ZNK14b2CapsuleShape5CloneEP16b2BlockAllocator
tx:__ZN17AnimationPlayable34CollectAnimatorControllerPlayablesER13dynamic_arrayIP26AnimatorControllerPlayableLj4EE
IV:__ZN16BaseVideoTexture19UpdateVideoTexturesEv
DTa:__Z28BuildSingleStreamChannelInfo17ShaderChannelMaskRK20VertexChannelsLayoutS_S2_P11ChannelInfo
vPa:__ZNK16LightmapSettings23HasLightProbeTetrahedraEv
PAf:_Context_get_WriteSequenceNumber_m243492531
l5a:__ZN6Sprite23VirtualRedirectTransferER19StreamedBinaryWriteILb0EE
fwg:__ZL51Assembly_t4268412390_CustomAttributesCacheGeneratorP21CustomAttributesCache
bud:_String_LastIndexOfAny_m1473637802
zqc:__Z38Transform_CUSTOM_INTERNAL_set_positionP12Il2CppObjectRK8Vector3f
wsi:_PlayerEditorConnectionEvents_InvokeMessageIdSubscribers_m795891627
x4e:_List_1_System_Collections_ICollection_CopyTo_m3062449209_gshared
Ljj:__ZNK15dense_hashtableINSt3__24pairIK10KeyWrapperINS1_IPK9FieldInfoP11Il2CppClassEEEjEES9_17ReflectionMapHashIS8_EN14dense_hash_mapIS9_jSD_NS9_14EqualsComparerINS0_8equal_toIS8_EEEENS0_9allocatorISB_EEE9SelectKeyESI_SK_E5beginEv
RXa:__ZNK9ShaderLab7Program19HasMatchingVariantsERK13dynamic_arrayI16ShaderKeywordSetLj4EE
zre:_Array_qsort_TisUICharInfo_t3056636800_TisUICharInfo_t3056636800_m1253367821_gshared
Ona:__ZN14DataBufferGLES11CopySubDataEPKS_jjj
ie:_emscripten_glVertexPointer
SBa:__ZNSt3__26__treeI20DeviceDepthStateGLES11memcmp_lessIS1_S1_ENS_9allocatorIS1_EEE7destroyEPNS_11__tree_nodeIS1_PvEE
QHd:_Graphic__ctor_m821539719
H3e:_List_1_System_Collections_Generic_ICollectionU3CTU3E_get_IsReadOnly_m1614481629_gshared
yej:__ZN6il2cpp2vm7Runtime47RaiseExecutionEngineExceptionIfMethodIsNotFoundEPK10MethodInfo
tYb:__Z17GetFrustumPortionPK8Vector3fffPS_
kbg:_UnauthorizedAccessException__ctor_m259001183
ovj:__ZN15dense_hashtableINSt3__24pairIK10KeyWrapperIP14Il2CppIUnknownEjEES5_N6il2cpp5utils11PointerHashIS3_EEN14dense_hash_mapIS5_jSB_NS5_14EqualsComparerINS0_8equal_toIS4_EEEENS0_9allocatorIS7_EEE9SelectKeyESG_SI_E14squash_deletedEv
qei:_PatternCompiler_EmitClose_m2394480040
MFd:_DefaultControls_CreateDropdown_m1384069408
Ezd:_PointerEventData_get_clickCount_m4064532478
cof:_ReadOnlyCollection_1_System_Collections_Generic_ICollectionU3CTU3E_get_IsReadOnly_m3508872969_gshared
Vde:_EventArgs__cctor_m1350395667
hHi:_InvokableCall_1_remove_Delegate_m1748003978_gshared
aia:__ZNK9GfxDevice27GetPlatformAdjustedViewportEv
wee:_CCGregorianCalendar_is_leap_year_m567513478
ZKf:_Oid_get_Value_m2271181078
dSd:_Attribute_IsDefined_m2118467641
YDi:_SpriteAtlasManager_Register_m447878083
kDe:_PrivateKeyInfo_Normalize_m3959595934
Hph:__Z68RuntimeInvoker_Void_t1841601450_Int32_t2071877448_Color32_t874517518PFvvEPK10MethodInfoPvPS4_
_Wh:_InternalEnumerator_1_System_Collections_IEnumerator_get_Current_m3125080595_gshared
Uif:_Collection_1_System_Collections_IList_Add_m2091889616_gshared
Bec:__ZN16StreamedResource8TransferI24GenerateTypeTreeTransferEEvRT_
xFc:__ZN11b2GearJoint4DumpEv
gHd:_DropdownItem_OnPointerEnter_m761897861
Gya:__ZN10Matrix3x3f15InvertTransposeEv
Fhe:_Array_InternalArray__ICollection_Remove_TisKeyValuePair_2_t1174980068_m2768765894_gshared
dQb:__Z11IsBatchmodev
Cgf:_Collection_1_set_Item_m2199807215_gshared
cxb:__Z29Transfer_Blittable_ArrayFieldI14SafeBinaryRead8Vector3fEvRT_R9ArrayInfoRK23StaticTransferFieldInfo
RUg:__ZL75Event_t3028476042_CustomAttributesCacheGenerator_Event_PopEvent_m4241312794P21CustomAttributesCache
o9f:_UInt32_System_IConvertible_ToBoolean_m91295134
U3f:_Monitor_Monitor_test_synchronised_m1542589500
hQg:__ZL68RuntimePlatform_t1869584967_CustomAttributesCacheGenerator_WP8PlayerP21CustomAttributesCache
mTc:__ZN20TextRenderingPrivate8FontImpl18ResetCachedTextureEv
Hpg:__ZL75String_t_CustomAttributesCacheGenerator_String_Concat_m626692867____values0P21CustomAttributesCache
ZDe:_SymmetricTransform_TransformFinalBlock_m4192185386
NIe:_TextInfo__ctor_m1263401274
Jbg:_Version_get_Major_m3385239713
FKi:_ListPool_1_Release_m3047738410_gshared
LHj:_GC_print_finalization_stats
DAf:_Context_get_SecurityProtocolFlags_m3295551796
zCh:_ValueCollection__ctor_m927733289_gshared
sEa:__ZN11NamedObject15ThreadedCleanupEv
lFc:__ZNK12b2WheelJoint10GetAnchorBEv
m1h:_InternalEnumerator_1__ctor_m2981879621_AdjustorThunk
Pkc:__Z53Register_UnityEngine_Behaviour_get_isActiveAndEnabledv
kJf:_IPAddress_ToString_m267966740
gPi:_EqualityComparer_1__ctor_m3971803374_gshared
lq:__ZNSt3__26vectorIN4core12basic_stringIcNS1_20StringStorageDefaultIcEEEENS_9allocatorIS5_EEE8__appendEj
Uoh:__Z64RuntimeInvoker_Boolean_t3825574718_IntPtr_t_ObjectU26_t597476745PFvvEPK10MethodInfoPvPS4_
Udb:__ZN26PlayerSettingsSplashScreen8TransferI17RemapPPtrTransferEEvRT_
L_h:_InternalEnumerator_1_get_Current_m3922357178_gshared
hdj:__ZN6il2cpp6icalls8mscorlib6SystemL17CollectTypeFieldsINS_5utils10functional10TrueFilterEEEvP11Il2CppClassPKS7_iRNSt3__26vectorIP9FieldInfoNSB_9allocatorISE_EEEERKT_
j_g:__ZL72ColorBlock_t2652774230_CustomAttributesCacheGenerator_m_HighlightedColorP21CustomAttributesCache
d7f:_Type_get_IsValueType_m1733572463
x6b:__Z13GetTagManagerv
ZXh:_InternalEnumerator_1_Dispose_m1748410190_AdjustorThunk
LPc:__ZN14PhysicsQuery2D7RaycastERK8Vector2fS2_fRKN10Collider2D13ContactFilterEPKS3_bP12RaycastHit2Di
hie:_Array_InternalArray__ICollection_Remove_TisUInt16_t986882611_m65494986_gshared
vof:_ReadOnlyCollection_1_IndexOf_m3054637117_gshared
B2i:__ZL10roundUp128PyS_
eY:__ZN11UnityEngine15CloudWebService17CloudJobSchedulerD0Ev
Ysd:_String_System_IConvertible_ToBoolean_m2696751322
hgb:__ZN18LoadSceneOperation7PerformEv
t6c:__ZNK2UI11CanvasGroup22GetTypeVirtualInternalEv
nri:_Matrix4x4_MultiplyPoint3x4_m1436516889
eud:_String_LastIndexOfAny_m4281325295
rHc:__ZN10ClipperLib7Clipper14IntersectEdgesEPNS_5TEdgeES2_RNS_8IntPointE
doh:__Z163RuntimeInvoker_Void_t1841601450_RuntimeObject_Int32_t2071877448_SByte_t454417549_SByte_t454417549_SingleU26_t4173844468_SingleU26_t4173844468_SingleU26_t4173844468PFvvEPK10MethodInfoPvPS4_
vtc:__Z21CleanupGlobalGUIStatev
I5f:_TimeSpan__ctor_m1888018443_AdjustorThunk
Puh:__Z74RuntimeInvoker_Int32_t2071877448_UIVertex_t1204258818_UIVertex_t1204258818PFvvEPK10MethodInfoPvPS4_
xv:__ZN19StreamedBinaryWriteILb0EE21TransferSTLStyleArrayI22OffsetPtrArrayTransferIN7mecanim9animation10ValueDeltaEEEEvRT_17TransferMetaFlags
I$d:_SyncHashtable_get_Count_m3694444082
sGb:__Z18Transfer_BlittableI18StreamedBinaryReadILb0EELb1EN4math12int3_storageEEvRK29SerializationCommandArgumentsR31RuntimeSerializationCommandInfo
Zhj:__ZNSt3__26vectorINS_12basic_stringIcNS_11char_traitsIcEENS_9allocatorIcEEEENS4_IS6_EEE8allocateEj
n4g:__Z56RuntimeInvoker_RuntimeObject_RuntimeObject_RuntimeObjectPFvvEPK10MethodInfoPvPS4_
oAa:__ZN22VertexDeclarationCache5ClearEv
_ib:__ZN15CacheWriterBase18GetAddressOfMemoryEv
Zz:__Z27ProcessRootMotionEmptyMixerP35AnimationPlayableEvaluationConstantP32AnimationPlayableEvaluationInputP33AnimationPlayableEvaluationOutput
ZZb:__ZN6Camera24PrepareCullingParametersERK23CameraCullingParameters13RenderingPathR11CullResults
_gc:__Z12SetIUISystemP9IUISystem
ugb:__ZN19RuntimeSceneManager22EndIntegrateMainThreadEP10UnitySceneNS_11LoadingModeE
eCg:__ZL84Evidence_t1407710183_CustomAttributesCacheGenerator_Evidence_GetHashCode_m1260371757P21CustomAttributesCache
hSi:_endingscore_Update_m791733001
mof:_ReadOnlyCollection_1_System_Collections_ICollection_get_IsSynchronized_m2344337514_gshared
Eyb:__Z26Transfer_UnityEngineObjectI17RemapPPtrTransferLb0EEvRK29SerializationCommandArgumentsR31RuntimeSerializationCommandInfo
$nh:__Z34RuntimeInvoker_FitMode_t4030874534PFvvEPK10MethodInfoPvPS4_
lud:_String_IsNullOrEmpty_m2802126737
QUd:_Byte_Parse_m1442736478
Kla:__ZN13GfxDeviceGLES15OnDeviceCreatedEb
RNe:_Int64_Parse_m3258022240
Xtd:_String_IndexOfOrdinal_m3591623977
p_f:_CryptoConfig_EncodeLongNumber_m2352037787
H7f:_Type_GetMethod_m475234662
Fsd:_Single_GetHashCode_m3102305584
PZe:_KeyValuePair_2__ctor_m1877755778_AdjustorThunk
w9h:_ActivationServices_get_ConstructionActivator_m1726426854
ZAb:__Z29Transfer_Blittable_ArrayFieldI24GenerateTypeTreeTransfer4AABBEvRT_R9ArrayInfoRK23StaticTransferFieldInfo
FEg:__ZL76Convert_t2607082565_CustomAttributesCacheGenerator_Convert_ToChar_m245844937P21CustomAttributesCache
$Dg:__ZL52Activator_t1850728717_CustomAttributesCacheGeneratorP21CustomAttributesCache
NIj:_GC_adj_bytes_allocd
LSh:_SpriteState_t1353336012_marshal_pinvoke_cleanup
Jne:_Array_InternalArray__ICollection_Add_TisKeyframe_t1449471340_m887263954_gshared
ppe:_Array_InternalArray__Insert_TisDateTime_t693205669_m1484996356_gshared
D4e:_List_1_System_Collections_IList_Remove_m3933652540_gshared
gEh:_Dictionary_2_System_Collections_IDictionary_GetEnumerator_m1484720898_gshared
wSe:_MonoIO_get_ConsoleInput_m2976499023
ujg:_OpCode_get_Size_m481593949_AdjustorThunk
fZd:_BitArrayEnumerator_checkVersion_m3839504595
tQd:_Array_GetUpperBound_m1352329707
KFc:__ZN13b2PulleyJoint24SolveVelocityConstraintsERK12b2SolverData
_uj:__ZN6il2cpp6icalls8mscorlib6System10Reflection10MonoMethod19get_base_definitionEP22Il2CppReflectionMethod
Da:invoke_fiiifii
kzf:_RecordProtocol__ctor_m168945279
L8d:_DateTimeOffset_Equals_m3728302791_AdjustorThunk
zNi:_GUIStyleState_t3801000545_marshal_pinvoke_back
QVa:__ZN20SphericalHarmonicsL219AddDirectionalLightERKN4math7_float3ERKNS0_7_float4E
E6f:_TimeSpan_op_GreaterThanOrEqual_m3997050520
wFg:__ZL77Convert_t2607082565_CustomAttributesCacheGenerator_Convert_ToUInt16_m36213644P21CustomAttributesCache
kea:__Z26ScheduleJobForEachInternalR8JobFencePFvPvjES1_iPFvS1_E11JobPriority
iLf:_OidEnumerator_MoveNext_m1889267785
pwe:_Mesh_GetAllocArrayFromChannel_TisVector3_t2243707580_m799130432_gshared
QPb:__ZZ23InitPlayerLoopCallbacksvEN41PostLateUpdateProfilerEndFrameRegistrator7ForwardEv
zhc:__ZN9Scripting18RaiseMonoExceptionEPKcz
V0a:__ZN9Texture2D8TransferI19StreamedBinaryWriteILb0EEEEvRT_
jHd:_OptionData__ctor_m3070653720
uKi:_TweenRunner_1_StartTween_m3792842064_gshared
Kbc:__ZN9ShaderLab16FastPropertyName15InitBy28BitHashEj
fsd:_Single_System_IConvertible_ToInt32_m3269519527_AdjustorThunk
tZi:_TextGenerationSettings_Equals_m1603221718
and:_SHA1Internal_ProcessBlock_m4070037334
cMa:__ZN17PersistentManager17IsObjectAvailableEi
T8h:_Marshal_copy_from_unmanaged_m98320635
xqe:_Array_InternalArray__set_Item_TisDouble_t4078015681_m24756265_gshared
xni:_Display_RelativeMouseAtImpl_m700362000
LEi:_Vector2_get_right_m4262310679
R8b:__ZN13ProduceHelperIN2UI13RectTransformELb0EE7ProduceE18MemLabelIdentifier18ObjectCreationMode
n8a:__ZN17PackedFloatVector12UnpackFloatsEPfiiii
UYi:__ZL25UnresolvedVirtualCall_228P12Il2CppObjectiPK10MethodInfo
OCg:__ZL113EncoderReplacementFallback_t4228544112_CustomAttributesCacheGenerator_EncoderReplacementFallback__ctor_m517300448P21CustomAttributesCache
mmf:_ReadOnlyCollection_1__ctor_m3671019970_gshared
bD:__ZN17AnimationPlayable28UpdateInternalStateRecursiveILi3ELb0EEEvPK35AnimationPlayableEvaluationConstant
ala:__ZN13GfxDeviceGLES21DestroyComputeProgramER12ObjectHandleI18ComputeProgram_TagPvE
E3d:_Convert_ToDecimal_m2007036836
dsj:__ZN6il2cpp6icalls8mscorlib6System5Array12SetValueImplEP11Il2CppArrayP12Il2CppObjecti
_ba:__ZN17UniqueIDGenerator16DestroyPureIndexEj
E8:__ZL21AppendNestedClassName17ScriptingClassPtrRN4core17string_with_labelILi1EEE
jkb:__ZN14SafeBinaryRead21TransferSTLStyleArrayINSt3__26vectorIN9ShaderLab20SerializedSubProgram12UAVParameterENS1_9allocatorIS5_EEEEEEvRT_17TransferMetaFlags
Dbi:_Context_NotifyDynamicSinks_m1367144344
cxh:_Enumerator__ctor_m1897170543_AdjustorThunk
D0:__ZNK13BaseAllocator10IsAssignedEv
nZ:__ZN24TextDOMTransferWriteBaseI9JSONWriteE12PushMetaFlagEi
jBf:_Context_get_Current_m2717045324
kNg:__ZL79Mesh_t1356156583_CustomAttributesCacheGenerator_Mesh_Internal_Create_m384282753P21CustomAttributesCache
qzf:_TlsClientCertificateVerify__ctor_m110646389
Bta:__ZN6prcoreL26RemapGenericIntegerToFloatI17TexFormatARGB888815TexFormatRFloatEEvPKNS_9InnerInfoE
Zgj:_UpdatedEventHandler__ctor_m2169897603
S0:__ZN5Mutex6UnlockEv
eYi:__ZL25UnresolvedVirtualCall_186P12Il2CppObject6Guid_tS1_PK10MethodInfo
Mbi:_Context_GetServerContextSinkChain_m390126977
Mhj:__ZN6il2cpp2vm17TypeNameParseInfoD2Ev
dQ:__ZN4FMOD7Channel7setModeEj
dUe:_StringReader_Read_m513112775
I2a:__ZNK8Renderer8GetLayerEv
mdf:_Collection_1_System_Collections_IList_Insert_m266942173_gshared
YRa:__ZN12FlareManager11DeleteFlareEi
Ref:_Collection_1_Add_m2613548553_gshared
bC:__ZN7mecanim9animation22DestroyBlendTreeOutputEPNS0_15BlendTreeOutputERNS_6memory9AllocatorE
BUb:__ZNK6Camera20GetReplacementShaderEv
lYj:_glProgramBinary__wrapper
D9d:_Decimal__ctor_m569480123_AdjustorThunk
FIf:_HttpWebRequest__cctor_m3013631978
PLj:__ZNSt3__26__treeINS_12__value_typeINS_12basic_stringIcNS_11char_traitsIcEENS_9allocatorIcEEEEPFvvEEENS_19__map_value_compareIS7_SA_NS_4lessIS7_EELb1EEENS5_ISA_EEE4findIS7_EENS_15__tree_iteratorISA_PNS_11__tree_nodeISA_PvEEiEERKT_
xkb:__ZNSt3__26vectorIN9ShaderLab20SerializedSubProgram14ConstantBufferENS_9allocatorIS3_EEE7reserveEj
Qqa:__ZL23stbir__calculate_memoryP11stbir__info
mch:__Z83RuntimeInvoker_Void_t1841601450_Int64_t909078037_Int32_t2071877448_Int64_t909078037PFvvEPK10MethodInfoPvPS4_
dlj:__ZNK15dense_hashtableINSt3__24pairIK10KeyWrapperINS1_IPK10MethodInfoP11Il2CppClassEEEjEES9_17ReflectionMapHashIS8_EN14dense_hash_mapIS9_jSD_NS9_14EqualsComparerINS0_8equal_toIS8_EEEENS0_9allocatorISB_EEE9SelectKeyESI_SK_E12test_deletedERK24dense_hashtable_iteratorISB_S9_SD_SM_SI_SK_E
Nug:__ZL90BinaryReader_t2491843768_CustomAttributesCacheGenerator_BinaryReader_ReadSByte_m1712621355P21CustomAttributesCache
WOg:__ZL101Transform_t3275118058_CustomAttributesCacheGenerator_Transform_INTERNAL_set_localPosition_m2606735056P21CustomAttributesCache
YOh:_Scrollbar_FindSelectableOnRight_m3219495255
nqi:_Logger_IsLogTypeAllowed_m243840823
yJh:_EqualityComparer_1_System_Collections_IEqualityComparer_GetHashCode_m487741360_gshared
k6c:__ZNSt3__227__insertion_sort_incompleteIRPFbPN2UI6CanvasES3_EPS3_EEbT0_S8_T_
Qyi:_Rect_set_width_m2294291744_AdjustorThunk
ERb:__ZNK6Camera18GetRenderRectangleEv
t9i:__ZN6il2cpp5utils13dynamic_arrayIPK10Il2CppTypeLj4EE7reserveEj
Xkj:__ZNK15dense_hashtableINSt3__24pairIK10KeyWrapperINS1_IPK10MethodInfoP11Il2CppClassEEEjEES9_17ReflectionMapHashIS8_EN14dense_hash_mapIS9_jSD_NS9_14EqualsComparerINS0_8equal_toIS8_EEEENS0_9allocatorISB_EEE9SelectKeyESI_SK_E3endEv
w6a:__ZN13sorted_vectorIN4core12basic_stringIcNS0_20StringStorageDefaultIcEEEENSt3__24lessIS4_EE13stl_allocatorIS4_L18MemLabelIdentifier81ELi16EEE4findIS4_EENS5_11__wrap_iterIPS4_EERKT_
_oe:_Array_InternalArray__ICollection_CopyTo_TisVector3_t2243707580_m509487340_gshared
vJd:_GridLayoutGroup_get_constraint_m1351424857
zAc:__ZL26Transfer_SimpleNativeClassI8JSONRead10RectOffsetLb1EEvRK29SerializationCommandArgumentsR31RuntimeSerializationCommandInfo
G9c:__Z44CanvasRenderer_CUSTOM_INTERNAL_CALL_SetColorP12Il2CppObjectRK10ColorRGBAf
mHj:_GC_should_collect
K9h:_UrlAttribute_Equals_m1587451932
YBj:__ZNSt3__26__treeINS_12basic_stringIcNS_11char_traitsIcEENS_9allocatorIcEEEENS_4lessIS6_EENS4_IS6_EEE12__find_equalIS6_EERPNS_16__tree_node_baseIPvEESG_RKT_
oxc:__Z18Transfer_BlittableI9JSONWriteLb1EsEvRK29SerializationCommandArgumentsR31RuntimeSerializationCommandInfo
jHc:__ZN10ClipperLib8JoinHorzEPNS_5OutPtES1_S1_S1_NS_8IntPointEb
fMe:_Int16_ToString_m4099416068_AdjustorThunk
Yid:_DSAParameters_t1872138834_marshal_pinvoke_cleanup
uDa:__ZN6ObjectD2Ev
jic:__ZN9Transform16SetLocalRotationERK11Quaternionf
yQb:__ZN13RenderManager37RenderCamerasWithScriptableRenderLoopEi
AAe:_ASN1_Element_m2600236165
P$i:_Canvas_get_renderMode_m3398547532
$3:__ZN23InstancedPropInfoStaticL16RegisterCallbackEPv
Kyj:__ZN15dense_hashtableINSt3__24pairIK10KeyWrapperIP12Il2CppObjectEN6il2cpp2gc9CachedCCWEEES5_NS7_5utils11PointerHashIS3_EEN14dense_hash_mapIS5_S9_SD_NS5_14EqualsComparerINS0_8equal_toIS4_EEEENS0_9allocatorISA_EEE9SelectKeyESI_SK_E16reset_thresholdsEv
jF:__ZN7mecanim8skeleton25SkeletonPoseComputeLocalQEPKNS0_8SkeletonEPKNS0_13SkeletonPoseTIN4math4trsXEEEPS7_ii
vzj:__ZN6il2cpp2os19ReleaseSocketHandleEj
bCg:__ZL59ApplicationTrust_t3968282840_CustomAttributesCacheGeneratorP21CustomAttributesCache
Ysg:__ZL128SafeHandleZeroOrMinusOneIsInvalid_t1177681199_CustomAttributesCacheGenerator_SafeHandleZeroOrMinusOneIsInvalid__ctor_m3340306667P21CustomAttributesCache
YU:__ZN11AudioModule16GetDSPSampleRateEv
ODj:__ZN15dense_hashtableINSt3__24pairIK10KeyWrapperIPK19Il2CppGenericMethodEP10MethodInfoEES6_N6il2cpp8metadata23Il2CppGenericMethodHashEN14dense_hash_mapIS6_S9_SD_NS6_14EqualsComparerINSC_26Il2CppGenericMethodCompareEEENS0_9allocatorISA_EEE9SelectKeyESH_SJ_E5clearEv
yec:__ZN16PropertyAccessor5ClearEv
kfg:_TypeBuilder_get_next_table_index_m1415870184
eTj:___cxa_can_catch
uuf:_SequentialSearchPrimeGeneratorBase_GenerateNewPrime_m296245934
VVd:_Char_GetUnicodeCategory_m4273361321
UUb:__ZN6Camera28DefaultPerformRenderFunctionD0Ev
IVe:_Math_Round_m565516458
ubi:_Identity_get_ClientDynamicProperties_m767245959
YWh:_InternalEnumerator_1__ctor_m675130983_AdjustorThunk
EDh:_Dictionary_2_Clear_m899854001_gshared
CAj:__ZN6il2cpp2os5posix15PosixWaitObjectC2ENS2_4TypeE
NSb:__ZN6Camera21PostMultiCustomRenderENS_10RenderFlagEb
$jg:_TypeBuilder_create_generic_class_m986834171
oVi:__ZL24UnresolvedVirtualCall_34P12Il2CppObjectS0_PK10MethodInfo
oxa:__ZN12_GLOBAL__N_112UploadImagesEP7ApiGLESjji14GraphicsFormatPKhjS2_iiii16TextureUsageModePh
CNb:__ZN23ShaderVariantCollection13WarmupShadersEv
pDi:_Transform_set_rotation_m2824446320
CAf:_Context_set_ProtocolNegotiated_m1177527245
s9f:_UInt32_System_IConvertible_ToChar_m1056040486
j8:__Z25GetCommonScriptingClassesv
jGf:_TlsStream_get_Length_m1562309511
Ygb:__Z27scripting_gc_collect_unsafei
bV:__ZN11AudioModule20SuspendVideoTexturesEv
iZd:_CaseInsensitiveComparer__ctor_m1125492797
dX:__Z59Register_UnityEngine_AudioExtensionManager_GetAudioListenerv
fbc:__ZN12CubemapArrayC2E18MemLabelIdentifier18ObjectCreationMode
$uh:__Z73RuntimeInvoker_DictionaryEntry_t3048875398_RuntimeObject_SByte_t454417549PFvvEPK10MethodInfoPvPS4_
S1d:_Convert_ToByte_m395020137
qAb:__Z26Transfer_UnityEngineObjectI24GenerateTypeTreeTransferLb0EEvRK29SerializationCommandArgumentsR31RuntimeSerializationCommandInfo
c2i:_RaycastHit2D_get_normal_m1680752829
mWc:_UNITY_FT_GlyphLoader_CheckPoints
o7e:_List_1_System_Collections_ICollection_CopyTo_m1995866425_gshared
lLc:__ZN16b2PolygonContact7DestroyEP9b2ContactP16b2BlockAllocator
SUe:_TextWriter_WriteLine_m1754475888
URa:__ZN15SharedLightData7PrecalcEv
hNa:__ZN10Matrix4x4fmLERKS_
Fq:__ZN4PPtrI9TransformE8TransferI18StreamedBinaryReadILb0EEEEvRT_
$ue:_Array_InternalArray__get_Item_TisDouble_t4078015681_m2215331088_gshared
UOg:__ZL95Transform_t3275118058_CustomAttributesCacheGenerator_Transform_INTERNAL_set_position_m502085109P21CustomAttributesCache
kCg:__ZL57PrincipalPolicy_t289802916_CustomAttributesCacheGeneratorP21CustomAttributesCache
ODb:__Z35Transfer_Blittable_FixedBufferFieldI18StreamedBinaryReadILb1EEsEvRK29SerializationCommandArgumentsR31RuntimeSerializationCommandInfo
Mhf:_Collection_1_ClearItems_m3446813399_gshared
wDh:_Dictionary_2_Init_m3666073812_gshared
G8e:_List_1_AsReadOnly_m1681105545_gshared
jIa:__ZN15ArchiveReadFileD0Ev
SDe:_SymmetricTransform_TransformBlock_m1524716432
KNi:_GUIUtility_TakeCapture_m1786193394
Ike:_Array_compare_TisColor32_t874517518_m3842009370_gshared
hmh:__Z105RuntimeInvoker_Boolean_t3825574718_RuntimeObject_Vector2_t2243707579_RuntimeObject_Vector2U26_t3911752445PFvvEPK10MethodInfoPvPS4_
Scd:__ZN11UnityEngine15PlatformWrapper18GetOperatingSystemEv
cha:__ZNSt3__26vectorIP14DataBufferGLESNS_9allocatorIS2_EEE21__push_back_slow_pathIKS2_EEvRT_
I3h:_InternalEnumerator_1__ctor_m2458691472_AdjustorThunk
Oqf:_ReadOnlyCollection_1_System_Collections_Generic_ICollectionU3CTU3E_Remove_m974176789_gshared
abe:_Delegate_return_type_match_m4278947849
JNd:_InputField_GenerateHightlight_m1346735465
O1i:_Physics2D_Raycast_m1275014335
Ap:__ZN15SerializeTraitsI13dynamic_arrayIiLj4EEE19ResizeSTLStyleArrayERS1_i
Qoi:_UnityEventBase_ToString_m2323130098
wii:_Uri_ParseNoExceptions_m1151989845
j1d:_GC_SuppressFinalize_m953228702
bWc:_FT_MSB
dFf:_InternalAsyncResult_get_ProceedAfterHandshake_m552962842
Sqj:__ZN15dense_hashtableINSt3__24pairIK10KeyWrapperINS1_IP11Il2CppClassjEEES4_EES6_N6il2cpp8metadata14ArrayClassHashEN14dense_hash_mapIS6_S4_SB_NS6_14EqualsComparerINSA_17ArrayClassCompareEEENS0_9allocatorIS8_EEE9SelectKeyESF_SH_E3endEv
JVf:_SoapServices_PreLoad_m490411755
xzi:_RectOffset__ctor_m2517237351
E9g:__Z63RuntimeInvoker_RuntimeObject_Int32_t2071877448_SByte_t454417549PFvvEPK10MethodInfoPvPS4_
lMj:__ZN6il2cpp6icalls8mscorlib4Mono8Security12Cryptography18KeyPairPersistence10_CanSecureEP12Il2CppString
MUh:_Action_1_Invoke_m4180501989_gshared
QRh:_Slider__ctor_m3124136916
B5h:_DefaultComparer__ctor_m3180706193_gshared
h9e:_List_1_System_Collections_Generic_IEnumerableU3CTU3E_GetEnumerator_m3625278020_gshared
vha:__ZN13GfxDeviceGLES14SetRasterStateEPK17DeviceRasterState
Tdh:__Z51RuntimeInvoker_Int16_t4041245914_Single_t2076509932PFvvEPK10MethodInfoPvPS4_
Lub:__Z30TransferField_LinearCollectionI14SafeBinaryReadEvRK29SerializationCommandArgumentsR31RuntimeSerializationCommandInfo
zMd:_InputField_set_caretPositionInternal_m231166704
Yzf:_TlsServerHello__ctor_m3032108168
mCa:__ZN14SafeBinaryRead11EndTransferEv
Ivg:__ZL98ILGenerator_t99948092_CustomAttributesCacheGenerator_ILGenerator_Mono_GetCurrentOffset_m3553856682P21CustomAttributesCache
dvb:__ZN14SafeBinaryRead8TransferI8MonoPPtrEEvRT_PKc17TransferMetaFlags
vGh:_Dictionary_2_System_Collections_Generic_ICollectionU3CSystem_Collections_Generic_KeyValuePairU3CTKeyU2CTValueU3EU3E_Remove_m1705959559_gshared
zBi:_SerializeField__ctor_m2670658200
q3h:_InternalEnumerator_1_System_Collections_IEnumerator_get_Current_m1533037706_gshared
oya:__ZN21UniformBufferTFMethod13MapBoneBufferEj
ODf:_RecordProtocol_SendChangeCipherSpec_m3542001341
kre:_Array_InternalArray__set_Item_TisVector3_t2243707580_m1390667454_gshared
Esc:__ZN12GUIClipState10BeginOnGUIER10InputEvent
ssj:__ZNSt3__26vectorIcNS_9allocatorIcEEEC2Ej
Fnc:__Z40Register_UnityEngine_Input_GetKeyDownIntv
PBe:_KeyPairPersistence_CanSecure_m2251009700
PA:__ZN7mecanim5human14HumanPoseClearERNS0_9HumanPoseERKNS_6bitsetILj70EEE
UKb:__ZN9TextAsset15ThreadedCleanupEv
oTf:_ReturnMessage_get_Properties_m531965085
lhg:_GenericTypeParameterBuilder_IsSubclassOf_m563999142
iee:_Exception_ToString_m627574695
Hkg:_AddEventAdapter_Invoke_m3970567975
lea:__Z21CompleteFenceInternalR8JobFence
cuc:__Z30Event_Get_Custom_PropModifiersP12Il2CppObject
Ojj:__ZN30dense_hashtable_const_iteratorINSt3__24pairIK10KeyWrapperINS1_IPK9FieldInfoP11Il2CppClassEEEjEES9_17ReflectionMapHashIS8_EN14dense_hash_mapIS9_jSD_NS9_14EqualsComparerINS0_8equal_toIS8_EEEENS0_9allocatorISB_EEE9SelectKeyESI_SK_E30advance_past_empty_and_deletedEv
NGh:_Dictionary_2_ContainsValue_m2375979648_gshared
Kx:__ZN7mecanim9animation16CreateClipOutputEPKNS0_4ClipERNS_6memory9AllocatorE
qpe:_Array_InternalArray__Insert_TisDecimal_t724701077_m1429254816_gshared
QKi:_ListPool_1_Get_m2998644518_gshared
Ych:__Z191RuntimeInvoker_Int32_t2071877448_RuntimeObject_Int32_t2071877448_Int32_t2071877448_RuntimeObject_Int32_t2071877448_SByte_t454417549_Int32U26_t455636984_BooleanU26_t3168250738_SByte_t454417549PFvvEPK10MethodInfoPvPS4_
M5f:_TimeSpan_get_Days_m1002111510
CIb:__ZNSt3__218__stable_sort_moveIRN10vector_mapI17ScriptingClassPtrPKN5Unity4TypeENS_4lessIS2_EENS_9allocatorINS_4pairIS2_S6_EEEEE13value_compareENS_11__wrap_iterIPSB_EEEEvT0_SJ_T_NS_15iterator_traitsISJ_E15difference_typeEPNSM_10value_typeE
djb:__ZN6Shader21AwakeFromLoadThreadedEv
Dsa:__ZN6prcoreL17RemapGenericFloatI17TexFormatRGBFloat17TexFormatRGBAHalfEEvPKNS_9InnerInfoE
J$g:__ZL70InputField_t1631627530_CustomAttributesCacheGenerator_m_CharacterLimitP21CustomAttributesCache
Y9e:_List_1_get_Capacity_m2443158653_gshared
bid:__ZN13RuntimeStaticINSt3__26vectorIjNS0_9allocatorIjEEEELb0EE16StaticInitializeEPv
M_:__ZN13UploadHandler10OnSentDataEj
uNj:__ZN6il2cpp2os9SemaphoreC2Eii
WWh:_InternalEnumerator_1_get_Current_m2960188445_AdjustorThunk
$hh:__Z56RuntimeInvoker_UriHostNameType_t2148127109_RuntimeObjectPFvvEPK10MethodInfoPvPS4_
fvb:__ZNSt3__26vectorI8MonoPPtr13stl_allocatorIS1_L18MemLabelIdentifier1ELi16EEE8__appendEj
pTh:_Text_set_alignByGeometry_m1514652028
rTb:__ZN14qsort_internal30FindAndMovePivotToLastPositionIP17RODataReplacementi19ROSorterReplacementEEvT_S4_T0_T1_
zya:__ZN15UniformTFMethod20IsBoneCountSupportedEi
XQe:_FileStream_get_Position_m465478322
_7i:__ZN14dense_hash_setI10KeyWrapperIPK19Il2CppGenericMethodEN6il2cpp8metadata23Il2CppGenericMethodHashENS4_14EqualsComparerINS6_26Il2CppGenericMethodCompareEEENSt3__29allocatorIS4_EEEC2EjRKS7_RKSA_
oUj:dynCall_viidi
upe:_Array_InternalArray__Insert_TisInt64_t909078037_m3039874636_gshared
dTd:_Convert_ToInt16_m1787678274
$Th:_ToggleGroup_NotifyToggleOn_m997426227
ix:__ZN8Playable18OnApplicationPauseEb
YDf:_RSASslSignatureDeformatter_SetKey_m1150106904
X5:__ZN24ScriptingMethodFiltering17FilterOnSignatureENS_18MethodSearchFilterE
Deg:_TypeBuilder_get_Module_m1668298460
IOh:_Scrollbar_ClickRepeat_m3403943364
eKc:__ZThn4_N16PhysicsManager2D12BeginContactEP9b2Contact
Y2b:__ZN18ScreenManagerWebGL13SetLockCursorE14CursorLockMode
I0c:_cf2_arrstack_finalize
mXe:_MonoType_GetMethodsByName_m1854415088
qxh:_Enumerator_get_CurrentValue_m3147984131_gshared
tfg:_DerivedType_GetMethods_m165266904
xDe:_RSAManaged_EncryptValue_m4089823119
C8b:__ZN13MonoBehaviour19HandleNotificationsEPviR11MessageData
gmi:_Component_get_gameObject_m2159020946
_Nj:__ZN6il2cpp2os9EventImpl5ResetEv
uaj:__ZN6il2cpp2vm13MetadataCache23GetMethodGenericContextEPK10MethodInfo
DHh:_DefaultComparer_GetHashCode_m926363525_gshared
BOg:__ZL78Object_t1021602117_CustomAttributesCacheGenerator_Object_Instantiate_m86013740P21CustomAttributesCache
qLi:_Event_get_keyCode_m4176847855
IPh:_ScrollRect_get_verticalScrollbar_m2455612493
LRe:_ReadDelegate_Invoke_m2091885836
Cgg:_TypeBuilder_GetField_m2112455315
LXj:b58
MXj:b59
CQb:__ZN25CameraStackRenderingState18EndStereoRenderingEv
tXj:b52
uXj:b53
VCj:__ZN6il2cpp2vm12AssemblyName20AssemblyNameToStringERK18Il2CppAssemblyName
sXj:b51
JXj:b56
KXj:b57
vXj:b54
GXj:b55
tze:_Kernel_Multiply_m3585610531
vxf:_CertificateSelectionCallback_EndInvoke_m3525317639
FS:__ZN4PPtrI15AudioMixerGroupE8TransferI18StreamedBinaryReadILb0EEEEvRT_
F6d:_DateTime__ctor_m3604679583_AdjustorThunk
Z1i:_RaycastHit2D_t4063908774_marshal_pinvoke
KRd:_SimpleEnumerator_Reset_m1341779532
hij:__ZNSt3__214__split_bufferINS_12basic_stringIcNS_11char_traitsIcEENS_9allocatorIcEEEERNS4_IS6_EEEC2EjjS8_
MCe:_MACAlgorithm_Core_m2390605245
k2h:_InternalEnumerator_1_System_Collections_IEnumerator_get_Current_m30488070_gshared
adc:__ZN10GameObject12CleanupClassEv
z_h:_InternalEnumerator_1_System_Collections_IEnumerator_Reset_m2624612805_AdjustorThunk
Vrg:__ZL108ArrayReadOnlyList_1_t3367196019_CustomAttributesCacheGenerator_ArrayReadOnlyList_1_GetEnumerator_m3031680693P21CustomAttributesCache
jia:__ZN9GfxDevice25SetShaderPropertiesSharedERK19ShaderPropertySheet
OJi:_IndexedSet_1_GetEnumerator_m3646001838_gshared
Wwi:_PlayableHandle_IsValidInternal_m3315870994
Q7g:__Z96RuntimeInvoker_Int32_t2071877448_RuntimeObject_Int32_t2071877448_Int32_t2071877448_RuntimeObjectPFvvEPK10MethodInfoPvPS4_
EKb:__ZN10MonoScript17MainThreadCleanupEv
qpa:__ZN18AsyncUploadManager19AsyncResourceUploadER9GfxDeviceii9TextureID
VMh:_VertexHelper_AddUIVertexTriangleStream_m4009409241
h6h:_Comparer_1__ctor_m844571340_gshared
scc:__ZL25InitializeDefaultMaterialv
ead:__Z53Register_UnityEngine_CanvasRenderer_get_materialCountv
p2:__GLOBAL__sub_I_runtime_graphics_lod_0_cpp
TIa:__ZN19FileAccessorHandlerD2Ev
iMg:__ZL84RectOffset_t3387826427_CustomAttributesCacheGenerator_RectOffset_Cleanup_m3560058379P21CustomAttributesCache
DUh:_VertexHelper_AddVert_m3290455716
MBg:__ZL56SHA256Managed_t2029745292_CustomAttributesCacheGeneratorP21CustomAttributesCache
Evg:__ZL126GenericTypeParameterBuilder_t1370236603_CustomAttributesCacheGenerator_GenericTypeParameterBuilder_MakeGenericType_m2955814622P21CustomAttributesCache
pGa:__ZN17PersistentManager12UnloadStreamERKN4core12basic_stringIcNS0_20StringStorageDefaultIcEEEEb
nK:__ZN15SerializeTraitsI9OffsetPtrIN7mecanim9animation17BlendTreeConstantEEE8TransferI19StreamedBinaryWriteILb0EEEEvRS4_RT_
E6b:__ZN14dense_hash_mapIN4core12basic_stringIcNS0_20StringStorageDefaultIcEEEE10vector_setI4PPtrI11SpriteAtlasENSt3__24lessIS8_EE13stl_allocatorIS8_L18MemLabelIdentifier81ELi16EEE20StringHash32FunctionIS4_ENS9_8equal_toIS4_EESC_INS9_4pairIKS4_SF_EELSD_81ELi16EEEixERSL_
G4a:__ZN13ScreenManager17RequestResolutionEiibi
M_f:_DESTransform__ctor_m4096028381
Ufj:_il2cpp_unity_liveness_calculation_from_statics
Dte:_Dictionary_2_Do_CopyTo_TisDictionaryEntry_t3048875398_TisDictionaryEntry_t3048875398_m983412647_gshared
sB:__ZNK26AnimatorControllerPlayable11DerivesFromE17ScriptingClassPtr
$4f:_Scheduler_get_Instance_m1989471839
s3a:__ZN8Renderer8TransferI17RemapPPtrTransferEEvRT_
Cvh:__Z76RuntimeInvoker_Boolean_t3825574718_UIVertex_t1204258818_UIVertex_t1204258818PFvvEPK10MethodInfoPvPS4_
bhf:_Collection_1_Contains_m1299140035_gshared
IXj:_glBlitFramebuffer__wrapper
Pne:_Array_InternalArray__ICollection_Add_TisUICharInfo_t3056636800_m968274080_gshared
YKi:_ObjectPool_1__ctor_m1532275833_gshared
qla:__ZN13GfxDeviceGLES19SetSinglePassStereoE16SinglePassStereo
tvh:__Z72RuntimeInvoker_Boolean_t3825574718_Color32_t874517518_Color32_t874517518PFvvEPK10MethodInfoPvPS4_
RTi:_AudioSourceExtension_set_audioSource_m650845743
jnc:__Z22Input_CUSTOM_GetKeyInti
Dcf:_Queue_1_System_Collections_ICollection_get_IsSynchronized_m3521628381_gshared
ZVi:__ZL24UnresolvedVirtualCall_71P12Il2CppObjectS0_S0_iS0_S0_S0_PK10MethodInfo
fqg:__ZL64IntPtr_t_CustomAttributesCacheGenerator_IntPtr__ctor_m3803259710P21CustomAttributesCache
M8e:_List_1_GetIndex_m3262928832_gshared
MOc:__ZN16PhysicsManager2D19AddRigidbodyUpdatesEP11Rigidbody2D
Z0b:__Z24LookRotationToQuaternionRK8Vector3fS1_P11Quaternionf
X0b:__ZN16ReflectionProbes9GetCameraEv
Mnb:__ZL18IsGpuProgramUsable20ShaderGpuProgramTypePK6Shader
ZGe:_ArgumentException__ctor_m2105824819
J8c:__ZN2UI6Canvas17SetSortingLayerIDEi
pCd:_BaseMeshEffect_get_graphic_m3358796463
zAj:__ZN6il2cpp2vm11MethodStack23CleanupForCurrentThreadEv
NFi:_YieldInstruction__ctor_m3378690795
n$i:_Predicate_1_Invoke_m695569038_gshared
A_e:_Enumerator_VerifyState_m825848279_AdjustorThunk
QSa:__ZN20TierGraphicsSettings8TransferI24GenerateTypeTreeTransferEEvRT_
DNi:_GUIStyleState_Cleanup_m824895509
Y5g:__Z77RuntimeInvoker_Int32_t2071877448_RuntimeObject_RuntimeObject_SByte_t454417549PFvvEPK10MethodInfoPvPS4_
Rwb:__ZN14SafeBinaryRead21TransferSTLStyleArrayI13dynamic_arrayI4AABBLj4EEEEvRT_17TransferMetaFlags
jZa:__ZN18UnityPropertySheet8TransferI19StreamedBinaryWriteILb0EEEEvRT_
kCf:_TlsServerCertificate_checkServerIdentity_m3836435780
cfa:__ZNSt3__26__treeINS_12__value_typeIiN11TypeManager18TypeCallbackStructEEENS_19__map_value_compareIiS4_NS_4lessIiEELb1EEENS_9allocatorIS4_EEE7destroyEPNS_11__tree_nodeIS4_PvEE
zEe:_PKCS12_Decrypt_m2353135969
cmi:_Color32_ToString_m685380321
gmg:_MonoEvent_ToString_m386956596
_Hc:__ZN16PhysicsManager2D42RegisterTransformChangeInterestForColliderEP10Collider2D
pse:_Array_Sort_TisRuntimeObject_m3309514378_gshared
Nzd:_PointerEventData_get_pointerPress_m880101744
xma:__ZL19GetCameraTargetRectRK6Camerabb
Sbd:__ZN11UnityEngine7Connect17XRDeviceInfoEventD0Ev
Jzh:_Transform_1_BeginInvoke_m1786442111_gshared
DKe:_Int32_GetFormatException_m1729046182
ELa:__ZN13dynamic_arrayIN10GameObject13ComponentPairELj4EE6insertEPS1_RKS1_
Hdf:_Collection_1_get_Count_m3834276648_gshared
z0:__ZN21UnityDefaultAllocatorI17LowLevelAllocatorE10DeallocateEPv
Ht:__ZN15PackedIntVector8TransferI14SafeBinaryReadEEvRT_
Mkg:_FieldInfo_get_IsLiteral_m267898096
zWg:__ZL84Canvas_t209405766_CustomAttributesCacheGenerator_Canvas_get_isRootCanvas_m3746337338P21CustomAttributesCache
H7g:__Z45RuntimeInvoker_RuntimeObject_Int64_t909078037PFvvEPK10MethodInfoPvPS4_
kFf:_SslStreamBase_EndNegotiateHandshake_m1732321201
fAh:_Transform_1_BeginInvoke_m1167293475_gshared
IO:__ZN13AudioListener8DoUpdateEv
Gvc:__ZN5Unity9rapidjson13GenericReaderINS0_4UTF8IcEES3_13JSONAllocatorE9ParseTrueILj1ENS0_25GenericInsituStringStreamIS3_EENS0_15GenericDocumentIS3_S4_S4_EEEEvRT0_RT1_
N1d:__Z13bankers_roundd
Jdb:__ZN14SafeBinaryRead8TransferI5RectTIfEEEvRT_PKc17TransferMetaFlags
ti:_emscripten_glGenFramebuffers
V_d:_Hashtable_CopyTo_m2778915805
Zea:__ZN17BaseObjectManager16StaticInitializeEPv
Jeg:_ConstructorBuilder_get_IsCompilerContext_m2796899803
ule:_Array_IndexOf_TisUIVertex_t1204258818_m613887160_gshared
Cjb:__ZNSt3__26vectorIN9ShaderLab26SerializedShaderDependencyENS_9allocatorIS2_EEE26__swap_out_circular_bufferERNS_14__split_bufferIS2_RS4_EE
mFd:_FloatTween_GetDuration_m1757342579_AdjustorThunk
m2d:_DateTime_CoreParse_m2014268103
L7h:_ResourceSet_Dispose_m2968479859
MDa:__ZN9Behaviour23VirtualRedirectTransferER17RemapPPtrTransfer
Wxc:__Z18Transfer_BlittableI9JSONWriteLb0EyEvRK29SerializationCommandArgumentsR31RuntimeSerializationCommandInfo
tXa:__ZN13RenderTexture15ThreadedCleanupEv
yke:_Array_BinarySearch_TisRuntimeObject_m3361740551_gshared
__a:__ZN12CubemapArray23VirtualRedirectTransferER14SafeBinaryRead
Ini:_DrivenRectTransformTracker_Clear_m4190599786
Ox:__ZN21AnimationClipPlayable16ProcessHumanPassEPK35AnimationPlayableEvaluationConstantPK32AnimationPlayableEvaluationInputP33AnimationPlayableEvaluationOutput
Vqf:_ReadOnlyCollection_1_System_Collections_IList_Add_m616574295_gshared
EKe:_Int32_ProcessTrailingWhitespace_m2812079777
zma:__ZN18ProceduralMaterial9ReloadAllEbb
Poc:__Z43RectTransform_CUSTOM_INTERNAL_set_sizeDeltaP12Il2CppObjectRK13Vector2fIcall
gKf:_WebProxy__ctor_m3679722173
xZh:_InternalEnumerator_1_Dispose_m2743309309_AdjustorThunk
Iwj:__ZN15dense_hashtableINSt3__24pairIK10KeyWrapperINS1_IPKcS4_EEEiEES6_24NamespaceAndNamePairHashN14dense_hash_mapIS6_iS9_NS6_14EqualsComparerI26NamespaceAndNamePairEqualsEENS0_9allocatorIS8_EEE9SelectKeyESD_SF_E6insertERKS8_
cEa:__ZN24GenerateTypeTreeTransfer18BeginArrayTransferEPKcS1_Ri17TransferMetaFlags
Fpa:__Z16DecompressCrunchPKhRjR13TextureFormatiiii18MemLabelIdentifier
_af:_List_1__ctor_m2082969060_gshared
nm:___syscall51
rm:___syscall54
sxj:__ZNSt3__26__treeINS_12__value_typeIP24Il2CppReflectionAssemblyPvEENS_19__map_value_compareIS3_S5_NS_4lessIS3_EELb1EEENS_9allocatorIS5_EEE12__find_equalIS3_EERPNS_16__tree_node_baseIS4_EESH_RKT_
zob:__ZN9ShaderLab9SubShader19CreateFromSubShaderERKS0_
LWg:__ZL84Canvas_t209405766_CustomAttributesCacheGenerator_Canvas_get_targetDisplay_m150918273P21CustomAttributesCache
pCb:__Z18Transfer_BlittableI19StreamedBinaryWriteILb0EELb1EjEvRK29SerializationCommandArgumentsR31RuntimeSerializationCommandInfo
eH:__ZNK8Animator20IsAnyRendererVisibleEv
n1c:_cff_builder_add_point1
Cxj:__ZN6il2cpp2vm5Image21GetCachedResourceDataEPK11Il2CppImageRKNSt3__212basic_stringIcNS5_11char_traitsIcEENS5_9allocatorIcEEEE
aKd:_HorizontalOrVerticalLayoutGroup_set_childControlWidth_m4209477792
Tfh:__Z54RuntimeInvoker_TimeSpan_t3430258949_Double_t4078015681PFvvEPK10MethodInfoPvPS4_
Cne:_Array_InternalArray__ICollection_Add_TisUInt32_t2149682021_m2629016323_gshared
Otb:__Z18Transfer_BlittableI14SafeBinaryReadLb0E10ColorRGBAfEvRK29SerializationCommandArgumentsR31RuntimeSerializationCommandInfo
Aa:invoke_iiiiiiiiii
GW:__ZN11AudioSource25GetNumExtensionPropertiesEv
MU:__ZNK7Texture10GetVRUsageEv
ipe:_Array_InternalArray__Insert_TisKeyValuePair_2_t888819835_m975554221_gshared
kch:__Z59RuntimeInvoker_RuntimeObject_Int64_t909078037_RuntimeObjectPFvvEPK10MethodInfoPvPS4_
igb:__ZN18LoadSceneOperation19IntegrateTimeSlicedEi
k5f:_Scheduler_SchedulerThread_m2209572785
Exe:_SortKeyBuffer_GetResultAndReset_m2516956577
MUg:__ZL79Event_t3028476042_CustomAttributesCacheGenerator_Event_get_character_m788279814P21CustomAttributesCache
d5b:__ZN10FileSystem19SetCurrentDirectoryERKN4core12basic_stringIcNS0_20StringStorageDefaultIcEEEE
ZKi:_ObjectPool_1_get_countAll_m4217365918_gshared
F8:__ZN16ScriptingManager24NotifyScriptCacheReleaseEi
GJg:__ZL85UriParser_t1012511323_CustomAttributesCacheGenerator_UriParser_OnRegister_m4010407891P21CustomAttributesCache
pvg:__ZL63UnmanagedMemoryStream_t822875729_CustomAttributesCacheGeneratorP21CustomAttributesCache
Hkc:__Z47Register_UnityEngine_Coroutine_ReleaseCoroutinev
Owi:_PlayableBehaviour__ctor_m1589016632
tP:__ZN15AudioReverbZone13SetFMODValuesEv
e5:__ZL19StaticDestroyShaderPv
de:_glRenderbufferStorageMultisample
YTf:_SoapTypeAttribute_get_XmlTypeName_m2546866572
lyi:_Ray_GetPoint_m2427899009
AC:__ZN23AnimationPlayableOutput17SetTargetAnimatorEP8Animator
inf:_ReadOnlyCollection_1_System_Collections_IList_get_IsFixedSize_m158012227_gshared
rzc:__ZN9JSONWrite8TransferI13dynamic_arrayIN4math12int3_storageELj4EEEEvRT_PKc17TransferMetaFlags
pvi:_X509Chain__ctor_m1113875360
gqf:_ReadOnlyCollection_1__ctor_m2387481411_gshared
FCf:_TlsServerHello_processProtocol_m1241336522
XHg:__ZL79ModulusRing_t80355992_CustomAttributesCacheGenerator_ModulusRing_Pow_m661630322P21CustomAttributesCache
Ehe:_Array_InternalArray__ICollection_Remove_TisKeyValuePair_2_t888819835_m1287715465_gshared
LXh:_InternalEnumerator_1_System_Collections_IEnumerator_Reset_m324760031_AdjustorThunk
ici:_ContextAttribute_IsContextOK_m3281216012
WSe:_PathTooLongException__ctor_m3212099251
V1j:_pthread_cond_broadcast__wrapper
LXf:_ObjectManager_RaiseDeserializationEvent_m1611173032
fv:__ZN17PackedFloatVector8TransferI18StreamedBinaryReadILb0EEEEvRT_
eMg:__ZL88Screen_t786852042_CustomAttributesCacheGenerator_Screen_t786852042____width_PropertyInfoP21CustomAttributesCache
a0a:__ZN7Cubemap23VirtualRedirectTransferER17RemapPPtrTransfer
Imc:__Z37Register_UnityEngine_Screen_get_widthv
WGd:_DropdownItem_get_image_m2752143412
OVi:__ZL24UnresolvedVirtualCall_60P12Il2CppObjectaPK10MethodInfo
pfc:__ZN22BlockMemoryCacheWriter11GetPathNameEv
vId:_Graphic_Rebuild_m2617722358
qic:__ZN23TransformChangeDispatch38CheckAndClearChangedForMultipleSystemsEyP19ProfilerInformation
ayg:__ZL86SafeHandle_t2733794115_CustomAttributesCacheGenerator_SafeHandle_SetHandle_m1980208835P21CustomAttributesCache
s8d:_DateTime_ToString_m3108726445_AdjustorThunk
rY:__ZN19CloudServiceHandlerD2Ev
Kue:_Array_InternalArray__get_Item_TisTableRange_t2011406615_m602485977_gshared
CNd:_InputField_Append_m2623574152
TGe:_ApplicationException__ctor_m1120437222
Kmg:_MonoMethod__ctor_m4091684020
dp:stackAlloc
alc:__Z44Camera_CUSTOM_INTERNAL_CALL_ScreenPointToRayP12Il2CppObjectRK8Vector3fR3Ray
uJa:__ZN25SingleBlockMemoryFileData4LockEPPv
Uqb:__ZN12HandlerChain5TouchER13FileEntryData
Jig:_MethodBuilder_GetHashCode_m1713271764
hJc:__ZNK16CircleCollider2D22GetCompositeCapabilityEv
Oph:__Z50RuntimeInvoker_Boolean_t3825574718_Link_t865133271PFvvEPK10MethodInfoPvPS4_
Odf:_Collection_1_IsSynchronized_m1319022347_gshared
Nwe:_MSCompatUnicodeTable_GetResource_m3816716847
Tmc:__Z32RectOffset_Get_Custom_PropBottomP12Il2CppObject
IQd:_Array_CreateInstance_m15016505
hwb:__ZNSt3__26vectorI17AnimationCurveTplIfE13stl_allocatorIS2_L18MemLabelIdentifier1ELi16EEE6assignINS_11__wrap_iterIPS2_EEEENS_9enable_ifIXaasr21__is_forward_iteratorIT_EE5valuesr16is_constructibleIS2_NS_15iterator_traitsISC_E9referenceEEE5valueEvE4typeESC_SC_
fQj:_stat
Ald:_RijndaelTransform_Decrypt128_m1282993908
Q$i:_Canvas_get_isRootCanvas_m3746337338
wp:__ZN11Quaternionf8TransferI14SafeBinaryReadEEvRT_
Hoe:_Array_InternalArray__ICollection_CopyTo_TisUInt16_t986882611_m3228377237_gshared
V1e:_List_1_Add_m4157722533_gshared
s0g:__ZL68Navigation_t1571958496_CustomAttributesCacheGenerator_m_SelectOnDownP21CustomAttributesCache
tGc:__ZN15b2DistanceJoint23InitVelocityConstraintsERK12b2SolverData
MNb:__ZNSt3__218__insertion_sort_3IRNS_4lessIN22BuiltinResourceManager8ResourceEEEPS3_EEvT0_S7_T_
Ukd:_RC2_set_KeySize_m2015782960
ma:invoke_iiiiiiiiiiii
zcf:_Queue_1_GetEnumerator_m2842671368_gshared
Kif:_Collection_1_SetItem_m3715941382_gshared
EHe:_NumberFormatInfo_get_CurrencyGroupSeparator_m2480433019
nEe:_StrongName_get_PublicKey_m3777577320
f8h:_RuntimeCompatibilityAttribute__ctor_m1331212510
xoi:_PersistentCallGroup_Initialize_m3729167844
hS:__ZN10AudioMixer12RebindOutputEv
qqj:__ZNK15dense_hashtableINSt3__24pairIK10KeyWrapperIP11Il2CppClassES4_EES5_N6il2cpp8metadata16SZArrayClassHashEN14dense_hash_mapIS5_S4_SA_NS5_14EqualsComparerINS9_19SZArrayClassCompareEEENS0_9allocatorIS7_EEE9SelectKeyESE_SG_E5beginEv
L4i:__ZN6il2cpp2vm17SetupFieldsLockedEP11Il2CppClassRKNS_2os12FastAutoLockE
KS:__ZN11AudioSourceD0Ev
A3e:_List_1_System_Collections_ICollection_CopyTo_m1530390632_gshared
pkf:_Collection_1_System_Collections_IEnumerable_GetEnumerator_m1452790461_gshared
jZh:_InternalEnumerator_1_System_Collections_IEnumerator_Reset_m3194282029_AdjustorThunk
ksb:__ZN16MemoryFileSystem4NameEv
Q4e:__ZN21InterfaceFuncInvoker0I18Color32_t874517518E6InvokeEjP11Il2CppClassP12Il2CppObject
cxd:_BaseRaycaster_OnEnable_m3641767070
Taf:_List_1_ToArray_m2810936944_gshared
_Ve:_MissingMemberException_get_Message_m2763732423
puf:_PrimeGeneratorBase_get_PrimalityTest_m308005118
Kqg:__ZL71Enum_t2459695545_CustomAttributesCacheGenerator_Enum_Format_m2294492821P21CustomAttributesCache
Drc:__Z13SetCopyBufferRKN4core12basic_stringIcNS_20StringStorageDefaultIcEEEE
g3e:_List_1_CheckIndex_m2328469916_gshared
Hfh:__Z75RuntimeInvoker_RuntimeObject_RuntimeObject_Decimal_t724701077_RuntimeObjectPFvvEPK10MethodInfoPvPS4_
wbf:_List_1_AddRange_m3345533268_gshared
LUc:_UNITY_FT_New_Size
_ic:__Z42ScriptingGetComponentsOfTypeFromGameObjectRK26ScriptingGetComponentsArgs
FLi:_GUI_set_changed_m3199207797
Vbf:_List_1_get_Item_m3157283227_gshared
Dke:__ZN21InterfaceFuncInvoker2Ii38CustomAttributeNamedArgument_t94157543S0_E6InvokeEjP11Il2CppClassP12Il2CppObjectS0_S0_
nUg:__ZL92AudioSource_t1135106623_CustomAttributesCacheGenerator_AudioSource_get_isPlaying_m1207358099P21CustomAttributesCache
D5d:_Convert_ToString_m2915777777
GZa:__ZNSt3__27__sort4IRPFbRKNS_4pairIN9ShaderLab16FastPropertyNameEN18UnityPropertySheet11UnityTexEnvEEES8_EPS6_EEjT0_SD_SD_SD_T_
E0c:_cf2_hintmap_build
DQg:__ZL54PropertyName_t217228410_CustomAttributesCacheGeneratorP21CustomAttributesCache
y_c:_Line_Up
UXe:_MonoType_GetGenericTypeDefinition_m2363776160
pcf:_Queue_1__ctor_m1845245813_gshared
MAf:_Context_set_SentConnectionEnd_m2641458842
ke:_emscripten_glBufferSubData
TTd:_Buffer_BlockCopyInternal_m2627156229
vyb:__Z18Transfer_BlittableI17RemapPPtrTransferLb1EyEvRK29SerializationCommandArgumentsR31RuntimeSerializationCommandInfo
oId:_Graphic_set_material_m329335629
Nwd:_ExecuteEvents_get_pointerExitHandler_m3250605428
Fra:__ZN6prcoreL12RemapGenericI15TexFormatRGB88817TexFormatARGB8888EEvPKNS_9InnerInfoE
Vp:__Z17CalculateGlobalRS23TransformAccessReadOnly
Goh:__Z70RuntimeInvoker_DictionaryEntry_t3048875398_RuntimeObject_RuntimeObjectPFvvEPK10MethodInfoPvPS4_
hXf:__ZN21InterfaceFuncInvoker1IP12Il2CppObject28StreamingContext_t1417235061E6InvokeEjP11Il2CppClassS1_S2_
nze:_Kernel_multiByteDivide_m735279869
dGh:_Dictionary_2_ToTValue_m542772656_gshared
yfd:__ZN23UnityPurchasingSettings10InitializeER6Object
mYi:__ZL25UnresolvedVirtualCall_194P12Il2CppObject6Guid_tS1_PK10MethodInfo
K4f:_Thread_GetNewManagedId_internal_m3211695465
j1i:_UISystemProfilerApi_EndSample_m3264820872
bpa:__ZN17GenericDynamicVBO17DrawChunkInternalERK21DynamicVBOChunkHandle17ShaderChannelMaskS3_P17VertexDeclarationP16DrawBuffersRangeij
$hd:__ZN13RuntimeStaticINSt3__26vectorIN5physx25PxVehicleWheelQueryResultENS0_9allocatorIS3_EEEELb0EE16StaticInitializeEPv
Nwb:__ZN14SafeBinaryRead21TransferSTLStyleArrayI13dynamic_arrayI9BoundsIntLj4EEEEvRT_17TransferMetaFlags
Sib:__ZN22MemoryCacherReadBlocks14LockCacheBlockEjPPhS1_
USd:_Boolean_System_IConvertible_ToChar_m2637404801_AdjustorThunk
_th:__Z55RuntimeInvoker_UICharInfo_t3056636800_Int32_t2071877448PFvvEPK10MethodInfoPvPS4_
$qd:_SecurityContext_Capture_m2535194991
K8f:_UInt16_System_IConvertible_ToSByte_m3044765342_AdjustorThunk
yfg:_DerivedType_IsArrayImpl_m684825803
cpg:__ZL47Byte_t3683104436_CustomAttributesCacheGeneratorP21CustomAttributesCache
DRb:__ZNK9GfxDevice26GetSinglePassStereoEyeMaskEv
Ceh:__Z66RuntimeInvoker_Void_t1841601450_Int64_t909078037_Int32_t2071877448PFvvEPK10MethodInfoPvPS4_
KTc:__ZN20TextRenderingPrivate8FontImpl16CacheFontForTextEPtiifjPK13dynamic_arrayINS_16TextFormatChangeELj4EE
Crh:__Z52RuntimeInvoker_Int32_t2071877448_Vector3_t2243707580PFvvEPK10MethodInfoPvPS4_
Dre:_Array_qsort_TisUIVertex_t1204258818_TisUIVertex_t1204258818_m512606409_gshared
Jid:__Z21ArrayElementTypeCheckP11Il2CppArrayPv
Z_j:_emscripten_glTexSubImage2D__wrapper
THf:_NameValueCollection_AsSingleString_m10599052
CJc:__ZN17PhysicsMaterial2D16CheckConsistencyEv
VXb:__ZN14qsort_internal30FindAndMovePivotToLastPositionIP21ForwardRenderPassDataiN23ForwardShaderRenderLoop18RenderObjectSorterILb0EEEEEvT_S6_T0_T1_
UYe:_Object_InternalGetHashCode_m1371384246
MMh:_Navigation_get_defaultNavigation_m2185194207
$Pc:__ZN16PhysicsManager2D20WorldContactFilter2D13ShouldCollideEP9b2FixtureS2_
yMe:_Int32_System_IConvertible_ToSByte_m1449623243_AdjustorThunk
lGe:_AccessViolationException__ctor_m1270251537
kbd:__Z42Register_UnityEngine_Canvas_get_rootCanvasv
Ivi:_X509ExtensionCollection_IndexOf_m3972100651
cvb:__Z14resize_trimmedINSt3__26vectorI8MonoPPtr13stl_allocatorIS2_L18MemLabelIdentifier1ELi16EEEEEvRT_j
Te:_TTF_RenderText_Solid
E9f:_UInt32_System_IConvertible_ToInt64_m3091851828
bWe:_MissingMethodException__ctor_m3898429715
iVf:_RemotingConfiguration_RegisterClientProviderTemplate_m514821425
dyh:_Enumerator_System_Collections_IEnumerator_Reset_m3085583937_gshared
lfa:__ZN15dense_hashtableINSt3__24pairIKPKcPK4RTTIEES3_N11TypeManager23ConstCharPtrHashFunctorEN14dense_hash_mapIS3_S7_SA_NS9_19ConstCharPtrEqualToE13stl_allocatorIS8_L18MemLabelIdentifier7ELi16EEE9SelectKeyESC_SF_E15insert_noresizeERKS8_
yDe:_RSAManaged_ExportParameters_m2873993187
m1d:_Convert__cctor_m926133987
Lcf:_Enumerator__ctor_m2816143215_AdjustorThunk
Vfd:__ZN11UnityEngine7Connect16PersistentValuesC2Ev
UMf:_X509Chain_FindParent_m404663796
Axc:__Z18Transfer_BlittableI9JSONWriteLb0E5RectTIiEEvRK29SerializationCommandArgumentsR31RuntimeSerializationCommandInfo
aWe:_MissingMemberException__ctor_m2164043278
K2i:__ZL7log2_32j
rgf:_Collection_1_CopyTo_m2282972507_gshared
uCd:_BaseVertexEffect__ctor_m358261091
zPf:_Interpreter_GetGroupInfo_m312421921
Iva:__Z15IsIEEE754Format14GraphicsFormat
Jyb:__Z19TransferField_ArrayI17RemapPPtrTransfer27Converter_UnityEngineObjectEvRK23StaticTransferFieldInfoR31RuntimeSerializationCommandInfoRT0_
$a:invoke_iifiii
ZWb:__ZN19ShaderPropertySheet24SetTextureFromTextureRefERK23FastTexturePropertyNamePK10TextureRef
kBg:__ZL53HMACSHA384_t3026079344_CustomAttributesCacheGeneratorP21CustomAttributesCache
aOe:_NumberFormatter_InitDecHexDigits_m1612588520
yja:__ZN13GfxDeviceGLES15UploadTexture2DE9TextureID16TextureDimensionPKhiii14GraphicsFormati18TextureUploadFlags16TextureUsageMode
Gsd:_Single_GetHashCode_m3102305584_AdjustorThunk
XVg:__ZL77GUISkin_t1436893342_CustomAttributesCacheGenerator_m_horizontalScrollbarThumbP21CustomAttributesCache
ute:_Array_swap_TisVector3_t2243707580_m3036634038_gshared
kR:__ZN4FMOD6System9createDSPEP20FMOD_DSP_DESCRIPTIONPPNS_3DSPE
YB:__ZN7mecanim9animation26DestroyControllerWorkspaceEPNS0_19ControllerWorkspaceERNS_6memory9AllocatorE
yji:_UriParser_set_SchemeName_m3624672465
nN:__ZN4FMOD8ChannelI11EndCallbackEv
Dod:_ToBase64Transform_TransformBlock_m2201454137
Htc:__ZN8GUIStyle14SetDefaultFontEPN13TextRendering4FontE
vjg:_OpCode_get_StackBehaviourPop_m3787015663_AdjustorThunk
gei:_PatternCompiler_EmitCount_m3609178511
_3a:__ZN15QualitySettings23VirtualRedirectTransferER24GenerateTypeTreeTransfer
vYg:__ZL89PointerEventData_t1599784723_CustomAttributesCacheGenerator_U3CpositionU3Ek__BackingFieldP21CustomAttributesCache
zgj:__ZN6il2cpp2os10FileHandleC2Ev
_dh:__Z48RuntimeInvoker_SByte_t454417549_SByte_t454417549PFvvEPK10MethodInfoPvPS4_
w8g:__Z65RuntimeInvoker_Void_t1841601450_SByte_t454417549_SByte_t454417549PFvvEPK10MethodInfoPvPS4_
_uh:__Z54RuntimeInvoker_KeyValuePair_2_t888819835_RuntimeObjectPFvvEPK10MethodInfoPvPS4_
Xuh:__Z65RuntimeInvoker_DictionaryEntry_t3048875398_IntPtr_t_RuntimeObjectPFvvEPK10MethodInfoPvPS4_
SCg:__ZL84Encoding_t663144255_CustomAttributesCacheGenerator_Encoding_GetByteCount_m4104502544P21CustomAttributesCache
tyd:__ZN23InterfaceActionInvoker1IP25AxisEventData_t1524870173E6InvokeEjP11Il2CppClassP12Il2CppObjectS1_
mUf:_ObjRef_set_TypeInfo_m1661789743
w7i:__ZN30dense_hashtable_const_iteratorINSt3__24pairIK10KeyWrapperIPK19Il2CppGenericMethodEPK26Il2CppGenericMethodIndicesEES6_N6il2cpp8metadata23Il2CppGenericMethodHashEN14dense_hash_mapIS6_SA_SE_NS6_14EqualsComparerINSD_26Il2CppGenericMethodCompareEEENS0_9allocatorISB_EEE9SelectKeyESI_SK_EppEv
NGf:_HybridDictionary_Add_m1037587952
nUc:_UNITY_FT_Request_Metrics
dXa:__ZN7Texture8TransferI18StreamedBinaryReadILb0EEEEvRT_
evj:__ZN6il2cpp6icalls8mscorlib6System10Reflection10MonoMethod29get_IsGenericMethodDefinitionEP22Il2CppReflectionMethod
Krj:__ZN6il2cpp2vm6Thread21AllocThreadStaticDataEi
Vgi:__ZN23InterfaceActionInvoker4IiibP19LinkRef_t2090853131E6InvokeEjP11Il2CppClassP12Il2CppObjectiibS1_
p2d:_DateTime_YearMonthDayFormats_m4204607055
WDd:_ColorBlock_set_disabledColor_m3502887543_AdjustorThunk
UDj:__ZN30dense_hashtable_const_iteratorINSt3__24pairIK10KeyWrapperIPK19Il2CppGenericMethodEP10MethodInfoEES6_N6il2cpp8metadata23Il2CppGenericMethodHashEN14dense_hash_mapIS6_S9_SD_NS6_14EqualsComparerINSC_26Il2CppGenericMethodCompareEEENS0_9allocatorISA_EEE9SelectKeyESH_SJ_EppEv
SV:__Z13RegisterClassI13AudioListenerEvv
uth:__Z48RuntimeInvoker_Link_t865133271_Int32_t2071877448PFvvEPK10MethodInfoPvPS4_
DOi:_Aes__ctor_m4020215067
Zwc:__Z18Transfer_BlittableI9JSONWriteLb0E8Vector3fEvRK29SerializationCommandArgumentsR31RuntimeSerializationCommandInfo
Tba:__ZN13RuntimeStaticI17UniqueIDGeneratorLb0EE13StaticDestroyEPv
Sf:_emscripten_glUniform4i
rBg:__ZL46MD5_t1507972490_CustomAttributesCacheGeneratorP21CustomAttributesCache
tId:_Graphic_OnDisable_m2360886868
cLi:_ObjectPool_1_Release_m1615270002_gshared
cf:_emscripten_glUniform4f
yj:___unlock
NGj:_GC_default_oom_fn
dHa:__ZN15dense_hashtableINSt3__24pairIKN4core12basic_stringIcNS2_20StringStorageDefaultIcEEEEP20ArchiveStorageReaderEES6_20StringHash32FunctionIS6_EN14dense_hash_mapIS6_S9_SC_NS0_8equal_toIS6_EE13stl_allocatorISA_L18MemLabelIdentifier55ELi16EEE9SelectKeyESF_SI_ED2Ev
pQh:_ScrollRect_InternalCalculateOffset_m3083065267
h0h:_InternalEnumerator_1_System_Collections_IEnumerator_Reset_m1561424184_AdjustorThunk
x3b:__ZN13sorted_vectorINSt3__24pairIN4core12basic_stringIcNS2_20StringStorageDefaultIcEEEES6_EEN10vector_mapIS6_S6_27compare_tstring_insensitiveIS6_E13stl_allocatorIS7_L18MemLabelIdentifier38ELi16EEE13value_compareESD_E9erase_oneIS6_EEjRKT_
mZd:_Comparer_Compare_m4132969818
tT:__ZN20SoundChannelInstance19setReverbPropertiesEP29FMOD_REVERB_CHANNELPROPERTIES
dOd:_U3CCaretBlinkU3Ec__Iterator0_System_Collections_Generic_IEnumeratorU3CobjectU3E_get_Current_m3541562536
E4h:_InternalEnumerator_1__ctor_m2808001655_AdjustorThunk
n1h:_InternalEnumerator_1_System_Collections_IEnumerator_Reset_m2571770313_AdjustorThunk
Rkg:_FieldInfo_get_UMarshal_m1934544188
THh:_DefaultComparer_Equals_m2171836276_gshared
Pfa:__ZN13RuntimeStaticI18SpriteAtlasManagerLb0EE13StaticDestroyEPv
auj:__ZN6il2cpp2vm9Exception18GetFormatExceptionEPKc
ozg:__ZL55IMessageSink_t2189618969_CustomAttributesCacheGeneratorP21CustomAttributesCache
krc:__Z40Register_UnityEngine_Transform_IsChildOfv
Uqi:_Mathf_Floor_m484333823
eXd:_ArrayList_Sort_m923359189
KTh:_Text_CalculateLayoutInputVertical_m1732119136
upi:_Gradient_Init_m3042650694
Ulc:__Z45Register_UnityEngine_Display_GetSystemExtImplv
IBa:__ZN9GfxDevice31DrawIndexedNullGeometryIndirectE16GfxPrimitiveTypeP9GfxBuffer15ComputeBufferIDj
Ny:__ZN7mecanim9animation23TransformValuesFromClipEiiiRKNS_10ValueArrayERKNS0_10ClipOutputERKNS0_12ClipBindingsERS1_RNS_14ValueArrayMaskEb
GFe:_X509Certificate_GetSubjectName_m2120755276
yga:__ZN30dense_hashtable_const_iteratorINSt3__24pairIKN4core12basic_stringIcNS2_20StringStorageDefaultIcEEEE13dynamic_arrayI4PPtrI6SpriteELj4EEEES6_20StringHash32FunctionIS6_EN14dense_hash_mapIS6_SC_SF_NS0_8equal_toIS6_EE13stl_allocatorISD_L18MemLabelIdentifier81ELi16EEE9SelectKeyESI_SL_EC2EPK15dense_hashtableISD_S6_SF_SN_SI_SL_EPKSD_SU_b
H2i:__ZL17log2withScale_128yyi
ANg:__ZL58ResourceRequest_t2560315377_CustomAttributesCacheGeneratorP21CustomAttributesCache
s7c:__ZNSt3__218__insertion_sort_3IRNS_6__lessIN2UI14DepthSortEntryES3_EEPS3_EEvT0_S7_T_
S8b:__ZN2UI13RectTransform15InitializeClassEv
kda:__ZN13RuntimeStaticI15DirectorManagerLb0EE16StaticInitializeEPv
VAc:__ZN8JSONRead8TransferI23ManagedObjectTransfererEEvRT_PKc17TransferMetaFlagsb
L4f:_Thread_get_ManagedThreadId_m1995754972
jYi:__ZL25UnresolvedVirtualCall_191P12Il2CppObjectsPK10MethodInfo
wwd:_BaseInput_get_touchCount_m998724785
ycb:__ZN11TimeManager6UpdateEv
qvi:_X509Chain_get_Status_m2726750609
WNd:_InputField_get_preferredWidth_m3185355225
rjf:_Collection_1_RemoveItem_m1406181352_gshared
C4f:_Thread_SetState_m3198426726
yXd:_ArrayListWrapper_Contains_m1158465965
hte:_Array_swap_TisColor32_t874517518_m2203309732_gshared
juf:_BigInteger_op_LessThan_m3825358479
mQj:_fflush
TNa:__ZN17LightProbeContext4InitERK16LightmapSettingsRK14RenderSettings
gTd:_Convert_ToInt32_m55151042
rOj:__GLOBAL__sub_I_Error_cpp
NTi:_AudioSource_INTERNAL_CALL_ReadExtensionPropertyName_m3694806886
rgi:_Alternation_GetWidth_m4218808325
Brf:_ReadOnlyCollection_1_System_Collections_IList_Insert_m2651065875_gshared
aQa:__ZN10ColorRGBAf8TransferI19StreamedBinaryWriteILb0EEEEvRT_
tWc:_ft_bitmap_glyph_bbox
_Hf:_TypeConverterAttribute__ctor_m4061167050
pYi:__ZL25UnresolvedVirtualCall_197P12Il2CppObject22ColorBlock_t2652774230PK10MethodInfo
mcf:_Enumerator_MoveNext_m3315718998_gshared
uAj:__ZNSt3__26vectorI20Il2CppStackFrameInfoNS_9allocatorIS1_EEE7reserveEj
FPg:__ZL75SpriteAtlasManager_t308281693_CustomAttributesCacheGenerator_atlasRequestedP21CustomAttributesCache
zI:__ZN14SafeBinaryRead21TransferSTLStyleArrayI22OffsetPtrArrayTransferI9OffsetPtrIN7mecanim12statemachine21SelectorStateConstantEEEEEvRT_17TransferMetaFlags
ZFh:_Dictionary_2_ContainsValue_m2760581195_gshared
wIj:_GC_reclaim_uninit
k$b:__Z34ProcessIndexListIsNodeVisibleStep2RK22SceneCullingParametersPK9SceneNodePK4AABBR9IndexList
CKb:__ZN10MonoScriptD2Ev
Wra:__ZN6prcoreL12RemapGenericI17TexFormatARGB888817TexFormatBGRA8888EEvPKNS_9InnerInfoE
Iu:__ZN18StreamedBinaryReadILb0EE8TransferINSt3__26vectorIN13AnimationClip12Vector3CurveE13stl_allocatorIS5_L18MemLabelIdentifier26ELi16EEEEEEvRT_PKc17TransferMetaFlags
wSh:_Slider_OnRectTransformDimensionsChange_m4109401172
cKf:_WebHeaderCollection_Get_m3391944907
qnc:__Z39Input_CUSTOM_INTERNAL_get_mousePositionP8Vector3f
zZc:_tt_cmap13_char_next
AVf:_ServerIdentity__ctor_m1576469955
wob:__ZN9ShaderLab4Pass16SetupPassOptionsEv
fh:_JS_Sound_ReleaseInstance
TPg:__ZL72IL2CPPStructAlignmentAttribute_t130316838_CustomAttributesCacheGeneratorP21CustomAttributesCache
xia:__ZN13GfxDeviceGLES19DrawBuffersIndirectEP9GfxBufferPK18VertexStreamSourceiP17VertexDeclaration17ShaderChannelMask16GfxPrimitiveType15ComputeBufferIDj
S7e:_List_1_Shift_m439051997_gshared
CFd:_DefaultControls_CreateScrollbar_m770089625
Q8h:_InAttribute__ctor_m1401060713
KZj:_emscripten_glPixelStorei__wrapper
tOc:__Z20GetRigidbodyChildrenRK9Transform13dynamic_arrayIP11Rigidbody2DLj4EE
T9d:_Decimal_System_IConvertible_ToDecimal_m1541432424_AdjustorThunk
LHb:__Z29Transfer_Blittable_ArrayFieldI18StreamedBinaryReadILb0EEaEvRT_R9ArrayInfoRK23StaticTransferFieldInfo
Em:FUNCTION_TABLE_diddi
n$f:_EncoderExceptionFallbackBuffer__ctor_m3538569575
gpc:__Z26Material_CUSTOM_SetIntImplP12Il2CppObjectii
NQg:__ZL108StackTraceUtility_t1881293839_CustomAttributesCacheGenerator_StackTraceUtility_ExtractStackTrace_m2375126700P21CustomAttributesCache
mKe:_Int16_System_IConvertible_ToSingle_m3277935657_AdjustorThunk
Adj:__ZNSt3__26vectorIPK10MethodInfoNS_9allocatorIS3_EEE21__push_back_slow_pathIRKS3_EEvOT_
O6c:__ZNK2UI14CanvasRenderer22GetTypeVirtualInternalEv
Jci:_InternalRemotingServices__cctor_m3821625125
enc:__Z42Register_UnityEngine_RectOffset_get_bottomv
I1f:_StringBuilder_Insert_m3322917127
aHh:_DefaultComparer_Equals_m724229128_gshared
m7e:_List_1__cctor_m1337542316_gshared
Uyh:_Enumerator_VerifyCurrent_m1702320752_AdjustorThunk
mVh:_ArrayReadOnlyList_1_Clear_m2539474626_gshared
mRf:__ZN21InterfaceFuncInvoker0IP24ObjectU5BU5D_t3614634134E6InvokeEjP11Il2CppClassP12Il2CppObject
Owb:__ZN9BoundsInt8TransferI14SafeBinaryReadEEvRT_
d4d:_Convert_ToDouble_m3520060872
dZj:_emscripten_glUniform1f__wrapper
YTj:dynCall_di
cEf:_SslCipherSuite_ComputeServerRecordMAC_m1876572367
uTc:__ZN20TextRenderingPrivate19NativeTextGeneratorC2ERK11UTF16StringPNS_8FontImplE11ColorRGBA32ifRK8Vector2fbifiibffbbbP13dynamic_arrayIN2UI8UIVertexELj4EE
Gwc:__Z28RegisterModule_JSONSerializev
R3f:_Interlocked_CompareExchange_m3227034792
tjd:_HashAlgorithm_get_Hash_m931854461
NKg:__ZL100Camera_t189460977_CustomAttributesCacheGenerator_Camera_INTERNAL_CALL_ScreenToWorldPoint_m1802525617P21CustomAttributesCache
I5h:_DefaultComparer_Compare_m3564013922_gshared
ypb:__ZN2UI13RectTransform8TransferI14SafeBinaryReadEEvRT_
Sxc:__Z35Transfer_Blittable_FixedBufferFieldI9JSONWriteaEvRK29SerializationCommandArgumentsR31RuntimeSerializationCommandInfo
jlh:__Z63RuntimeInvoker_RuntimeObject_Ray_t2469606224_Single_t2076509932PFvvEPK10MethodInfoPvPS4_
Tgc:__Z20IsHumanControllingUsv
ZQb:__ZNK19RenderEventsContext21ExecuteCommandBuffersEijR17ShaderPassContextR15RenderNodeQueueP19ProfilerInformationi
Vhf:_Collection_1_RemoveAt_m3454169520_gshared
o1:__ZNK20DynamicHeapAllocatorI17LowLevelAllocatorE10GetPtrSizeEPKv
Ns:__ZN7mecanim5human9HumanGoal8TransferI14SafeBinaryReadEEvRT_
sCi:_Texture2D_GetPixelBilinear_m3514551520
iz:__ZN17AnimationPlayable16AllocateBindingsEPK35AnimationPlayableEvaluationConstant
nGd:_Dropdown_set_value_m2945561009
oia:__ZN13GfxDeviceGLES17DestroyGpuProgramEPK10GpuProgram
wHe:_GregorianCalendar_GetMonth_m523739832
mtb:__Z44InitializeTransferFunctionScriptingTraitsForI18StreamedBinaryReadILb0EEEvR31TransferFunctionScriptingTraits
jXb:__ZNSt3__218__insertion_sort_3IR23CompareReflectionProbesP31RuntimeReflectionProbeBlendInfoEEvT0_S5_T_
Tyb:__ZN12NativeBufferI27Converter_SimpleNativeClassI8GradientEE15SetupForWritingER9ArrayInfo
aga:__ZNSt3__213__stable_sortIRNS_4lessIN4core12basic_stringIcNS2_20StringStorageDefaultIcEEEEEENS_11__wrap_iterIPS6_EEEEvT0_SC_T_NS_15iterator_traitsISC_E15difference_typeEPNSF_10value_typeEi
Knf:_ReadOnlyCollection_1_System_Collections_ICollection_get_IsSynchronized_m2987885125_gshared
_2:__ZN12_GLOBAL__N_113StaticDestroyEPv
LJe:_Guid_ToString_m51661589
TDh:_Dictionary_2__ctor_m1512192236_gshared
bTh:_Text_set_font_m1095513810
P1j:_glUnmapBuffer__wrapper
s7d:_DateTime_System_IConvertible_ToUInt32_m1363211018_AdjustorThunk
nLd:_InputField_get_cachedInputTextGenerator_m881618486
loc:__Z32Mesh_CUSTOM_ExtractArrayFromListP12Il2CppObject
odg:_Binder_get_DefaultBinder_m965620943
FYg:__ZL87PointerEventData_t1599784723_CustomAttributesCacheGenerator_U3CbuttonU3Ek__BackingFieldP21CustomAttributesCache
yBc:__ZN8JSONRead21TransferSTLStyleArrayINSt3__26vectorI8Gradient13stl_allocatorIS3_L18MemLabelIdentifier1ELi16EEEEEEvRT_17TransferMetaFlags
qBf:_SecurityParameters_Clear_m3409219757
Vcb:__ZNSt3__218__insertion_sort_3IRNS_6__lessINS_4pairIPKN5Unity4TypeE7Hash128EES8_EEPS8_EEvT0_SC_T_
BAb:__ZN10RectOffset8TransferI24GenerateTypeTreeTransferEEvRT_
IRd:_SimpleEnumerator_get_Current_m482975946
SQj:_srand
oKc:__ZNK10Collider2D15GetAttachedBodyEv
Nzb:__Z18Transfer_BlittableI24GenerateTypeTreeTransferLb1E5RectTIiEEvRK29SerializationCommandArgumentsR31RuntimeSerializationCommandInfo
NPa:__ZNSt3__24listI4PPtrI6CameraENS_9allocatorIS3_EEE6removeERKS3_
aXe:_MonoTypeInfo__ctor_m1398838196
b7c:__ZN2UI13CanvasManager19RemoveDirtyRendererEPNS_6CanvasEPNS_14CanvasRendererE
zji:_UriParser_set_DefaultPort_m1159216960
dUh:_Toggle_Rebuild_m929023818
v8i:__ZN15dense_hashtableI10KeyWrapperIPK17Il2CppGenericInstES4_N6il2cpp8metadata21Il2CppGenericInstHashEN14dense_hash_setIS4_S7_NS4_14EqualsComparerINS6_24Il2CppGenericInstCompareEEENSt3__29allocatorIS4_EEE8IdentityESB_SE_E12resize_deltaEjj
bic:__ZN8Material14DisableKeywordERKN4core12basic_stringIcNS0_20StringStorageDefaultIcEEEE
Gli:_CameraCallback_EndInvoke_m1254702166
Ecd:__ZN11UnityEngine15PlatformWrapper25GetGraphicsRendererStringEv
$Og:__ZL97Transform_t3275118058_CustomAttributesCacheGenerator_Transform_INTERNAL_get_localScale_m275445901P21CustomAttributesCache
iNd:_InputField_KeyPressed_m3066588581
BRh:_Selectable_DoStateTransition_m539253088
Mnd:_SHA512_Create_m439875055
X$:__ZN11UnityEngine15CloudWebService17WebFileDownloaderINS0_20WebRequestRestClientENS0_23WebRequestRestHeaderMapEED2Ev
Ub:invoke_vi
End:_SHA384Managed_update_m2629600295
KHc:__ZNSt3__26vectorINS0_IN10ClipperLib8IntPointENS_9allocatorIS2_EEEENS3_IS5_EEE7reserveEj
fzc:__ZN9JSONWrite8TransferI13dynamic_arrayI9BoundsIntLj4EEEEvRT_PKc17TransferMetaFlags
Sb:invoke_vd
sb:invoke_vf
o3h:_InternalEnumerator_1__ctor_m32322958_AdjustorThunk
waa:__ZNK10GameObject8IsActiveEv
lYe:_NumberFormatter__cctor_m1641464619
kWg:__ZL67g_UnityEngine_PhysicsModule_Assembly_CustomAttributesCacheGeneratorP21CustomAttributesCache
vZf:_SByte_System_IConvertible_ToUInt32_m4256495110
azd:_PointerEventData_set_eligibleForClick_m2036057844
MRi:_BaseArea__ctor_m3862787937
wva:__ZN18GfxFramebufferGLES23SetupDefaultFramebufferEPP17RenderSurfaceBaseS2_N2gl6HandleILNS3_10ObjectTypeE9EEE
uQj:_mbsinit
JXg:__ZL70EventSystem_t3466835263_CustomAttributesCacheGenerator_m_FirstSelectedP21CustomAttributesCache
LRi:_AudioManager_explode_m2464530137
b5a:__ZN13ScreenManager18RequestOrientationE17ScreenOrientation
i5i:__ZN6il2cpp2vm5Class12SetupMethodsEP11Il2CppClass
wic:__Z39DeleteLastPathNameComponentWithAnySlashRKN4core12basic_stringIcNS_20StringStorageDefaultIcEEEE
Hsc:__ZN10GUIManager14InitGUIManagerEv
iEg:__ZL62ApplicationException_t474868623_CustomAttributesCacheGeneratorP21CustomAttributesCache
F$g:__ZL68InputField_t1631627530_CustomAttributesCacheGenerator_m_KeyboardTypeP21CustomAttributesCache
HUh:_VerticalLayoutGroup_CalculateLayoutInputHorizontal_m497637066
xCd:_Button_get_onClick_m1595880935
xKi:_ListPool_1_Release_m3716853512_gshared
Zch:__Z134RuntimeInvoker_Int32_t2071877448_RuntimeObject_Int32_t2071877448_Int32_t2071877448_RuntimeObject_Int32_t2071877448_Int32U26_t455636984PFvvEPK10MethodInfoPvPS4_
_Rf:_MethodCall__ctor_m4106494862
c9g:__Z167RuntimeInvoker_Void_t1841601450_SByte_t454417549_SByte_t454417549_SByte_t454417549_SByte_t454417549_SByte_t454417549_SByte_t454417549_SByte_t454417549_SByte_t454417549PFvvEPK10MethodInfoPvPS4_
Quc:__Z37Register_UnityEngine_GUIStyle_Cleanupv
Oa:invoke_iiifii
Lcc:__ZN8GUILayer12AddToManagerEv
Tdj:__ZN6il2cpp6icalls8mscorlib6System8MonoType13IsPointerImplEP20Il2CppReflectionType
P3d:_Convert_ToDecimal_m2284596541
Ri:_emscripten_glFramebufferRenderbuffer
$Zb:__ZN19CullingGroupManager17CullAndSendEventsERK22SceneCullingParametersiRK13CullingOutputRK8JobFence
nIg:__ZL64CipherSuiteCollection_t2431504453_CustomAttributesCacheGeneratorP21CustomAttributesCache
Nqh:__Z105RuntimeInvoker_Int32_t2071877448_RuntimeObject_UILineInfo_t3621277874_Int32_t2071877448_Int32_t2071877448PFvvEPK10MethodInfoPvPS4_
tCf:_TlsServerCertificateRequest_ProcessAsSsl3_m3017921864
NNe:_Int64_GetHashCode_m4047499913
FLa:__ZN9Transform30EnsureTransformHierarchyExistsEv
Efj:_il2cpp_field_get_flags
mV:__ZN11AudioModule26SetDefaultMicrophoneDriverEPv
gkh:__Z52RuntimeInvoker_Vector4_t2243707581_Color_t2020392075PFvvEPK10MethodInfoPvPS4_
eSd:_Attribute_IsDefined_m216577166
iWd:_Char_ToUpper_m109978609
r_h:_InternalEnumerator_1_get_Current_m1089848479_gshared
hce:_Double_System_IConvertible_ToInt64_m3798425616
LAd:_StandaloneInputModule_get_repeatDelay_m3025279
v6a:__ZN14dense_hash_mapIN4core12basic_stringIcNS0_20StringStorageDefaultIcEEEE13dynamic_arrayI4PPtrI6SpriteELj4EE20StringHash32FunctionIS4_ENSt3__28equal_toIS4_EE13stl_allocatorINSC_4pairIKS4_S9_EEL18MemLabelIdentifier81ELi16EEEixERSH_
o3b:__ZNSt3__26vectorINS_4pairIN4core12basic_stringIcNS2_20StringStorageDefaultIcEEEEPK17MessageIdentifierEENS_9allocatorISA_EEE12__move_rangeEPSA_SE_SE_
YAi:_SceneManager_LoadSceneAsyncNameIndexInternal_m1250496078
sTb:__ZN14qsort_internal17MedianOfThreeSwapIP17RODataReplacement19ROSorterReplacementEEvT_S4_S4_T0_
xmh:__Z60RuntimeInvoker_FramePressState_t1414739712_Int32_t2071877448PFvvEPK10MethodInfoPvPS4_
tff:_Collection_1_System_Collections_IList_Insert_m3303840316_gshared
$3i:__ZNK15dense_hashtableINSt3__24pairIK10KeyWrapperIPK22Il2CppGenericParameterEP11Il2CppClassEES6_N6il2cpp5utils11PointerHashIS4_EEN14dense_hash_mapIS6_S9_SE_NS6_14EqualsComparerINS0_8equal_toIS5_EEEENS0_9allocatorISA_EEE9SelectKeyESJ_SL_E3endEv
sic:__ZN17TransformInternal36OnScaleChangedCalculateTransformTypeE15TransformAccess
CYd:_SynchronizedArrayListWrapper_InsertRange_m709359548
wHa:__ZN17ArchiveFileSystem10ToAbsoluteEPKc
duf:_BigInteger_op_Modulus_m13450242
YSa:__ZN4PPtrI8MaterialE8TransferI18StreamedBinaryReadILb0EEEEvRT_
rdd:__ZN19UnityConnectService15GetPlayerUserIdEv
F4d:_Convert_ToInt32_m2988544165
Ure:_Array_Resize_TisColor32_t874517518_m2219502085_gshared
ID:__ZN7mecanim6CRCKeyENS_7eStringE
WFf:_SslStreamBase_get_CanWrite_m2069502593
Ifc:__ZL12SetPrefValueRKN4core12basic_stringIcNS_20StringStorageDefaultIcEEEERK9PrefValue
Wjb:__ZL30ReconstructParamNamesFromTableIN9ShaderLab20SerializedSubProgram15MatrixParameterEEvRK14dense_hash_mapIiN4core17string_with_labelILi1EEE18SInt32HashFunctionNSt3__28equal_toIiEE13stl_allocatorINS8_4pairIKiS6_EEL18MemLabelIdentifier1ELi16EEERNS8_6vectorIT_NS8_9allocatorISL_EEEE
CZa:__ZL13SortTexByNameRKNSt3__24pairIN9ShaderLab16FastPropertyNameEN18UnityPropertySheet11UnityTexEnvEEES7_
DEj:__ZN6il2cpp5utils11StringUtils6PrintfEPKcz
zRc:__ZN16NovodexAllocatorD0Ev
UZa:__ZN15NameToObjectMapI6ShaderNSt3__23mapI4PPtrIS0_EN4core12basic_stringIcNS5_20StringStorageDefaultIcEEEENS1_4lessIS4_EENS1_9allocatorINS1_4pairIKS4_S9_EEEEEENS1_8multimapIS9_S4_NSA_IS9_EENSC_INSD_IKS9_S4_EEEEEEE4FindERSK_
azh:_ShimEnumerator_Reset_m98005789_gshared
z$a:__ZN24GenerateTypeTreeTransfer21TransferResourceImageE19ActiveResourceImagePKcR13StreamingInfoPvjiPKN5Unity4TypeE
gwf:_PKCS1_Compare_m552424558
Cuf:_ASN1__ctor_m1045937444
xpf:_ReadOnlyCollection_1_System_Collections_IList_set_Item_m1377990618_gshared
hig:_ILGenerator_make_room_m373147874
DGh:_Dictionary_2_Init_m1045257495_gshared
yVf:_SingleCallIdentity__ctor_m1512303454
BTd:_Boolean_CompareTo_m3691698947_AdjustorThunk
Gle:_Array_InternalArray__IndexOf_TisKeyValuePair_2_t888819835_m2660446234_gshared
ZCe:_PKCS1_Verify_v15_m2571212635
WUa:__ZNSt3__212__deque_baseI18ReflectionProbeJobNS_9allocatorIS1_EEED2Ev
eD:__ZN11UnityEngine9Animation27DestroyAnimationSetBindingsEPNS0_20AnimationSetBindingsERN7mecanim6memory9AllocatorE
akb:__ZN15dense_hashtableINSt3__24pairIKiN4core17string_with_labelILi1EEEEEi18SInt32HashFunctionN14dense_hash_mapIiS5_S7_NS0_8equal_toIiEE13stl_allocatorIS6_L18MemLabelIdentifier1ELi16EEE9SelectKeyESA_SD_E13set_empty_keyERKS6_
gL:__ZN8Animator12CleanupClassEv
d$f:_DecoderReplacementFallbackBuffer__ctor_m1305504326
wBc:__Z13TransferFieldI8JSONReadLb0E27Converter_SimpleNativeClassI10RectOffsetEEvRK23StaticTransferFieldInfoR31RuntimeSerializationCommandInfoRT1_
Vtd:_String_IndexOf_m570401060
YKd:_Image_CalculateLayoutInputVertical_m1340533162
Tce:_Enum_System_IConvertible_ToDateTime_m2924690746
PGd:_Dropdown_CreateBlocker_m4109366440
ojd:_HashAlgorithm_System_IDisposable_Dispose_m2106335965
Dxj:__GLOBAL__sub_I_GenericMetadata_cpp
fYe:_NotImplementedException__ctor_m1305569814
$Ug:__ZL67GUISettings_t622856320_CustomAttributesCacheGenerator_m_CursorColorP21CustomAttributesCache
fdj:__ZN6il2cpp6icalls8mscorlib6System8MonoType18GetFields_internalEP20Il2CppReflectionTypeiS5_
N_b:__Z24CalculateSpotLightBoundsffRK10Matrix4x4fR15SpotLightBounds
Qwe:_TailoringInfo__ctor_m2248501932
GWa:__ZNK13RenderTexture21GetShadowSamplingModeEv
mY:__ZN23CloudWebServicesManager23VirtualRedirectTransferER14SafeBinaryRead
J8g:__Z150RuntimeInvoker_Int32_t2071877448_RuntimeObject_Int32_t2071877448_Int32_t2071877448_RuntimeObject_Int32_t2071877448_Int32_t2071877448_Int32_t2071877448PFvvEPK10MethodInfoPvPS4_
_Xd:_FixedSizeArrayListWrapper_InsertRange_m2690348965
fKb:__Z19ShouldTransferFieldR32SerializationCommandQueueBuilder17ScriptingClassPtriR18TransferField_InfoRK20CoreScriptingClasses
ekg:_FieldInfo_get_IsStatic_m1411173225
Vlj:__ZNK15dense_hashtableINSt3__24pairIK10KeyWrapperINS1_IPK12PropertyInfoP11Il2CppClassEEEjEES9_17ReflectionMapHashIS8_EN14dense_hash_mapIS9_jSD_NS9_14EqualsComparerINS0_8equal_toIS8_EEEENS0_9allocatorISB_EEE9SelectKeyESI_SK_E12test_deletedEj
jSe:_MemoryStream_Read_m2289595005
_za:__ZN26SinglePassStereoSupportExt21SetStereoMatrixCommonE21MonoOrStereoscopicEye24BuiltinShaderMatrixParamRK10Matrix4x4f
SR:__ZN5audio5mixer22UpdateAudioMixerMemoryERKNS0_18AudioMixerConstantERNS0_16AudioMixerMemoryEfPN4FMOD6SystemEf
aSc:__ZL21InitializeCachedStripPv
gjd:_SignatureDescription_set_DigestAlgorithm_m3219799565
Tsj:__ZN6il2cpp6icalls8mscorlib6System9Threading6Thread23GetCachedCurrentCultureEP12Il2CppThread
bSg:__ZL94PlayerEditorConnectionEvents_t2252784345_CustomAttributesCacheGenerator_messageTypeSubscribersP21CustomAttributesCache
WQh:_Selectable_get_allSelectables_m3045831006
sNa:__ZNK6Camera22GetWorldToCameraMatrixEv
QRd:_ArrayTypeMismatchException__ctor_m2892687300
pAj:__ZN6il2cpp2vm12GenericClass11IsValueTypeEP18Il2CppGenericClass
f8g:__Z49RuntimeInvoker_TypeCode_t2536926201_RuntimeObjectPFvvEPK10MethodInfoPvPS4_
cJb:__ZN13MonoBehaviour7SetNameEPKc
Zwf:_ContentInfo__ctor_m3579805263
L6i:__ZN15dense_hashtableINSt3__24pairIK10KeyWrapperIPKcEP11Il2CppClassEES5_N6il2cpp5utils11StringUtils12StringHasherIS4_EEN14dense_hash_mapIS5_S8_SE_NS5_14EqualsComparerINSB_13VmStringUtils21CaseSensitiveComparerEEENS0_9allocatorIS9_EEE9SelectKeyESJ_SL_E15set_deleted_keyERKS9_
jLc:__ZN25b2PolygonAndCircleContact7DestroyEP9b2ContactP16b2BlockAllocator
cQh:_ScrollRect_get_verticalNormalizedPosition_m1701804869
D2:__GLOBAL__sub_I_runtime_shaders_shaderimpl_0_cpp
e0g:__ZL138U3CMouseDragOutsideRectU3Ec__Iterator1_t2599668326_CustomAttributesCacheGenerator_U3CMouseDragOutsideRectU3Ec__Iterator1__ctor_m1439320044P21CustomAttributesCache
ygb:__ZN18AwakeFromLoadQueue5ClearEv
oBh:_Enumerator_get_Current_m2986380627_AdjustorThunk
qZb:__ZNSt3__27__sort5IR15ReflProbeSorterPP15ReflectionProbeEEjT0_S6_S6_S6_S6_T_
Ida:__ZN8Playable10DisconnectEPS_i
IXh:_InternalEnumerator_1_get_Current_m1526874475_AdjustorThunk
tk:_glGenTransformFeedbacks
gGa:__ZN13LoadOperationD2Ev
CJ:__ZN18StreamedBinaryReadILb0EE8TransferINSt3__24pairI8StateKey10StateRangeEEEEvRT_PKc17TransferMetaFlags
FBe:_KeyPairPersistence__ctor_m1817312194
T$i:_Canvas_set_scaleFactor_m3986864146
$ge:_Array_InternalArray__ICollection_Contains_TisMark_t2724874473_m1640201705_gshared
q9h:_ActivatedClientTypeEntry_get_ContextAttributes_m53051138
VMb:__Z21PlayerStartFirstSceneb
Yfg:_TypeBuilder_get_AssemblyQualifiedName_m2097258567
HZa:__ZNSt3__27__sort5IRPFbRKNS_4pairIN9ShaderLab16FastPropertyNameEN18UnityPropertySheet11UnityTexEnvEEES8_EPS6_EEjT0_SD_SD_SD_SD_T_
pna:__ZNK7ApiGLES18GetExtensionStringEv
Cya:__ZN31TransformFeedbackSkinPoseBufferD0Ev
eZj:_emscripten_glVertexAttrib1f__wrapper
UNh:_RaycastAllCallback__ctor_m3281594834
tqb:__ZNK12HandlerChain4SizeERK13FileEntryData
yHh:_DefaultComparer_Equals_m1281232537_gshared
ssg:__ZL99RuntimeFieldHandle_t2331729674_CustomAttributesCacheGenerator_RuntimeFieldHandle_Equals_m1202966418P21CustomAttributesCache
bp:FUNCTION_TABLE_iiiiiiiii
vMd:_InputField_set_asteriskChar_m619206227
H_f:_DES_IsSemiWeakKey_m3967392585
jEc:__Z22GetPhysicsGroundBody2Dv
p_i:_Comparison_1__ctor_m2159122699_gshared
sKe:_Int16_System_IConvertible_ToUInt32_m883204517_AdjustorThunk
xng:_MonoProperty_get_PropertyType_m1921201152
hFd:_FloatTween_TweenValue_m3881535116_AdjustorThunk
kHj:_GC_allochblk
Ngb:__Z15UnloadGameScenev
K1j:_glCheckFramebufferStatus__wrapper
mdh:__Z43RuntimeInvoker_Boolean_t3825574718_IntPtr_tPFvvEPK10MethodInfoPvPS4_
tfb:__ZNSt3__26vectorIN30RuntimeInitializeOnLoadManager15ClassMethodInfoE13stl_allocatorIS2_L18MemLabelIdentifier13ELi16EEE7reserveEj
yRg:__ZL59WriteOnlyAttribute_t14323075_CustomAttributesCacheGeneratorP21CustomAttributesCache
UKj:__ZN6il2cpp2vm6Atomic9IncrementEPVi
Jnj:__ZN15dense_hashtableINSt3__24pairIK10KeyWrapperIPK14Il2CppAssemblyEPK22Il2CppMonoAssemblyNameEES6_N6il2cpp5utils11PointerHashIS4_EEN14dense_hash_mapIS6_SA_SF_NS6_14EqualsComparerINS0_8equal_toIS5_EEEENS0_9allocatorISB_EEE9SelectKeyESK_SM_E5clearEv
OK:__ZN16MecanimAnimationD0Ev
itf:_BigInteger_get_Rng_m2525288368
rOf:_X509ExtensionEnumerator_Reset_m3200687545
nZd:_CaseInsensitiveHashCodeProvider__ctor_m3775398833
Nyi:_Rect_get_width_m3473344679
Cmc:__Z36Renderer_Get_Custom_PropSortingOrderP12Il2CppObject
xMi:_GUIContent__cctor_m976962423
bkj:__ZNK15dense_hashtableINSt3__24pairIK10KeyWrapperIPK10Il2CppTypeEjEES6_N6il2cpp8metadata14Il2CppTypeHashEN14dense_hash_mapIS6_jSB_NS6_14EqualsComparerINSA_26Il2CppTypeEqualityComparerEEENS0_9allocatorIS8_EEE9SelectKeyESF_SH_E13find_positionERS7_
wWa:__ZN7Texture5ResetEv
ADc:__ZNK14b2CapsuleShape7RayCastEP15b2RayCastOutputRK14b2RayCastInputRK11b2Transformi
czb:__Z18Transfer_BlittableI24GenerateTypeTreeTransferLb1EhEvRK29SerializationCommandArgumentsR31RuntimeSerializationCommandInfo
q9a:__ZN10VertexData10DeallocateEv
Fhj:__ZNSt3__214__split_bufferIiRNS_9allocatorIiEEEC2EjjS3_
bkc:__ZNK16TypeTreeIterator10ByteOffsetEv
_Hd:_Graphic_get_rectTransform_m2697395074
Rca:__ZnwjRKSt9nothrow_t
BG:__ZN8Animator11ClearObjectEv
Qjh:__Z55RuntimeInvoker_Boolean_t3825574718_Playable_t1896841784PFvvEPK10MethodInfoPvPS4_
uLf:_X500DistinguishedName_Decode_m3070515374
oYa:__ZN14SafeBinaryRead19TransferSTLStyleMapINSt3__23mapI39DeprecatedFastPropertyNameSerializationN18UnityPropertySheet11UnityTexEnvENS1_4lessIS3_EENS1_9allocatorINS1_4pairIKS3_S5_EEEEEEEEvRT_17TransferMetaFlags
lJf:_IPv6Address_set_ScopeId_m1442934355
AHc:__ZNSt3__27__sort4IRPFbPN10ClipperLib13IntersectNodeES3_EPS3_EEjT0_S8_S8_S8_T_
ftg:__ZL72PKCS12_t1362584794_CustomAttributesCacheGenerator_U3CU3Ef__switchU24mapBP21CustomAttributesCache
MXf:_ObjectManager_RaiseOnDeserializedEvent_m512850179
cSg:__ZL87PlayerEditorConnectionEvents_t2252784345_CustomAttributesCacheGenerator_connectionEventP21CustomAttributesCache
Yjc:__Z35UnregisterSerializationCacheBuilderPFv17ScriptingClassPtrR23CachedSerializationDataRbE
iOa:__Z30GetBuiltinVectorParamArraySize24BuiltinShaderVectorParam
ijj:__ZNSt3__218uninitialized_copyIPNS_4pairIK10KeyWrapperINS1_IPK14Il2CppAssemblyP11Il2CppClassEEEjEESC_EET0_T_SE_SD_
Bwe:_CodePointIndexer__ctor_m797342079
rTg:__ZL93TextGenerator_t647235000_CustomAttributesCacheGenerator_TextGenerator_Dispose_cpp_m1011672971P21CustomAttributesCache
G$g:__ZL64InputField_t1631627530_CustomAttributesCacheGenerator_m_LineTypeP21CustomAttributesCache
pBg:__ZL61KeyedHashAlgorithm_t1374150027_CustomAttributesCacheGeneratorP21CustomAttributesCache
k2a:__ZN18StreamedBinaryReadILb0EE21TransferSTLStyleArrayI13dynamic_arrayI7Hash128Lj8EEEEvRT_17TransferMetaFlags
hZg:__ZL103PointerEventData_t1599784723_CustomAttributesCacheGenerator_PointerEventData_set_clickCount_m2095939005P21CustomAttributesCache
$2a:__ZN21RendererUpdateManager11AddRendererER8Renderer
O7b:__Z13RegisterClassI15ResourceManagerEvv
cYf:_SerializationEntry_t3485203212_marshal_pinvoke_back
fmh:__Z78RuntimeInvoker_Void_t1841601450_RuntimeObject_RuntimeObject_RectU26_t844847526PFvvEPK10MethodInfoPvPS4_
Wtb:__Z35Transfer_Blittable_FixedBufferFieldI14SafeBinaryReadsEvRK29SerializationCommandArgumentsR31RuntimeSerializationCommandInfo
v8a:__ZN14SafeBinaryRead21TransferSTLStyleArrayI13dynamic_arrayIfLj4EEEEvRT_17TransferMetaFlags
PDg:__ZL79Thread_t241561612_CustomAttributesCacheGenerator_Thread_GetHashCode_m2038641494P21CustomAttributesCache
EEj:__ZN6il2cpp5utils11StringUtils11Utf16ToUtf8EPKDs
Yeb:__ZN18StreamedBinaryReadILb0EE21TransferSTLStyleArrayINSt3__26vectorIN15ResourceManager10DependencyE13stl_allocatorIS5_L18MemLabelIdentifier52ELi16EEEEEEvRT_17TransferMetaFlags
Vcd:__ZN11UnityEngine15PlatformWrapper20IsRootedOrJailbrokenEv
YPb:__ZZ23InitPlayerLoopCallbacksvEN52PreLateUpdateScriptRunBehaviourLateUpdateRegistrator7ForwardEv
WLf:_X509Certificate2_GetNameInfo_m402390219
J_b:__Z33IntersectAABBPlaneBoundsOptimizedRK4AABBPKN4math7_float4Ei
NRd:_Swapper_BeginInvoke_m2652511022
vzi:_RectOffset_t3387826427_marshal_pinvoke_back
Rth:__Z54RuntimeInvoker_UriScheme_t1876590943_Int32_t2071877448PFvvEPK10MethodInfoPvPS4_
P1b:__ZN19ScriptingInvocation6InvokeI28ScriptingSystemTypeObjectPtrEET_P21ScriptingExceptionPtrb
Bia:__ZN9GfxDevice19EndGeometryJobFrameEv
f1e:_List_1_Contains_m793041670_gshared
Yyb:__ZN27Converter_SimpleNativeClassI17AnimationCurveTplIfEE17ScriptingToNativeER18ScriptingObjectPtrPS1_
WMj:__ZN6il2cpp8metadata24Il2CppGenericInstCompare7CompareERK10KeyWrapperIPK17Il2CppGenericInstES8_
Noh:__Z36RuntimeInvoker_Enumerator_t132208513PFvvEPK10MethodInfoPvPS4_
t7i:__ZNK15dense_hashtableINSt3__24pairIK10KeyWrapperIPK19Il2CppGenericMethodEPK26Il2CppGenericMethodIndicesEES6_N6il2cpp8metadata23Il2CppGenericMethodHashEN14dense_hash_mapIS6_SA_SE_NS6_14EqualsComparerINSD_26Il2CppGenericMethodCompareEEENS0_9allocatorISB_EEE9SelectKeyESI_SK_E5beginEv
pId:_Graphic_get_materialForRendering_m2600868951
Xw:__ZN27AnimationLayerMixerPlayable21UpdateLayerParametersEv
MBf:_TlsClientSettings_get_ClientCertificate_m89435195
OAg:__ZL61AsymmetricAlgorithm_t784058677_CustomAttributesCacheGeneratorP21CustomAttributesCache
yfc:__ZN9Polygon2D7DefaultEv
lig:__ZN21InterfaceFuncInvoker1IiP12MemberInfo_tE6InvokeEjP11Il2CppClassP12Il2CppObjectS1_
Oxi:_Quaternion_Internal_FromEulerRad_m1739712481
Ogf:_Collection_1_System_Collections_IList_Contains_m3210868188_gshared
Cgi:_AnchorInfo_get_IgnoreCase_m2406760852
m9b:__ZNK17AnimationCurveTplIfE8EvaluateEfPNS0_5CacheE
aPb:__Z31ManagerContextInitializeClassesv
idj:__ZNSt3__213__vector_baseIP9FieldInfoNS_9allocatorIS2_EEED2Ev
vLe:_NumberFormatter_AppendIntegerString_m868842252
kXc:_ft_smooth_transform
Ytg:__ZL53SortedList_t3004938869_CustomAttributesCacheGeneratorP21CustomAttributesCache
RUc:_UNITY_FT_List_Finalize
FMj:__ZN6il2cpp6icalls8mscorlib6System7Runtime8Remoting10Activation18ActivationServices34AllocateUninitializedClassInstanceEP20Il2CppReflectionType
vUb:__Z20LightAttenuateApproxRKfS0_
mDa:__ZN9Scripting30SetCachedPtrOnScriptingWrapperE18ScriptingObjectPtrP6Object
uCb:__Z18Transfer_BlittableI19StreamedBinaryWriteILb0EELb0EdEvRK29SerializationCommandArgumentsR31RuntimeSerializationCommandInfo
D1:__ZN17LowLevelAllocator6MallocEj
pvd:_ASCIIEncoding_GetBytes_m3649277167
Rpe:_Array_InternalArray__Insert_TisColor_t2020392075_m165848534_gshared
tFh:_Dictionary_2__ctor_m2457723796_gshared
_Fc:__ZN16b2PrismaticJoint4DumpEv
oK:__ZN7mecanim9animation21BlendTreeNodeConstant8TransferI19StreamedBinaryWriteILb0EEEEvRT_
gSa:__ZN18BlockRangeInternal16PopLastNodeIndexEP10BlockRangeji
Ebg:_Version__ctor_m2972638031
Uze:_Kernel_MultiplyByDword_m155008287
R7a:__ZN4MeshD0Ev
ech:__Z121RuntimeInvoker_Void_t1841601450_Int64_t909078037_RuntimeObject_RuntimeObject_Int64_t909078037_RuntimeObject_RuntimeObjectPFvvEPK10MethodInfoPvPS4_
kid:__ZL42RequestRecreateEyeTexturesBeforeNextUpdatev
tCh:_ValueCollection_System_Collections_Generic_ICollectionU3CTValueU3E_get_IsReadOnly_m3005456072_gshared
Rof:_ReadOnlyCollection_1_System_Collections_ICollection_get_SyncRoot_m1577944046_gshared
rma:__ZNK6Camera20IsCurrentlyRenderingEv
My:__ZN21AnimationClipPlayable23ProcessRootMotionNoClipEPK35AnimationPlayableEvaluationConstantPK32AnimationPlayableEvaluationInputP33AnimationPlayableEvaluationOutput
P9c:__Z36CanvasRenderer_CUSTOM_SetPopMaterialP12Il2CppObjectS0_i
GBg:__ZL58RijndaelManaged_t1034060848_CustomAttributesCacheGeneratorP21CustomAttributesCache
Xgj:_UpdatedEventHandler_Invoke_m4240581743
Zxc:__Z18Transfer_BlittableI9JSONWriteLb0EdEvRK29SerializationCommandArgumentsR31RuntimeSerializationCommandInfo
vFc:__ZNK11b2GearJoint16GetReactionForceEf
cSi:_U3CDelayedSelfDestroyU3Ec__Iterator0_Dispose_m4137614268
nTe:_TextReader__ctor_m3276128267
TSg:__ZL98Rigidbody2D_t502193897_CustomAttributesCacheGenerator_Rigidbody2D_INTERNAL_set_velocity_m213500543P21CustomAttributesCache
K2e:_List_1_System_Collections_Generic_ICollectionU3CTU3E_get_IsReadOnly_m3598018290_gshared
oJ:__ZN15SerializeTraitsI9OffsetPtrIN7mecanim9animation17BlendTreeConstantEEE8TransferI24GenerateTypeTreeTransferEEvRS4_RT_
iUh:_Toggle_OnDidApplyAnimationProperties_m325835214
jPj:_wctomb
_jh:__Z55RuntimeInvoker_Void_t1841601450_Matrix4x4U26_t266301477PFvvEPK10MethodInfoPvPS4_
elc:__Z27Camera_CUSTOM_GetAllCamerasP11Il2CppArray
dJb:__ZNK13MonoBehaviour25GetNeedsPerObjectTypeTreeEv
gGb:__Z35Transfer_Blittable_FixedBufferFieldI18StreamedBinaryReadILb0EEiEvRK29SerializationCommandArgumentsR31RuntimeSerializationCommandInfo
n1d:_Convert_InternalFromBase64String_m3682756716
_c:___cxa_rethrow
NNg:__ZL79Sprite_t309593783_CustomAttributesCacheGenerator_Sprite_get_texture_m1594695778P21CustomAttributesCache
Czc:__Z18Transfer_BlittableI8JSONReadLb1EhEvRK29SerializationCommandArgumentsR31RuntimeSerializationCommandInfo
mNc:__ZN18Overlap2DQueryBase13ReportFixtureEP9b2Fixture
TUg:__ZL86GUI_t4082743951_CustomAttributesCacheGenerator_U3CnextScrollStepTimeU3Ek__BackingFieldP21CustomAttributesCache
Lhc:__ZN10systeminfo23SupportsLocationServiceEv
Ylh:__Z48RuntimeInvoker_Void_t1841601450_Rect_t3681755626PFvvEPK10MethodInfoPvPS4_
a6f:_TimeSpan_Add_m3228293154
BHh:_DefaultComparer_Equals_m4098991076_gshared
D1b:__ZN13MonoBehaviour8SetClassE17ScriptingClassPtr18ScriptingObjectPtr
Ewf:_RC4__cctor_m523650203
mci:_CrossContextDelegate_Invoke_m2908136830
YNi:_Locale_GetText_m3480617287
VGe:_ApplicationIdentity_ToString_m800036884
hrb:__ZN20LocalFileSystemPosix4ReadER13FileEntryDatayyPvPy
XXb:__ZNSt3__211__sift_downIRN23ForwardShaderRenderLoop18RenderObjectSorterILb0EEEP21ForwardRenderPassDataEEvT0_S7_T_NS_15iterator_traitsIS7_E15difference_typeES7_
mVe:_UnmanagedMemoryStream_get_Position_m4093669769
xzg:__ZL83MethodDictionary_t1742974787_CustomAttributesCacheGenerator_U3CU3Ef__switchU24map21P21CustomAttributesCache
Abh:__Z90RuntimeInvoker_Void_t1841601450_IntPtr_t_RuntimeObject_Int32_t2071877448_Int32_t2071877448PFvvEPK10MethodInfoPvPS4_
sJb:__ZN13MonoBehaviour5DoGUIENS_13GUILayoutTypeEii
Qtf:_Kernel_Multiply_m1938858919
Sfg:_DerivedType_IsDefined_m555719351
sdi:_Mark_get_IsDefined_m3332701456
XEa:__ZNK12TLSAllocatorI14StackAllocatorE8ContainsEPKv
Acb:__ZN11TimeManager8TransferI18StreamedBinaryReadILb0EEEEvRT_
Vob:__ZN15SerializeTraitsINSt3__23mapI4PPtrI6ShaderEN4core12basic_stringIcNS5_20StringStorageDefaultIcEEEENS0_4lessIS4_EENS0_9allocatorINS0_4pairIKS4_S9_EEEEEEE8TransferI24GenerateTypeTreeTransferEEvRSH_RT_
_Ce:_EncryptedPrivateKeyInfo__ctor_m3964541963
S_f:_DESTransform__cctor_m1179482644
oJh:_EqualityComparer_1_System_Collections_IEqualityComparer_GetHashCode_m1465362976_gshared
Hsi:_Object_t1021602117_marshal_pinvoke_cleanup
c8a:__ZN14BlendShapeData8TransferI14SafeBinaryReadEEvRT_
cde:_Enum_Format_m2294492821
IEg:__ZL81Convert_t2607082565_CustomAttributesCacheGenerator_Convert_ToDateTime_m3810846875P21CustomAttributesCache
k$a:__ZN7Texture25ReloadFromStorageIfNeededEPvb
Twc:__Z35Transfer_Blittable_FixedBufferFieldI9JSONWritehEvRK29SerializationCommandArgumentsR31RuntimeSerializationCommandInfo
ccg:_OverflowException__ctor_m2564269836
kzh:_ShimEnumerator_get_Entry_m2332479818_gshared
_wd:_BaseRaycaster_get_priority_m247683215
_7d:_DateTime_CheckDateTimeKind_m329345155_AdjustorThunk
t3c:_Update_Max
fsj:__ZN6il2cpp6icalls8mscorlib6SystemL15ThrowNoWideningEv
u9b:__ZNK23TransformChangeDispatch24GetChangeMaskForInterestENS_12InterestTypeE
Nqc:__Z45Transform_CUSTOM_INTERNAL_CALL_TransformPointP12Il2CppObjectRK8Vector3fRS1_
wgf:__ZN23InterfaceActionInvoker2Ii18Color32_t874517518E6InvokeEjP11Il2CppClassP12Il2CppObjectiS0_
B5b:__ZL10KeyHandleriPK23EmscriptenKeyboardEventPv
tKc:__ZN15dense_hashtableINSt3__24pairIKNS1_IPK10Collider2DS4_EE11Collision2DEES5_NS2_23ColliderPairHashFunctorEN14dense_hash_mapIS5_S7_S9_NS0_8equal_toIS5_EE13stl_allocatorIS8_L18MemLabelIdentifier67ELi16EEE9SelectKeyESC_SF_EC2ERKSI_j
GYa:__ZNSt3__26__treeINS_12__value_typeI39DeprecatedFastPropertyNameSerializationfEENS_19__map_value_compareIS2_S3_NS_4lessIS2_EELb1EEENS_9allocatorIS3_EEE7destroyEPNS_11__tree_nodeIS3_PvEE
cZc:_tt_cmap4_char_index
j$h:_InternalEnumerator_1__ctor_m2582404099_gshared
B6f:_TimeSpan_op_Addition_m3421801803
Dqb:__ZNK12HandlerChain8IsHiddenERK13FileEntryData
__g:__ZL50Graphic_t2426225576_CustomAttributesCacheGeneratorP21CustomAttributesCache
myb:__ZL26Transfer_SimpleNativeClassI17RemapPPtrTransfer10RectOffsetLb0EEvRK29SerializationCommandArgumentsR31RuntimeSerializationCommandInfo
sVc:__Z14ValidateFormatR13dynamic_arrayIN20TextRenderingPrivate16TextFormatChangeELj4EE
Yt:__ZNSt3__26vectorIN13AnimationClip15QuaternionCurveE13stl_allocatorIS2_L18MemLabelIdentifier26ELi16EEE6assignINS_11__wrap_iterIPS2_EEEENS_9enable_ifIXaasr21__is_forward_iteratorIT_EE5valuesr16is_constructibleIS2_NS_15iterator_traitsISC_E9referenceEEE5valueEvE4typeESC_SC_
Luh:__Z114RuntimeInvoker_Int32_t2071877448_CustomAttributeTypedArgument_t1498197914_CustomAttributeTypedArgument_t1498197914PFvvEPK10MethodInfoPvPS4_
w3e:_List_1__ctor_m2672294496_gshared
W6d:_DateTime_System_IConvertible_ToInt32_m2789391054_AdjustorThunk
Wih:__Z73RuntimeInvoker_Single_t2076509932_Vector3_t2243707580_Vector3_t2243707580PFvvEPK10MethodInfoPvPS4_
CAe:_ASN1Convert_FromInt32_m1541043489
dAd:_PointerInputModule_ProcessMove_m3200120346
W1d:_Convert_ToByte_m1008221737
Fvf:_MD2Managed_MD2Transform_m3825201358
Bhf:_Collection_1_System_Collections_IList_IndexOf_m3976312928_gshared
G0g:__ZL69Scrollbar_t3248359358_CustomAttributesCacheGenerator_m_OnValueChangedP21CustomAttributesCache
kZe:_KeyValuePair_2__ctor_m3201181706_gshared
gHc:__ZN10ClipperLib14PointInPolygonERKNS_8IntPointEPNS_5OutPtE
sGd:_Dropdown_AddOptions_m835420907
KYg:__ZL107PointerEventData_t1599784723_CustomAttributesCacheGenerator_PointerEventData_get_rawPointerPress_m448871540P21CustomAttributesCache
eOa:__ZNK9ShaderLab20ShaderBlendStateDesc15ToGfxBlendStateEPK19ShaderPropertySheetS3_R13GfxBlendState
Ptg:__ZL92Hashtable_t909839986_CustomAttributesCacheGenerator_Hashtable_t909839986____hcp_PropertyInfoP21CustomAttributesCache
EDd:_CanvasUpdateRegistry_IsRebuildingLayout_m1677873278
JC:__ZN11UnityEngine9AnimationL22GenericBindingCallbackEPvS1_i
d3c:_Compute_Point_Displacement
Cob:__ZN9ShaderLab9IntShaderC2Ev
_dj:__ZN6il2cpp6icalls8mscorlib6SystemL9IsPrivateEPK9EventInfo
wLj:__ZN6il2cpp6icalls8mscorlib6System10Reflection4Emit11TypeBuilder20setup_internal_classEP27Il2CppReflectionTypeBuilderS7_
HYh:_InternalEnumerator_1_System_Collections_IEnumerator_Reset_m3237341717_AdjustorThunk
WVh:_ArrayReadOnlyList_1_IndexOf_m1809425308_gshared
Mfj:_il2cpp_gc_disable
bwc:__ZN5Unity9rapidjson6WriterI16TempBufferWriterNS0_4UTF8IcEES4_13JSONAllocatorE11WriteUint64Ey
Myd:_ExecuteEvents_U3Cs_HandlerListPoolU3Em__0_m2903690915
c$d:_Hashtable_Clone_m165405752
bGc:__ZN16b2PrismaticJoint24SolveVelocityConstraintsERK12b2SolverData
ywg:__ZL61CallingConventions_t1097349142_CustomAttributesCacheGeneratorP21CustomAttributesCache
L3i:__ZN13Il2CppHashMapIPK22Il2CppGenericParameterP11Il2CppClassN6il2cpp5utils11PointerHashIS1_EENSt3__28equal_toIS2_EENS9_9allocatorINS9_4pairIK10KeyWrapperIS2_ES4_EEEEEC2EjRKS8_RKSB_
UAc:__ZN8JSONRead21TransferSTLStyleArrayI31ArrayOfManagedObjectsTransfererEEvRT_17TransferMetaFlags
TZg:__ZL144U3CStartU3Ec__Iterator0_t3220237554_CustomAttributesCacheGenerator_U3CStartU3Ec__Iterator0_System_Collections_IEnumerator_get_Current_m290565900P21CustomAttributesCache
fKa:__Z15CreateDirectoryRKN4core12basic_stringIcNS_20StringStorageDefaultIcEEEE
LVa:__Z21CalculateGlobalMatrix23TransformAccessReadOnly
Jsg:__ZL70InternalsVisibleToAttribute_t1037732567_CustomAttributesCacheGeneratorP21CustomAttributesCache
Fcb:__ZNK13BuildSettings22GetTypeVirtualInternalEv
VPe:_MonoIO_GetCurrentDirectory_m1509324201
Hnd:_SHA384Managed_adjustByteCounts_m410900820
p2f:_UTF32Encoding_GetHashCode_m4205784236
qDb:__Z35Transfer_Blittable_FixedBufferFieldI18StreamedBinaryReadILb1EEhEvRK29SerializationCommandArgumentsR31RuntimeSerializationCommandInfo
R2d:_DateTime_ToUniversalTime_m1815024752
b_g:__ZL73U3COnFinishSubmitU3Ec__Iterator0_t99135383_CustomAttributesCacheGeneratorP21CustomAttributesCache
M7b:__Z13RegisterClassI14RenderSettingsEvv
k0b:__ZNK25CameraStackRenderingState25CalculateCameraTargetTypeEv
VJj:_GC_set_on_event
xvh:__Z80RuntimeInvoker_Boolean_t3825574718_Navigation_t1571958496_Navigation_t1571958496PFvvEPK10MethodInfoPvPS4_
Mdf:_Collection_1_ConvertItem_m3563206219_gshared
y6f:_TimeSpan_Subtract_m3597791685_AdjustorThunk
Vlg:_MonoCMethod_get_Name_m764669486
$A:__ZN7mecanim12statemachine24CreateStateMachineOutputEPKNS0_20StateMachineConstantEjRNS_6memory9AllocatorE
nAj:__ZN6il2cpp2vm12GenericClass8GetClassEP18Il2CppGenericClass
aja:__ZNK9GfxDevice27GetActiveRenderSurfaceWidthEv
uch:__Z45RuntimeInvoker_SerializationEntry_t3485203212PFvvEPK10MethodInfoPvPS4_
Gcd:__ZN11UnityEngine15PlatformWrapper28GetCleanGraphicsFixedVersionEv
_rb:__ZN16MemoryFileSystem5WriteER13FileEntryDatayyPvPy
w:tempBigIntP
CYi:__ZL25UnresolvedVirtualCall_210P12Il2CppObjecti38CustomAttributeNamedArgument_t94157543PK10MethodInfo
lij:__ZN6il2cpp2vm4Type7GetTypeEPK10Il2CppType
rQf:_Interval_t2354235237_marshal_pinvoke_cleanup
POc:__ZN23ColliderTilingExtensionD0Ev
GJc:__ZN17PhysicsMaterial2D23VirtualRedirectTransferER18StreamedBinaryReadILb0EE
i6b:__ZN16SpriteRenderData28PrepareRenderingDataIfNeededEv
SRd:_AssemblyLoadEventHandler_Invoke_m108373765
cAd:_PointerInputModule_ShouldStartDrag_m4163638715
v_g:__ZL61Dropdown_t1985816271_CustomAttributesCacheGenerator_m_OptionsP21CustomAttributesCache
cWi:__ZL24UnresolvedVirtualCall_76P12Il2CppObjectPK10MethodInfo
Ksa:__ZN6prcoreL17RemapGenericFloatI18TexFormatRGBAFloat17TexFormatRGBAHalfEEvPKNS_9InnerInfoE
J5g:__Z66RuntimeInvoker_Boolean_t3825574718_RuntimeObject_Int32_t2071877448PFvvEPK10MethodInfoPvPS4_
zQb:__Z16FindCameraStacksRKNSt3__24listI4PPtrI6CameraENS_9allocatorIS3_EEEERNS_6vectorI11CameraStackNS4_ISA_EEEE
K1a:__ZN10GISettings8TransferI14SafeBinaryReadEEvRT_
xn:FUNCTION_TABLE_vifff
Ipf:_ReadOnlyCollection_1_System_Collections_Generic_ICollectionU3CTU3E_Remove_m2957273994_gshared
v2b:__ZN19CustomRenderTexture12ClearGPUDataEv
Uwd:_BaseInputModule_ShouldActivateModule_m2899747874
Iuh:__Z86RuntimeInvoker_Int32_t2071877448_DateTimeOffset_t1362988906_DateTimeOffset_t1362988906PFvvEPK10MethodInfoPvPS4_
FWa:__ZN13RenderTexture13ApplySettingsEv
nDg:__ZL92UTF8Encoding_t111055448_CustomAttributesCacheGenerator_UTF8Encoding_GetByteCount_m2547312609P21CustomAttributesCache
CWj:_glVertexAttrib4f__wrapper
Xe:_JS_Sound_SetListenerPosition
pn:FUNCTION_TABLE_fiffi
hjg:_ModuleBuilderTokenGenerator_GetToken_m3427457873
F9c:__Z55Register_UnityEngine_CanvasGroup_get_ignoreParentGroupsv
jRh:_Selectable_get_isPointerInside_m3162215687
ele:_Array_FindIndex_TisRuntimeObject_m4149904176_gshared
K1e:_List_1_System_Collections_IList_Contains_m149594880_gshared
Awj:__ZNK15dense_hashtableINSt3__24pairIK10KeyWrapperINS1_IPKcS4_EEEiEES6_24NamespaceAndNamePairHashN14dense_hash_mapIS6_iS9_NS6_14EqualsComparerI26NamespaceAndNamePairEqualsEENS0_9allocatorIS8_EEE9SelectKeyESD_SF_E10test_emptyERK24dense_hashtable_iteratorIS8_S6_S9_SH_SD_SF_E
oFg:__ZL78Convert_t2607082565_CustomAttributesCacheGenerator_Convert_ToSByte_m2585959569P21CustomAttributesCache
Rsh:__Z77RuntimeInvoker_Void_t1841601450_Int32_t2071877448_PlayableBinding_t2498078091PFvvEPK10MethodInfoPvPS4_
jbg:_UnauthorizedAccessException__ctor_m3480402128
Rze:_BigInteger_op_Modulus_m3788401748
Vda:__ZZN15DirectorManager15InitializeClassEvEN45FixedUpdateDirectorFixedSampleTimeRegistrator7ForwardEv
Oci:_ArgInfo_GetInOutArgs_m3184132151
Iib:__ZNK8Material16MarkDependenciesER27GarbageCollectorThreadState
ayi:_Random_Range_m3327624272
LDg:__ZL85Thread_t241561612_CustomAttributesCacheGenerator_Thread_get_CurrentThread_m3667342817P21CustomAttributesCache
wKc:__ZN15dense_hashtableINSt3__24pairIKNS1_IPK10Collider2DS4_EE11Collision2DEES5_NS2_23ColliderPairHashFunctorEN14dense_hash_mapIS5_S7_S9_NS0_8equal_toIS5_EE13stl_allocatorIS8_L18MemLabelIdentifier67ELi16EEE9SelectKeyESC_SF_E5clearEv
ayc:__ZL17Transfer_GUIStyleI9JSONWriteLb0EEvRK29SerializationCommandArgumentsR31RuntimeSerializationCommandInfo
nVb:__Z28GetHaloVertexPositionsStereoP8Vector3fRKS_S2_f
zta:__ZN6prcoreL27StretchGenericFloatBilinearI15TexFormatRGHalfEEvPKNS_9InnerInfoE
O_e:_Enumerator_MoveNext_m598197344_AdjustorThunk
y2:__GLOBAL__sub_I_runtime_misc_0_cpp
Gr:__ZN13AnimationClip23VirtualRedirectTransferER18StreamedBinaryReadILb0EE
nZi:_TextGenerationSettings_t2543476768_marshal_pinvoke_back
mvh:__Z36RuntimeInvoker_Enumerator_t442692252PFvvEPK10MethodInfoPvPS4_
Jud:_String_JoinUnchecked_m1880555587
kOa:__ZNK9ShaderLab7Program21GetMatchingSubProgramEPK6ShaderPKNS_4PassERK16ShaderKeywordSetjPS7_R19ShaderSnippetResult
jpe:_Array_InternalArray__Insert_TisKeyValuePair_2_t1174980068_m2464431954_gshared
cpc:__Z49Register_UnityEngine_Resources_GetBuiltinResourcev
Tgi:_BalancingGroup_set_Balance_m3452171919
oZc:_tt_cmap10_char_index
oGd:_Dropdown_Awake_m335654827
Jca:__Z18GetITerrainManagerv
gGh:_Dictionary_2_U3CCopyToU3Em__0_m1479035402_gshared
WYd:_BitArray_set_Item_m3801461194
TAd:_StandaloneInputModule_get_cancelButton_m1563746440
n4i:__ZN15dense_hashtableINSt3__24pairIK10KeyWrapperIPK22Il2CppGenericParameterEP11Il2CppClassEES6_N6il2cpp5utils11PointerHashIS4_EEN14dense_hash_mapIS6_S9_SE_NS6_14EqualsComparerINS0_8equal_toIS5_EEEENS0_9allocatorISA_EEE9SelectKeyESJ_SL_E3endEv
sud:_String_Remove_m3580114465
QNi:_GUIUtility_EndGUIFromException_m3100752188
YWc:_UNITY_FT_Destroy_Class_cff_field_handlers
KW:__ZN11AudioSource24ClearExtensionPropertiesE12PropertyName
Vmb:__ZN9ShaderLab22SerializedBindChannels8TransferI19StreamedBinaryWriteILb0EEEEvRT_
xwb:__ZN15SerializeTraitsI5RectTIiEE8TransferI14SafeBinaryReadEEvRS1_RT_
afh:__Z82RuntimeInvoker_Int32_t2071877448_RuntimeObject_Int32_t2071877448_Int16_t4041245914PFvvEPK10MethodInfoPvPS4_
Ktc:__ZN5IMGUI20MoveWindowFromLayoutER8GUIStateiRK5RectTIfE
z9h:_UrlAttribute_get_UrlValue_m3448699483
XUc:_UNITY_FT_Stream_ReadUShort
IMd:_InputField_OnEnable_m3797157569
inc:__Z51Register_UnityEngine_GUILayer_INTERNAL_CALL_HitTestv
nYa:__ZNSt3__26__treeINS_12__value_typeIN4core12basic_stringIcNS2_20StringStorageDefaultIcEEEES6_EENS_19__map_value_compareIS6_S7_NS_4lessIS6_EELb1EEE13stl_allocatorIS7_L18MemLabelIdentifier1ELi16EEE7destroyEPNS_11__tree_nodeIS7_PvEE
Z_i:_Nullable_1__ctor_m796575255_gshared
KFj:__ZN6il2cpp2vm8Profiler7GCEventE13Il2CppGCEvent
e7d:_DateTimeUtils_ToString_m3878360633
Tqj:__ZN15dense_hashtableINSt3__24pairIK10KeyWrapperIP11Il2CppClassES4_EES5_N6il2cpp8metadata16SZArrayClassHashEN14dense_hash_mapIS5_S4_SA_NS5_14EqualsComparerINS9_19SZArrayClassCompareEEENS0_9allocatorIS7_EEE9SelectKeyESE_SG_E4findERS6_
esj:__ZN6il2cpp6icalls8mscorlib6SystemL16ThrowInvalidCastEPK11Il2CppClassS5_
Goa:__Z13IsDepthFormat14GraphicsFormat
Pdb:__ZN12AspectRatios8TransferI24GenerateTypeTreeTransferEEvRT_
jBd:_StandaloneInputModule_ForceAutoSelect_m1167170508
Cki:_Bounds_GetHashCode_m458298790
cXh:_InternalEnumerator_1_MoveNext_m1636015243_gshared
FRc:__Z12FormatBufferPciPKcz
uBd:_TouchInputModule_Process_m1373751353
JSc:__ZN15SerializeTraitsI13dynamic_arrayI4PPtrIN13TextRendering4FontEELj4EEE19ResizeSTLStyleArrayERS5_i
Aig:_MethodBuilder_Invoke_m1874904900
z4i:__ZN6il2cpp2vm5Class13GetArrayClassEP11Il2CppClassj
$Mb:__ZN19RuntimeSceneManager18LoadSceneAsyncIntoER10UnitySceneRKN4core12basic_stringIcNS2_20StringStorageDefaultIcEEEENS_11LoadingModeEb
Dfg:_DerivedType_InvokeMember_m4149586013
jDg:__ZL88UTF7Encoding_t741406939_CustomAttributesCacheGenerator_UTF7Encoding_GetBytes_m3015176946P21CustomAttributesCache
lGf:_TlsStream_SetLength_m1460039587
Rtc:__ZN11IMGUIModule12AddGUIScriptER8ListNodeI13MonoBehaviourE
qb:invoke_difi
ozd:_PointerEventData_set_rawPointerPress_m1484888025
sca:__ZL50StaticRegisterSceneLoadedCallback_LightmapSettingsPv
iYd:_SimpleEnumerator_Clone_m215554974
hbh:__Z119RuntimeInvoker_Void_t1841601450_RuntimeObject_RuntimeObject_RuntimeObject_RuntimeObject_Int32_t2071877448_RuntimeObjectPFvvEPK10MethodInfoPvPS4_
BVb:__ZN29MotionVectorRenderLoopScratch15ThreadedCleanupEv
Om:FUNCTION_TABLE_iiffi
rJd:_GridLayoutGroup_get_cellSize_m1061731753
Uwj:__ZN15dense_hashtableINSt3__24pairIK10KeyWrapperINS1_IPKcS4_EEEiEES6_24NamespaceAndNamePairHashN14dense_hash_mapIS6_iS9_NS6_14EqualsComparerI26NamespaceAndNamePairEqualsEENS0_9allocatorIS8_EEE9SelectKeyESD_SF_E12expand_arrayEjN21dense_hash_map_traits17integral_constantIbLb0EEE
pJh:_EqualityComparer_1_System_Collections_IEqualityComparer_Equals_m300683774_gshared
J5a:__ZN15SerializeTraitsI13dynamic_arrayItLj2EEE19ResizeSTLStyleArrayERS1_i
eoa:__ZN21GLESGpuProgramApplier11ApplyVectorERKN20GpuProgramParameters14ValueParameterEPK8Vector4ft
Gbd:__ZN22BaseUnityConnectClient17SaveSessionValuesEv
wta:__ZN6prcoreL27StretchGenericFloatBilinearI18TexFormatRGBAFloatEEvPKNS_9InnerInfoE
Whi:_Parser_IsIgnoreCase_m4155598997
_Li:_GUILayoutUtility_LayoutSingleGroup_m3024581181
vvj:__ZN15dense_hashtableINSt3__24pairIK10KeyWrapperIP14Il2CppIUnknownEjEES5_N6il2cpp5utils11PointerHashIS3_EEN14dense_hash_mapIS5_jSB_NS5_14EqualsComparerINS0_8equal_toIS4_EEEENS0_9allocatorIS7_EEE9SelectKeyESG_SI_E12expand_arrayEjN21dense_hash_map_traits17integral_constantIbLb0EEE
z$c:_cff_size_done
E_b:__ZN29ExtractProjectionPlanesHelperILb1EE5ApplyERK10Matrix4x4fP5Plane
uJh:_EqualityComparer_1_System_Collections_IEqualityComparer_Equals_m3376587337_gshared
fRb:__ZN22RenderingCommandBuffer13GetAndCheckRTE24BuiltinRenderTextureTypeRKN9ShaderLab16FastPropertyNameEPKcPP13RenderTexture
L2b:__ZN6Camera34UpdatePreviousViewProjectionMatrixEv
MXa:__ZN9ShaderLab11ShaderState25RemoveUnsupportedProgramsEPK6Shader
Pnb:__ZL23AddGpuProgramParametersR20GpuProgramParametersRKNSt3__26vectorIN9ShaderLab20SerializedSubProgram15MatrixParameterENS1_9allocatorIS5_EEEERKNS2_INS4_15VectorParameterENS6_ISB_EEEEiP16PropertyNamesSet
TJg:__ZL179U3CCreateWhereIteratorU3Ec__Iterator1D_1_t2523986802_CustomAttributesCacheGenerator_U3CCreateWhereIteratorU3Ec__Iterator1D_1_System_Collections_IEnumerator_get_Current_m1354814095P21CustomAttributesCache
xrc:__Z44Register_UnityEngine_Object_DestroyImmediatev
nug:__ZL57CompareOptions_t2829943955_CustomAttributesCacheGeneratorP21CustomAttributesCache
kyg:__ZL62_ConstructorBuilder_t1236878896_CustomAttributesCacheGeneratorP21CustomAttributesCache
Ghc:__Z26scripting_class_has_parent17ScriptingClassPtrS_
sNe:_Int64_System_IConvertible_ToInt16_m2022633688_AdjustorThunk
dZe:_OrdinalComparer__ctor_m2952942058
xed:__ZNSt3__26__treeINS_12__value_typeIN4core12basic_stringIcNS2_20StringStorageDefaultIcEEEEN11UnityEngine7Connect19RemoteSettingsValueEEENS_19__map_value_compareIS6_SA_NS_4lessIS6_EELb1EEE13stl_allocatorISA_L18MemLabelIdentifier6ELi16EEE16__construct_nodeERKNS_4pairIKS6_S9_EE
hDi:_Transform_INTERNAL_get_localPosition_m130325652
sX:__Z71Register_UnityEngine_AudioSource_INTERNAL_CALL_ClearExtensionPropertiesv
gOj:__ZN6il2cpp8metadata25Il2CppGenericClassCompare7CompareEPK18Il2CppGenericClassS4_
lG:__ZNK8Animator20IsInMatchTargetStateEv
oLg:__ZL115DebugLogHandler_t865810509_CustomAttributesCacheGenerator_DebugLogHandler_Internal_LogException_m4229368478____obj1P21CustomAttributesCache
BO:__ZN13AudioListener23VirtualRedirectTransferER24GenerateTypeTreeTransfer
Dm:FUNCTION_TABLE_viiifiii
wuc:__Z36Register_UnityEngine_GUI_set_changedv
zEd:_ColorTween_get_startColor_m278546349_AdjustorThunk
q0f:_Encoding_get_Unicode_m1382741113
xki:_Behaviour_set_enabled_m602406666
$ai:_LifetimeServices_set_SponsorshipTimeout_m1403222216
cIe:_NumberFormatInfo_get_PositiveSign_m3396333026
Rvh:__Z37RuntimeInvoker_Enumerator_t1147558385PFvvEPK10MethodInfoPvPS4_
nWd:_Char_ToString_m1401375624_AdjustorThunk
Qme:_Array_InternalArray__ICollection_Add_TisTableRange_t2011406615_m147373358_gshared
n3d:_Convert_ToDateTime_m1251728572
Sme:_Array_InternalArray__ICollection_Add_TisBoolean_t3825574718_m1009318882_gshared
Dqf:_ReadOnlyCollection_1_System_Collections_IList_set_Item_m1149349508_gshared
wA:__ZN27AnimationLayerMixerPlayable18SetInputConnectionEP8Playablei
_Og:__ZL101Transform_t3275118058_CustomAttributesCacheGenerator_Transform_INTERNAL_set_localRotation_m1514748659P21CustomAttributesCache
fA:__ZN7mecanim28TransformValueArrayBlendNodeEiiiRKNS_10ValueArrayERKNS_14ValueArrayMaskERS0_RS3_RNS_16ValueArrayWeightEf
mXf:_ObjectReader_ReadObjectContent_m3949770110
D5e:_List_1_System_Collections_ICollection_get_SyncRoot_m3031553207_gshared
Wri:_Mesh_get_colors32_m1054093013
_5i:__ZN6il2cpp2vm5Class40GetInterfaceInvokeDataFromVTableSlowPathEPK12Il2CppObjectPK11Il2CppClassj
ZSa:__ZN20TierGraphicsSettings8TransferI18StreamedBinaryReadILb0EEEEvRT_
$Sh:_Text_get_font_m3115501113
lrj:__GLOBAL__sub_I_Thread_cpp
vYa:__ZN14SafeBinaryRead8TransferINSt3__24pairIN9ShaderLab16FastPropertyNameE10ColorRGBAfEEEEvRT_PKc17TransferMetaFlags
x2i:__ZL9rshift128PyS_
gXf:_ObjectReader_RecordFixup_m1893348030
Aue:_LayoutGroup_SetProperty_TisRuntimeObject_m1703476175_gshared
xgg:_EnumBuilder_GetElementType_m1228393631
$oj:__ZN14dense_hash_mapI10KeyWrapperINSt3__24pairIPK12PropertyInfoP11Il2CppClassEEEj17ReflectionMapHashIS8_ENS9_14EqualsComparerINS1_8equal_toIS8_EEEENS1_9allocatorINS2_IKS9_jEEEEE13set_empty_keyERSH_
Pg:_glRenderbufferStorage
Ewj:__ZNK15dense_hashtableINSt3__24pairIK10KeyWrapperINS1_IPKcS4_EEEiEES6_24NamespaceAndNamePairHashN14dense_hash_mapIS6_iS9_NS6_14EqualsComparerI26NamespaceAndNamePairEqualsEENS0_9allocatorIS8_EEE9SelectKeyESD_SF_E13find_positionERS7_
Hvg:__ZL80ILGenerator_t99948092_CustomAttributesCacheGenerator_ILGenerator_Emit_m116557729P21CustomAttributesCache
ehj:_RaycastHit_get_point_m3350410423_AdjustorThunk
Qnc:__Z45Register_UnityEngine_Input_get_touchSupportedv
Kcd:__ZN11UnityEngine15PlatformWrapper28GetTextureFormatSupportFlagsEv
dXc:_UNITY_FT_Create_Class_pshinter_module_class
Rtd:_String_CompareOrdinalCaseInsensitiveUnchecked_m2002640463
HTd:_Boolean_GetHashCode_m1894638460
b0c:_cf2_setError
PGe:_AppDomainInitializer_BeginInvoke_m2446455399
F2f:_UTF7Encoding_InternalGetChars_m4157428055
rhb:__Z33InterpolateLightProbeCoefficientsRK17LightProbeContextRK29LightProbeSamplingCoordinatesR20SphericalHarmonicsL2
Syh:_Enumerator_Reset_m3129803197_AdjustorThunk
yPb:__ZZ23InitPlayerLoopCallbacksvEN35PreUpdateSendMouseEventsRegistrator7ForwardEv
bCe:_SmallXmlParser_HandleBufferedContent_m3397096753
Inh:__Z55RuntimeInvoker_Void_t1841601450_SpriteState_t1353336012PFvvEPK10MethodInfoPvPS4_
uma:__ZNK6Camera25GetNormalizedViewportRectEP13RenderTextureb
ah:_glDisable
QNd:_InputField_OnDeselect_m3963675647
tYh:_InternalEnumerator_1_MoveNext_m1994485778_AdjustorThunk
_Wa:__ZN13RenderTexture8TransferI24GenerateTypeTreeTransferEEvRT_
KZe:_KeyValuePair_2_get_Value_m1916631176_AdjustorThunk
Idg:_MethodBase__ctor_m3951051358
pu:__ZN7mecanim9animation9DenseClip8TransferI24GenerateTypeTreeTransferEEvRT_
ZEj:__ZN6il2cpp5utils11StringUtils15StringDuplicateEPKDsj
aGd:_Dropdown_get_template_m3014799983
IOf:_BaseMachine_Scan_m122450399
dz:__ZN17AnimationPlayable17ProcessRootMotionEP35AnimationPlayableEvaluationConstantP32AnimationPlayableEvaluationInputP33AnimationPlayableEvaluationOutput
_Wd:_ArrayList_CopyTo_m2353632788
lpi:_GameObject_get_activeSelf_m2643917226
nwg:__ZL71AssemblyFileVersionAttribute_t2897687916_CustomAttributesCacheGeneratorP21CustomAttributesCache
jca:__ZNSt3__26vectorINS_4pairIyP17VertexDeclarationEENS_9allocatorIS4_EEE6assignIPS4_EENS_9enable_ifIXaasr21__is_forward_iteratorIT_EE5valuesr16is_constructibleIS4_NS_15iterator_traitsISB_E9referenceEEE5valueEvE4typeESB_SB_
O3e:_List_1_Add_m943275925_gshared
t2j:b119
Ajd:_HMAC_get_BlockSizeValue_m603907214
vQb:__ZNK8Material12GetPassCountEv
B0d:_Enumerator__cctor_m3784927209
j2j:b110
k2j:b111
m2j:b112
kTj:_bitshift64Ashr
o2j:b114
p2j:b115
q2j:b116
r2j:b117
m9i:__ZN30dense_hashtable_const_iteratorINSt3__24pairIK10KeyWrapperIN6il2cpp5utils13dynamic_arrayIPK10Il2CppTypeLj4EEEEPFvvEEESA_NS3_8metadata19Il2CppSignatureHashEN14dense_hash_mapISA_SD_SG_NSA_14EqualsComparerINSF_22Il2CppSignatureCompareEEENS0_9allocatorISE_EEE9SelectKeyESK_SM_E30advance_past_empty_and_deletedEv
qOc:__ZN11Rigidbody2D23VirtualRedirectTransferER14SafeBinaryRead
Ypa:__ZN4crnd12crn_unpacker22decode_alpha_endpointsEv
i$b:__Z23CullDynamicObjectsUmbraPK4AABBPKN5Umbra15OcclusionBufferER9IndexList
Whf:_Collection_1_RemoveItem_m2565709010_gshared
VB:__ZThn148_NK26AnimatorControllerPlayable41GetStateMachineBehaviourVectorDescriptionEv
dZc:_tt_cmap4_char_next
scf:_Queue_1_System_Collections_ICollection_get_IsSynchronized_m307125669_gshared
enh:__Z49RuntimeInvoker_TouchScreenKeyboardType_t875112366PFvvEPK10MethodInfoPvPS4_
bri:_Mathf_Approximately_m1944881077
slh:__Z444RuntimeInvoker_Boolean_t3825574718_RuntimeObject_RuntimeObject_RuntimeObject_ColorU26_t3402129837_Int32_t2071877448_Single_t2076509932_Single_t2076509932_Int32_t2071877448_SByte_t454417549_SByte_t454417549_Int32_t2071877448_Int32_t2071877448_Int32_t2071877448_Int32_t2071877448_SByte_t454417549_Int32_t2071877448_Single_t2076509932_Single_t2076509932_Single_t2076509932_Single_t2076509932_SByte_t454417549_SByte_t454417549_UInt32U26_t2197289955PFvvEPK10MethodInfoPvPS4_
iti:_GeneralNames_ToString_m800435094
sCd:_BaseMeshEffect_OnDidApplyAnimationProperties_m2484799839
QAg:__ZL73AsymmetricSignatureDeformatter_t3580832979_CustomAttributesCacheGeneratorP21CustomAttributesCache
wvd:_ASCIIEncoding_GetString_m3931709239
zFi:_Vector4_Equals_m2166390052
wAi:_RectTransform_SetInsetAndSizeFromParentEdge_m2595554673
X1:__GLOBAL__sub_I_runtime_assetbundles_1_cpp
RP:__ZN4FMOD7Channel11setPositionEjj
Uh:_glBindSampler
Srf:_ReadOnlyCollection_1_System_Collections_Generic_ICollectionU3CTU3E_Clear_m964488020_gshared
Ird:_SecurityFrame_get_Domain_m3219347572_AdjustorThunk
Yh:_glGetVertexAttribiv
Ttd:_String_IndexOfAny_m2027595557
Ume:_Array_InternalArray__ICollection_Add_TisChar_t3454481338_m422084244_gshared
c7i:__ZNSt3__218uninitialized_fillIPNS_4pairIK10KeyWrapperIPKcEP11Il2CppClassEES9_EEvT_SB_RKT0_
v6c:__ZN2UI11CanvasGroup23VirtualRedirectTransferER18StreamedBinaryReadILb0EE
a9h:_OutAttribute__ctor_m1447235100
Prf:_ReadOnlyCollection_1_get_Item_m3778245964_gshared
tGg:__ZL52EventArgs_t3289624707_CustomAttributesCacheGeneratorP21CustomAttributesCache
jCi:_Texture__ctor_m1220114221
fBc:__ZN8JSONRead8TransferIbEEvRT_PKc17TransferMetaFlagsb
aff:_Collection_1_RemoveAt_m290627370_gshared
lzd:_PointerEventData_get_lastPress_m3835070463
PKf:_X509KeyUsageExtension_Decode_m3292847033
rmh:__Z52RuntimeInvoker_RaycastResult_t21186376_RuntimeObjectPFvvEPK10MethodInfoPvPS4_
Elg:_Module_filter_by_type_name_ignore_case_m3574895736
Gzg:__ZL57ProxyAttribute_t4031752430_CustomAttributesCacheGeneratorP21CustomAttributesCache
n1a:__ZN26CustomRenderTextureManager19PreAllocateMaterialEP19CustomRenderTexture
NRc:__ZN19ControllerHitReport13onObstacleHitERKN5physx23PxControllerObstacleHitE
OWf:_ObjectReader_ReadObject_m397855326
UGj:_GC_promote_black_lists
sKd:_Image_get_fillAmount_m3354146540
VBc:__Z29Transfer_Blittable_ArrayFieldI8JSONRead8Vector4fEvRT_R9ArrayInfoRK23StaticTransferFieldInfo
v1e:_List_1_Sort_m1518807012_gshared
Wn:FUNCTION_TABLE_vf
vo:FUNCTION_TABLE_vd
K7f:_Type_GetMethod_m1930231379
xo:FUNCTION_TABLE_vi
E3:__ZN13RuntimeStaticI37UnityShaderCompilerExtPluginConfigureLb0EE16StaticInitializeEPv
ied:__ZN11UnityEngine7Connect17DeviceStatusEvent20SetDeviceAspectRatioEf
kvg:__ZL55StreamReader_t2360341767_CustomAttributesCacheGeneratorP21CustomAttributesCache
rxe:_SimpleCollator_GetContraction_m1391584430
KTd:_CultureInfo_get_InvariantCulture_m398972276
kTd:_Boolean_System_IConvertible_ToInt64_m4142756949_AdjustorThunk
eM:__ZNK8Animator17HasBoundPlayablesEv
bPc:__ZN17Physics2DSettings8TransferI24GenerateTypeTreeTransferEEvRT_
uvc:__ZN5Unity9rapidjson13GenericReaderINS0_4UTF8IcEES3_13JSONAllocatorE10ParseFalseILj0ENS0_19GenericStringStreamIS3_EENS0_15GenericDocumentIS3_S4_S4_EEEEvRT0_RT1_
tvf:_HMAC_initializePad_m3828610671
pPg:__ZL68DrivenTransformProperties_t2488747555_CustomAttributesCacheGeneratorP21CustomAttributesCache
Gmd:_RSAParameters_t1462703416_marshal_pinvoke_cleanup
qej:__ZN6il2cpp2vm7Runtime9SetConfigEPKc
Zvc:__ZN5Unity9rapidjson12PrettyWriterI16TempBufferWriterNS0_4UTF8IcEES4_13JSONAllocatorE10StartArrayEv
fbi:_ConfigHandler_OnChars_m2004226744
ua:invoke_iiifiii
Itj:__ZN6il2cpp2vm9Exception11FromNameMsgEPK11Il2CppImagePKcS6_S6_
QHe:_NumberFormatInfo_get_NumberDecimalDigits_m3706097953
w7f:_Type_internal_from_name_m1506974323
en:FUNCTION_TABLE_fiiifii
uL:__ZN10HumanTrait15InitializeClassEv
sea:__Z14GetTimeManagerv
exf:_ContentInfo_get_ContentType_m2984320800
V6b:__ZneRK20SpriteTilingPropertyS1_
thd:__ZN19TransportJavaScript7CleanupEv
eKa:__Z12GUIDToStringRK9UnityGUIDPc
GVc:__ZN20TextRenderingPrivate8TextMesh17MainThreadCleanupEv
kxi:_PlayableOutputHandle_GetHashCode_m191656281
cHi:_InvokableCall_1_Invoke_m3574781157_gshared
dT:__ZN11AudioSource22UnmuteActiveVideoSinksEv
WEj:__ZN4utf88internal20is_overlong_sequenceIiEEbjT_
mUg:__ZL87AudioSource_t1135106623_CustomAttributesCacheGenerator_AudioSource_get_clip_m2622010175P21CustomAttributesCache
Si:_glReadBuffer
ULa:__Z9SetLocalR15TransformAccessRKN4math7_float4Ey
oYd:_SynchronizedArrayListWrapper_get_Count_m4104930530
ujd:_HashAlgorithm_get_HashSize_m2625667696
aXb:__Z30SetupBakedOcclusionForGeometrybRK26SharedLightmapSettingsDataRK15LightmapIndicesR17ShaderPassContext
_3g:__ZL70U3CSpawnWaveU3Ec__Iterator0_t3564465097_CustomAttributesCacheGeneratorP21CustomAttributesCache
fse:_Array_Resize_TisVector4_t2243707581_m1528805937_gshared
Hpd:_SecurityPermission_IsSubsetOf_m1087302418
Mlc:__Z41Register_UnityEngine_Cursor_get_lockStatev
mLi:_Event_Internal_GetMousePosition_m2992465246
yWb:__Z14SetupLightmapsRK8Vector4fS1_R17ShaderPassContext
znj:__ZN14dense_hash_mapI10KeyWrapperIPK14Il2CppAssemblyEPK22Il2CppMonoAssemblyNameN6il2cpp5utils11PointerHashIS2_EENS4_14EqualsComparerINSt3__28equal_toIS3_EEEENSD_9allocatorINSD_4pairIKS4_S7_EEEEE13set_empty_keyERSJ_
uQf:_Interval_get_Empty_m3170923997
WVa:__ZL20InitializeGUIShadersv
l9b:__Z20DestroyObjectDelayedP6Objectf
i1:__ZN20DynamicHeapAllocatorI17LowLevelAllocatorED0Ev
dNd:_InputField_OnDrag_m726194348
PGc:__ZN10ClipperLib11ClipperBase5ResetEv
P8h:_GuidAttribute__ctor_m1099153635
zye:_PreviousInfo__ctor_m1442166472_AdjustorThunk
VTb:__ZN9DepthPassD2Ev
I7d:_DateTime_get_Kind_m1331920314_AdjustorThunk
FZi:_TextGenerator_get_rectExtents_m954923136
KO:__ZN11AudioFilter6GetDSPEv
Vjg:_PropertyBuilder_get_Module_m1618339927
n6:__ZN19RuntimeSceneManager14CanUnloadSceneEP10UnityScene
ieh:__Z50RuntimeInvoker_Single_t2076509932_Int64_t909078037PFvvEPK10MethodInfoPvPS4_
XTb:__Z22ExtractRenderNodeQueueRK11CullResults15ExtractionFlagsR15RenderNodeQueue
ere:_Array_InternalArray__set_Item_TisContentType_t1028629049_m703420360_gshared
FBj:__ZN6il2cpp2vm6Method7GetNameEPK10MethodInfo
Wbf:_List_1_set_Item_m1431784996_gshared
RN:__ZN24AudioScriptBufferManagerC2Ev
RTc:__ZNSt3__26vectorIh13stl_allocatorIhL18MemLabelIdentifier1ELi16EEE8__appendEj
Y7g:__Z95RuntimeInvoker_Void_t1841601450_RuntimeObject_Int32_t2071877448_Int32_t2071877448_RuntimeObjectPFvvEPK10MethodInfoPvPS4_
lvc:__ZN8JSONRead32GetValueForKeyWithNameConversionEPKN5Unity9rapidjson12GenericValueINS1_4UTF8IcEE13JSONAllocatorEEPKc
UTc:__ZN20TextRenderingPrivate8FontImpl16ResetPackingDataEv
Ele:_Array_InternalArray__IndexOf_TisLink_t865133271_m3612939760_gshared
Ppi:_Input_get_mousePresent_m1100327283
Uwc:__Z18Transfer_BlittableI9JSONWriteLb0EfEvRK29SerializationCommandArgumentsR31RuntimeSerializationCommandInfo
opa:__Z21GetAsyncUploadManagerv
Jj:_emscripten_glDetachShader
Brg:__ZL66RuntimeArray_CustomAttributesCacheGenerator_Array_Sort_m3500510484P21CustomAttributesCache
ywe:_SafeHandleZeroOrMinusOneIsInvalid_get_IsInvalid_m2033528032
$Vd:_Char_IsUpper_m4083577610
cpa:__ZN17GenericDynamicVBO20ReleaseChunkInternalERK21DynamicVBOChunkHandlejj
Z4c:__ZL27CleanupModule_TextRenderingv
xwe:_SafeHandleZeroOrMinusOneIsInvalid__ctor_m3340306667
LPj:_fmodl
mYf:_SerializationInfo_AddValue_m902275108
bTi:_U3CSpawnWaveU3Ec__Iterator0_MoveNext_m3072528816
ZPj:_fmodf
Pkf:_Collection_1_RemoveItem_m2272047354_gshared
JDb:__Z18Transfer_BlittableI18StreamedBinaryReadILb1EELb1E4AABBEvRK29SerializationCommandArgumentsR31RuntimeSerializationCommandInfo
dDa:__ZN12CachedWriter11Align4WriteEv
$Ub:__Z20DoDeferredRenderLoopR17RenderLoopContextR13dynamic_arrayI16RenderObjectDataLj4EES4_RK11CullResultsRP13RenderTextureSA_Pb
QGa:__ZNSt3__26vectorIiNS_9allocatorIiEEE21__push_back_slow_pathIKiEEvRT_
dNb:__ZN19RuntimeSceneManager11CreateSceneEv
IEi:_Vector2_op_Implicit_m385881926
p$c:_ps_get_standard_strings
$Wb:__Z27SetupBakedOcclusionForLightbRK15SharedLightDataR17ShaderPassContext
tu:__ZN24GenerateTypeTreeTransfer8TransferIN13AnimationClip9PPtrCurveEEEvRT_PKc17TransferMetaFlags
MIf:__ZN21InterfaceFuncInvoker1IP13Uri_t19570940S1_E6InvokeEjP11Il2CppClassP12Il2CppObjectS1_
nQh:_ScrollRect_OnScroll_m3346515304
qSj:__ZN10__cxxabiv116__shim_type_infoD2Ev
z$e:_Enumerator_System_Collections_IEnumerator_get_Current_m3461301268_gshared
D7g:__Z63RuntimeInvoker_Void_t1841601450_Int32_t2071877448_RuntimeObjectPFvvEPK10MethodInfoPvPS4_
aFh:_Dictionary_2_CopyToCheck_m1638253305_gshared
XQb:__Z18RenderImageFiltersR10RenderLoopb
C1:__Z19free_alloc_internalPv18MemLabelIdentifier
L9c:__Z43CanvasRenderer_Get_Custom_PropMaterialCountP12Il2CppObject
bni:__ZN23InterfaceActionInvoker2IP21Exception_t1927440687P18Object_t1021602117E6InvokeEjP11Il2CppClassP12Il2CppObjectS1_S3_
kXb:__ZNSt3__227__insertion_sort_incompleteIR23CompareReflectionProbesP31RuntimeReflectionProbeBlendInfoEEbT0_S5_T_
znf:_ReadOnlyCollection_1_System_Collections_Generic_IListU3CTU3E_set_Item_m25653560_gshared
pMi:_GUIContent_t4210063000_marshal_pinvoke_cleanup
oCc:__ZN8JSONRead21TransferSTLStyleArrayI13dynamic_arrayI11QuaternionfLj4EEEEvRT_17TransferMetaFlags
up:__ZN6Object23VirtualRedirectTransferER19StreamedBinaryWriteILb1EE
kt:__ZNSt3__26vectorIN13AnimationClip10FloatCurveE13stl_allocatorIS2_L18MemLabelIdentifier26ELi16EEE6assignINS_11__wrap_iterIPS2_EEEENS_9enable_ifIXaasr21__is_forward_iteratorIT_EE5valuesr16is_constructibleIS2_NS_15iterator_traitsISC_E9referenceEEE5valueEvE4typeESC_SC_
jkc:__ZNK9BlobWrite24HasOffsetPtrWithDebugPtrEv
JJ:__ZN18StreamedBinaryReadILb0EE21TransferSTLStyleArrayI22OffsetPtrArrayTransferI9OffsetPtrIN7mecanim12statemachine18TransitionConstantEEEEEvRT_17TransferMetaFlags
j1g:__ZL68Selectable_t1490392188_CustomAttributesCacheGenerator_m_InteractableP21CustomAttributesCache
Whc:__ZN19RuntimeSceneManager32LoadSceneAsyncByNameOrBuildIndexERKN4core12basic_stringIcNS0_20StringStorageDefaultIcEEEEiNS_11LoadingModeEb
txf:_CertificateSelectionCallback_Invoke_m2902629105
Lba:__ZN10InputEventD2Ev
r2d:_DateTimeFormatInfo_GetAllDateTimePatternsInternal_m1587126173
$fc:__ZN24CompressedAnimationCurve18DecompressTimeKeysI11QuaternionfEEvR17AnimationCurveTplIT_E
fqd:_Evidence__ctor_m1638117806
Ahf:__ZN21InterfaceFuncInvoker1Ib22UICharInfo_t3056636800E6InvokeEjP11Il2CppClassP12Il2CppObjectS0_
NLe:_NumberFormatter_Append_m3268121457
nZh:_InternalEnumerator_1_Dispose_m3578333724_AdjustorThunk
aoa:__ZN15dense_hashtableINSt3__24pairIK9TextureIDiEES2_N12TextureIdMap20TextureIDHashFunctorEN14dense_hash_mapIS2_iS6_NS0_8equal_toIS2_EE13stl_allocatorIS4_L18MemLabelIdentifier67ELi16EEE9SelectKeyES9_SC_E12resize_deltaEjj
Fhd:__ZN22UnityWebRequestManagerD2Ev
ini:_DebugLogHandler__ctor_m786660247
pmd:_RSA_ToXmlString_m4145056574
sce:_Double_System_IConvertible_ToUInt64_m1318285078_AdjustorThunk
qPj:_isalpha
VOh:_Selectable_FindSelectable_m2739582497
sEc:__ZNK12b2MotorJoint17GetReactionTorqueEf
g7d:_DateTimeUtils_ZeroPad_m86470512
cah:__Z94RuntimeInvoker_Void_t1841601450_RuntimeObject_Int32_t2071877448_RuntimeObject_SByte_t454417549PFvvEPK10MethodInfoPvPS4_
iCi:_TextAreaAttribute__ctor_m2180114682
mcj:__ZN6il2cpp2vmL17IsSocketAsyncCallEP14Il2CppDelegate
xQc:__Z13RegisterClassI11Rigidbody2DEvv
uEj:__ZN6il2cpp2vm6String6NewLenEPKcj
eLb:__ZN17PersistentManager9AddStreamEv
gDj:__ZN6il2cpp2os6Thread12GetApartmentEv
BBa:__ZN9GfxDevice28UpdateComputeConstantBuffersEjP12ObjectHandleI18ConstantBuffer_TagPvEjjPKhPKjS8_PKi
Zk:_time
l$g:__ZL79GraphicRaycaster_t410733016_CustomAttributesCacheGenerator_U3CU3Ef__amU24cache0P21CustomAttributesCache
Sri:_Mesh_get_uv_m1990385212
hxi:_PlayableOutput_Equals_m2167434642_AdjustorThunk
TId:_Graphic_UnregisterDirtyLayoutCallback_m1724443555
aMa:__ZN14BatchAllocator6CommitE18MemLabelIdentifier
J0c:_cf2_stack_free
yyd:_ExecuteEvents_get_pointerClickHandler_m713983310
Ty:__ZN7mecanim9animation19EvaluateFloatValuesEPKNS0_18ClipMuscleConstantEPKNS_18ValueArrayConstantEPKNS0_12ClipBindingsEPKNS0_10ClipOutputEPNS0_18AnimationNodeStateEfbb
I2g:__ZL94LayoutGroup_t3962498969_CustomAttributesCacheGenerator_LayoutGroup_DelayedSetDirty_m4276695617P21CustomAttributesCache
SG:__ZN8Animator31ClearInternalControllerPlayableEv
bcg:_WeakReference_Finalize_m3318354542
qLa:__ZN10GameObject8TransferI24GenerateTypeTreeTransferEEvRT_
c0e:_Enumerator_VerifyState_m3913376581_gshared
k2g:__ZL72GridLayoutGroup_t1515633077_CustomAttributesCacheGenerator_m_StartCornerP21CustomAttributesCache
RJg:__ZL83U3CCreateWhereIteratorU3Ec__Iterator1D_1_t2523986802_CustomAttributesCacheGeneratorP21CustomAttributesCache
Sdh:__Z51RuntimeInvoker_Int16_t4041245914_Double_t4078015681PFvvEPK10MethodInfoPvPS4_
e2h:_InternalEnumerator_1_MoveNext_m3103009949_gshared
f1j:_glDeleteSync__wrapper
M3d:_Decimal_op_Implicit_m623319612
PBh:_ValueCollection_System_Collections_Generic_ICollectionU3CTValueU3E_Remove_m98888100_gshared
Mxd:_EventTrigger_OnPointerExit_m2119176877
N4f:_ThreadAbortException__ctor_m1623816114
jac:__ZN13ProduceHelperI30RuntimeInitializeOnLoadManagerLb0EE7ProduceE18MemLabelIdentifier18ObjectCreationMode
M0b:__ZN13RenderTexture19SetAutoGenerateMipsEb
Gqa:__Z20GetTextureFormatInfo13TextureFormat
vah:__Z119RuntimeInvoker_RuntimeObject_RuntimeObject_RuntimeObject_Int32_t2071877448_Int32_t2071877448_MonoIOErrorU26_t1029615899PFvvEPK10MethodInfoPvPS4_
GB:__ZN26AnimatorControllerPlayable8GetFloatEiRf
QMh:_Shadow__ctor_m924057531
Azd:_PointerEventData_set_worldPosition_m192283671
Zef:_Collection_1_InsertItem_m1391780791_gshared
KEb:__ZN18StreamedBinaryReadILb1EE5AlignEv
PKj:__ZN6il2cpp5utils10MemoryPool6MallocEj
jN:__ZN11SoundHandle8InstanceD2Ev
Uea:__ZN31CanvasBatchIntermediateRenderer13StaticDestroyEPv
kwi:_X509Store_BuildCrlsCollection_m52567568
S7:__ZNSt3__23mapIiP15MonoScriptCacheNS_4lessIiEE13stl_allocatorINS_4pairIKiS2_EEL18MemLabelIdentifier78ELi16EEEixERS7_
Iaj:__ZNK15dense_hashtableINSt3__24pairIK10KeyWrapperIPK11Il2CppClassEPKcEES6_N6il2cpp5utils11PointerHashIS3_EEN14dense_hash_mapIS6_S9_SE_NS6_14EqualsComparerINS0_8equal_toIS5_EEEENS0_9allocatorISA_EEE9SelectKeyESJ_SL_E10test_emptyERK24dense_hashtable_iteratorISA_S6_SE_SN_SJ_SL_E
PDf:_RecordProtocol_InternalSendRecordCallback_m3984764857
_Xf:_CallbackHandler__ctor_m1235509347
Jve:_Array_InternalArray__get_Item_TisUICharInfo_t3056636800_m3872982785_gshared
Yri:_Mesh_SetNormals_m2780518036
bde:_Enum_ToString_m662345249
y1e:_List_1_get_Capacity_m531373308_gshared
sjh:__Z150RuntimeInvoker_Single_t2076509932_Single_t2076509932_Single_t2076509932_SingleU26_t4173844468_Single_t2076509932_Single_t2076509932_Single_t2076509932PFvvEPK10MethodInfoPvPS4_
_Ag:__ZL66DESCryptoServiceProvider_t933603253_CustomAttributesCacheGeneratorP21CustomAttributesCache
Hlc:__Z41Register_UnityEngine_CullingGroup_Disposev
Ieh:__Z54RuntimeInvoker_Boolean_t3825574718_DateTime_t693205669PFvvEPK10MethodInfoPvPS4_
_$a:__ZN7Cubemap23VirtualRedirectTransferER19StreamedBinaryWriteILb0EE
FIa:__ZN25MultiBlocksMemoryFileData5WriteEyyPKv
EFc:__ZNK13b2PulleyJoint16GetReactionForceEf
Yoi:_ScriptableRenderContext__ctor_m3729862500_AdjustorThunk
q7e:_List_1_System_Collections_IList_Add_m4271264217_gshared
NUh:_Action_1_BeginInvoke_m1305519803_gshared
voj:__ZN14dense_hash_mapI10KeyWrapperIPK10Il2CppTypeEjN6il2cpp8metadata14Il2CppTypeHashENS4_14EqualsComparerINS6_26Il2CppTypeEqualityComparerEEENSt3__29allocatorINSB_4pairIKS4_jEEEEE13set_empty_keyERSE_
qua:__ZL17ProgramUniform2fvPK7ApiGLESjiihPKv
S_j:b83
MTc:__ZN20TextRenderingPrivate8FontImpl21HasCharacterInTextureEjijfPj
p$h:_InternalEnumerator_1_Dispose_m219216750_AdjustorThunk
MQj:_htonl
Qla:__Z20GetBufferManagerGLESv
Kke:__ZN21InterfaceFuncInvoker1Ii18Color32_t874517518E6InvokeEjP11Il2CppClassP12Il2CppObjectS0_
AHb:__ZN18StreamedBinaryReadILb0EE21TransferSTLStyleArrayI31ArrayOfManagedObjectsTransfererEEvRT_17TransferMetaFlags
Q2f:_UTF7Decoder_GetChars_m2790530452
NQj:_htons
dAc:__Z18Transfer_BlittableI8JSONReadLb0EtEvRK29SerializationCommandArgumentsR31RuntimeSerializationCommandInfo
Mmj:__ZN15dense_hashtableINSt3__24pairIK10KeyWrapperINS1_IPK9EventInfoP11Il2CppClassEEEjEES9_17ReflectionMapHashIS8_EN14dense_hash_mapIS9_jSD_NS9_14EqualsComparerINS0_8equal_toIS8_EEEENS0_9allocatorISB_EEE9SelectKeyESI_SK_E12expand_arrayEjN21dense_hash_map_traits17integral_constantIbLb0EEE
ZDb:__Z18Transfer_BlittableI18StreamedBinaryReadILb1EELb0E5RectTIiEEvRK29SerializationCommandArgumentsR31RuntimeSerializationCommandInfo
sNi:_GUIStyle_t1799908754_marshal_pinvoke_back
rTh:_Text_set_fontSize_m2101304336
m0a:__ZNK7Cubemap20GetTextureLayerCountEv
TWc:_pshinter_module_class_pic_free
t0g:__ZL68Navigation_t1571958496_CustomAttributesCacheGenerator_m_SelectOnLeftP21CustomAttributesCache
pC:__ZN34AnimationStateMachineMixerPlayable13EndTransitionEv
IHc:__ZNSt3__26vectorIxNS_9allocatorIxEEE6assignIPxEENS_9enable_ifIXaasr21__is_forward_iteratorIT_EE5valuesr16is_constructibleIxNS_15iterator_traitsIS7_E9referenceEEE5valueEvE4typeES7_S7_
sP:__ZN12AudioManager21FixMasterGroupRoutingEv
ood:_SymmetricAlgorithm_set_Key_m2973350820
GOc:__ZN6b2Body9SetActiveEb
M_g:__ZL58FontData_t2614388407_CustomAttributesCacheGenerator_m_FontP21CustomAttributesCache
ZJf:_WebHeaderCollection_IsHeaderValue_m1723393133
WSc:__ZN20TextRenderingPrivate8FontImpl13CharacterInfo8TransferI24GenerateTypeTreeTransferEEvRT_
g0e:_Enumerator_Dispose_m3717265706_AdjustorThunk
XJd:_HorizontalOrVerticalLayoutGroup_get_childForceExpandWidth_m227100883
DBj:__ZN6il2cpp2os10ThreadImpl33UnregisterCurrentThreadForCleanupEv
zA:__ZN27AnimationLayerMixerPlayable22PrepareAnimationEventsEfR13dynamic_arrayI22AnimationClipEventInfoLj4EE
Rtb:__Z18Transfer_BlittableI14SafeBinaryReadLb1E4AABBEvRK29SerializationCommandArgumentsR31RuntimeSerializationCommandInfo
